

Microchip Technology PIC18 LITE Macro Assembler V1.34 build -361300703 
                                                                                               Thu Jun 01 08:39:49 2017

Microchip Technology Omniscient Code Generator (Lite mode) build 201502162209
     1                           	processor	18F4550
     2                           	fnconf	rparam,??,?,0
     3                           	opt	pw 120
     4                           	opt	lm
     5                           	psect	nvBANK0,global,class=BANK0,space=1,delta=1
     6                           	psect	cinit,global,reloc=2,class=CODE,delta=1
     7                           	psect	bitbssCOMRAM,global,bit,class=COMRAM,space=1,delta=1
     8                           	psect	bssCOMRAM,global,class=COMRAM,space=1,delta=1
     9                           	psect	bssBANK0,global,class=BANK0,space=1,delta=1
    10                           	psect	bssBANK1,global,class=BANK1,space=1,delta=1
    11                           	psect	cstackBANK1,global,class=BANK1,space=1,delta=1
    12                           	psect	cstackBANK0,global,class=BANK0,space=1,delta=1
    13                           	psect	cstackCOMRAM,global,class=COMRAM,space=1,delta=1
    14                           	psect	text0,global,reloc=2,class=CODE,delta=1
    15                           	psect	text1,global,reloc=2,class=CODE,delta=1
    16                           	psect	text2,global,reloc=2,class=CODE,delta=1
    17                           	psect	text3,global,reloc=2,class=CODE,delta=1
    18                           	psect	text4,global,reloc=2,class=CODE,delta=1
    19                           	psect	text5,global,reloc=2,class=CODE,delta=1
    20                           	psect	text6,global,reloc=2,class=CODE,delta=1
    21                           	psect	text7,global,reloc=2,class=CODE,delta=1
    22                           	psect	text8,global,reloc=2,class=CODE,delta=1
    23                           	psect	text9,global,reloc=2,class=CODE,delta=1
    24                           	psect	text10,global,reloc=2,class=CODE,delta=1
    25                           	psect	text11,global,reloc=2,class=CODE,delta=1
    26                           	psect	text12,global,reloc=2,class=CODE,delta=1
    27                           	psect	text13,global,reloc=2,class=CODE,delta=1
    28                           	psect	text14,global,reloc=2,class=CODE,delta=1
    29                           	psect	text15,global,reloc=2,class=CODE,delta=1
    30                           	psect	text16,global,reloc=2,class=CODE,delta=1
    31                           	psect	text17,global,reloc=2,class=CODE,delta=1
    32                           	psect	text18,global,reloc=2,class=CODE,delta=1
    33                           	psect	text19,global,reloc=2,class=CODE,delta=1
    34                           	psect	text20,global,reloc=2,class=CODE,delta=1
    35                           	psect	text21,global,reloc=2,class=CODE,delta=1
    36                           	psect	text22,global,reloc=2,class=CODE,delta=1
    37                           	psect	text23,global,reloc=2,class=CODE,delta=1
    38                           	psect	intcodelo,global,reloc=2,class=CODE,delta=1
    39                           	psect	text25,global,reloc=2,class=CODE,delta=1
    40                           	psect	text26,global,reloc=2,class=CODE,delta=1
    41                           	psect	intcode,global,reloc=2,class=CODE,delta=1
    42                           	psect	intcode_body,global,reloc=2,class=CODE,delta=1
    43                           	psect	text28,global,reloc=2,class=CODE,delta=1
    44                           	psect	text29,global,reloc=2,class=CODE,delta=1
    45                           	psect	text30,global,reloc=2,class=CODE,delta=1
    46                           	psect	intsave_regs,global,class=BIGRAM,space=1,delta=1
    47                           	psect	rparam,global,class=COMRAM,space=1,delta=1
    48  0000                     
    49                           	psect	nvBANK0
    50  0000E3                     __pnvBANK0:
    51                           	opt stack 0
    52  0000E3                     _CanalADAtivo:
    53                           	opt stack 0
    54  0000E3                     	ds	1
    55  0000E4                     _PWMpanela:
    56                           	opt stack 0
    57  0000E4                     	ds	1
    58  0000                     _ADCON0	set	4034
    59  0000                     _ADCON0bits	set	4034
    60  0000                     _ADCON1	set	4033
    61  0000                     _ADCON2	set	4032
    62  0000                     _ADRESH	set	4036
    63  0000                     _ADRESL	set	4035
    64  0000                     _BAUDCONbits	set	4024
    65  0000                     _CCP1CON	set	4029
    66  0000                     _CCP2CON	set	4026
    67  0000                     _CCPR1H	set	4031
    68  0000                     _CCPR1L	set	4030
    69  0000                     _CCPR2L	set	4027
    70  0000                     _CMCON	set	4020
    71  0000                     _EEADR	set	4009
    72  0000                     _EECON1bits	set	4006
    73  0000                     _EECON2	set	4007
    74  0000                     _EEDATA	set	4008
    75  0000                     _INTCON2bits	set	4081
    76  0000                     _INTCONbits	set	4082
    77  0000                     _IPR1bits	set	3999
    78  0000                     _IPR2bits	set	4002
    79  0000                     _PIE1bits	set	3997
    80  0000                     _PIE2bits	set	4000
    81  0000                     _PIR1bits	set	3998
    82  0000                     _PIR2bits	set	4001
    83  0000                     _PORTA	set	3968
    84  0000                     _PORTAbits	set	3968
    85  0000                     _PORTB	set	3969
    86  0000                     _PORTBbits	set	3969
    87  0000                     _PORTC	set	3970
    88  0000                     _PORTCbits	set	3970
    89  0000                     _PORTD	set	3971
    90  0000                     _PORTDbits	set	3971
    91  0000                     _PORTE	set	3972
    92  0000                     _PORTEbits	set	3972
    93  0000                     _PR2	set	4043
    94  0000                     _RCONbits	set	4048
    95  0000                     _RCREG	set	4014
    96  0000                     _RCSTAbits	set	4011
    97  0000                     _SPBRG	set	4015
    98  0000                     _SPBRGH	set	4016
    99  0000                     _T0CON	set	4053
   100  0000                     _T2CON	set	4042
   101  0000                     _T3CON	set	4017
   102  0000                     _TMR0L	set	4054
   103  0000                     _TRISA	set	3986
   104  0000                     _TRISB	set	3987
   105  0000                     _TRISC	set	3988
   106  0000                     _TRISD	set	3989
   107  0000                     _TRISE	set	3990
   108  0000                     _TXREG	set	4013
   109  0000                     _TXSTAbits	set	4012
   110                           
   111                           ; #config settings
   112  0000                     
   113                           	psect	cinit
   114  00301C                     __pcinit:
   115                           	opt stack 0
   116  00301C                     start_initialization:
   117                           	opt stack 0
   118  00301C                     __initialization:
   119                           	opt stack 0
   120                           
   121                           ; Clear objects allocated to BANK1 (80 bytes)
   122  00301C  EE01  F000         	lfsr	0,__pbssBANK1
   123  003020  0E50               	movlw	80
   124  003022                     clear_0:
   125  003022  6AEE               	clrf	postinc0,c
   126  003024  06E8               	decf	wreg,f,c
   127  003026  E1FD               	bnz	clear_0
   128                           
   129                           ; Clear objects allocated to BANK0 (104 bytes)
   130  003028  EE00  F060         	lfsr	0,__pbssBANK0
   131  00302C  0E68               	movlw	104
   132  00302E                     clear_1:
   133  00302E  6AEE               	clrf	postinc0,c
   134  003030  06E8               	decf	wreg,f,c
   135  003032  E1FD               	bnz	clear_1
   136                           
   137                           ; Clear objects allocated to BITCOMRAM (3 bytes)
   138  003034  6A46               	clrf	((__pbitbssCOMRAM/(0+8)+2))& (0+255),c
   139  003036  6A45               	clrf	((__pbitbssCOMRAM/(0+8)+1))& (0+255),c
   140  003038  6A44               	clrf	(__pbitbssCOMRAM/(0+8))& (0+255),c
   141                           
   142                           ; Clear objects allocated to COMRAM (36 bytes)
   143  00303A  EE00  F001         	lfsr	0,__pbssCOMRAM
   144  00303E  0E24               	movlw	36
   145  003040                     clear_2:
   146  003040  6AEE               	clrf	postinc0,c
   147  003042  06E8               	decf	wreg,f,c
   148  003044  E1FD               	bnz	clear_2
   149  003046                     end_of_initialization:
   150                           	opt stack 0
   151  003046                     __end_of__initialization:
   152                           	opt stack 0
   153  003046  0E00               	movlw	low (__Lmediumconst shr (0+16))
   154  003048  6EF8               	movwf	tblptru,c
   155  00304A  0100               	movlb	0
   156  00304C  EFD0  F010         	goto	_main	;jump to C main() function
   157                           tblptru	equ	0xFF8
   158                           postinc0	equ	0xFEE
   159                           wreg	equ	0xFE8
   160                           
   161                           	psect	bitbssCOMRAM
   162  000220                     __pbitbssCOMRAM:
   163                           	opt stack 0
   164  000220                     _ControlePotenciaFervura:
   165                           	opt stack 0
   166  000220                     	ds	1
   167  000221                     _EnviaDadoTrend:
   168                           	opt stack 0
   169  000221                     	ds	1
   170  000222                     _IN0:
   171                           	opt stack 0
   172  000222                     	ds	1
   173  000223                     _IN1:
   174                           	opt stack 0
   175  000223                     	ds	1
   176  000224                     _MudancaSegundos:
   177                           	opt stack 0
   178  000224                     	ds	1
   179  000225                     _OUT0:
   180                           	opt stack 0
   181  000225                     	ds	1
   182  000226                     _OUT1:
   183                           	opt stack 0
   184  000226                     	ds	1
   185  000227                     _OnOffControleTemp:
   186                           	opt stack 0
   187  000227                     	ds	1
   188  000228                     _StatusY2:
   189                           	opt stack 0
   190  000228                     	ds	1
   191  000229                     _StatusY3:
   192                           	opt stack 0
   193  000229                     	ds	1
   194  00022A                     _StatusY4:
   195                           	opt stack 0
   196  00022A                     	ds	1
   197  00022B                     _StatusY5:
   198                           	opt stack 0
   199  00022B                     	ds	1
   200  00022C                     _StatusY6:
   201                           	opt stack 0
   202  00022C                     	ds	1
   203  00022D                     _StatusY7:
   204                           	opt stack 0
   205  00022D                     	ds	1
   206  00022E                     _TempPanelaOK:
   207                           	opt stack 0
   208  00022E                     	ds	1
   209  00022F                     _TransmiteSerial:
   210                           	opt stack 0
   211  00022F                     	ds	1
   212  000230                     _fSerialInEnd:
   213                           	opt stack 0
   214  000230                     	ds	1
   215                           tblptru	equ	0xFF8
   216                           postinc0	equ	0xFEE
   217                           wreg	equ	0xFE8
   218                           
   219                           	psect	bssCOMRAM
   220  000001                     __pbssCOMRAM:
   221                           	opt stack 0
   222  000001                     _ValoresAD:
   223                           	opt stack 0
   224  000001                     	ds	8
   225  000009                     _TAmostragemPID:
   226                           	opt stack 0
   227  000009                     	ds	2
   228  00000B                     _t1captura:
   229                           	opt stack 0
   230  00000B                     	ds	2
   231  00000D                     _t2captura:
   232                           	opt stack 0
   233  00000D                     	ds	2
   234  00000F                     HighISR@CanalAD:
   235                           	opt stack 0
   236  00000F                     	ds	1
   237  000010                     HighISR@ContMedia:
   238                           	opt stack 0
   239  000010                     	ds	1
   240  000011                     HighISR@EstadoAD:
   241                           	opt stack 0
   242  000011                     	ds	1
   243  000012                     HighISR@FreeRun5ms:
   244                           	opt stack 0
   245  000012                     	ds	1
   246  000013                     LowISR@Indice:
   247                           	opt stack 0
   248  000013                     	ds	1
   249  000014                     _ByteVolumeDosado:
   250                           	opt stack 0
   251  000014                     	ds	1
   252  000015                     _ContDecSeg:
   253                           	opt stack 0
   254  000015                     	ds	1
   255  000016                     _FrequenciaMedidorFluxo:
   256                           	opt stack 0
   257  000016                     	ds	1
   258  000017                     _Inputs10to17:
   259                           	opt stack 0
   260  000017                     	ds	1
   261  000018                     _Inputs18to25:
   262                           	opt stack 0
   263  000018                     	ds	1
   264  000019                     _Inputs2to9:
   265                           	opt stack 0
   266  000019                     	ds	1
   267  00001A                     _KI:
   268                           	opt stack 0
   269  00001A                     	ds	1
   270  00001B                     _KP:
   271                           	opt stack 0
   272  00001B                     	ds	1
   273  00001C                     _Outputs10to17:
   274                           	opt stack 0
   275  00001C                     	ds	1
   276  00001D                     _Outputs2to9:
   277                           	opt stack 0
   278  00001D                     	ds	1
   279  00001E                     _Segundos:
   280                           	opt stack 0
   281  00001E                     	ds	1
   282  00001F                     _SetPointTempPanela:
   283                           	opt stack 0
   284  00001F                     	ds	1
   285  000020                     _TempChar:
   286                           	opt stack 0
   287  000020                     	ds	1
   288  000021                     _TempUChar:
   289                           	opt stack 0
   290  000021                     	ds	1
   291  000022                     _TotalMinutos:
   292                           	opt stack 0
   293  000022                     	ds	1
   294  000023                     _TotalSegundos:
   295                           	opt stack 0
   296  000023                     	ds	1
   297  000024                     _periodocaptura:
   298                           	opt stack 0
   299  000024                     	ds	1
   300                           tblptru	equ	0xFF8
   301                           postinc0	equ	0xFEE
   302                           wreg	equ	0xFE8
   303                           
   304                           	psect	bssBANK0
   305  000060                     __pbssBANK0:
   306                           	opt stack 0
   307  000060                     HighISR@AccValoresAD:
   308                           	opt stack 0
   309  000060                     	ds	8
   310  000068                     HighISR@ValoresADanteriores1:
   311                           	opt stack 0
   312  000068                     	ds	8
   313  000070                     HighISR@ValoresADanteriores2:
   314                           	opt stack 0
   315  000070                     	ds	8
   316  000078                     HighISR@ValoresADanteriores3:
   317                           	opt stack 0
   318  000078                     	ds	8
   319  000080                     	ds	8
   320  000088                     _VolumeDosado:
   321                           	opt stack 0
   322  000088                     	ds	3
   323  00008B                     _FreeRunSegundos:
   324                           	opt stack 0
   325  00008B                     	ds	2
   326  00008D                     _TempInt:
   327                           	opt stack 0
   328  00008D                     	ds	2
   329  00008F                     _TempUInt:
   330                           	opt stack 0
   331  00008F                     	ds	2
   332  000091                     _TempoEncherVessel:
   333                           	opt stack 0
   334  000091                     	ds	2
   335  000093                     _TempoVolumeAguaPrimaria:
   336                           	opt stack 0
   337  000093                     	ds	2
   338  000095                     ExecutaBrassagem@EstadoBomba:
   339                           	opt stack 0
   340  000095                     	ds	1
   341  000096                     ExecutaBrassagem@EstadoBrassagem:
   342                           	opt stack 0
   343  000096                     	ds	1
   344  000097                     _KD:
   345                           	opt stack 0
   346  000097                     	ds	1
   347  000098                     _Minutos:
   348                           	opt stack 0
   349  000098                     	ds	1
   350  000099                     _MinutosBomba:
   351                           	opt stack 0
   352  000099                     	ds	1
   353  00009A                     _PorcentagemBombaSparging:
   354                           	opt stack 0
   355  00009A                     	ds	1
   356  00009B                     _TemperaturaSparging:
   357                           	opt stack 0
   358  00009B                     	ds	1
   359  00009C                     _TempoAdicionarAguaSparging:
   360                           	opt stack 0
   361  00009C                     	ds	1
   362  00009D                     _TempoDescansosparging:
   363                           	opt stack 0
   364  00009D                     	ds	1
   365  00009E                     _ToffBomba:
   366                           	opt stack 0
   367  00009E                     	ds	1
   368  00009F                     _TonBomba:
   369                           	opt stack 0
   370  00009F                     	ds	1
   371  0000A0                     _TotalHoras:
   372                           	opt stack 0
   373  0000A0                     	ds	1
   374  0000A1                     _ReceitaAtual:
   375                           	opt stack 0
   376  0000A1                     	ds	39
   377                           tblptru	equ	0xFF8
   378                           postinc0	equ	0xFEE
   379                           wreg	equ	0xFE8
   380                           
   381                           	psect	bssBANK1
   382  000100                     __pbssBANK1:
   383                           	opt stack 0
   384  000100                     _SerialIn:
   385                           	opt stack 0
   386  000100                     	ds	40
   387  000128                     _SerialOut:
   388                           	opt stack 0
   389  000128                     	ds	40
   390                           tblptru	equ	0xFF8
   391                           postinc0	equ	0xFEE
   392                           wreg	equ	0xFE8
   393                           
   394                           	psect	cstackBANK1
   395  000150                     __pcstackBANK1:
   396                           	opt stack 0
   397  000150                     ??_DelayDWIN:
   398  000150                     ??_DelaySeg:
   399  000150                     ?___lwdiv:
   400                           	opt stack 0
   401  000150                     ?___ftpack:
   402                           	opt stack 0
   403  000150                     ___lwdiv@dividend:
   404                           	opt stack 0
   405  000150                     ___ftpack@arg:
   406                           	opt stack 0
   407                           
   408                           ; 3 bytes @ 0x0
   409  000150                     	ds	1
   410  000151                     DelaySeg@tempo:
   411                           	opt stack 0
   412  000151                     DelayDWIN@cont:
   413                           	opt stack 0
   414                           
   415                           ; 1 bytes @ 0x1
   416  000151                     	ds	1
   417  000152                     ?_LerDWINram:
   418                           	opt stack 0
   419  000152                     ?_LerDWINreg:
   420                           	opt stack 0
   421  000152                     DelaySeg@cont:
   422                           	opt stack 0
   423  000152                     EscreverDWINreg@valor:
   424                           	opt stack 0
   425  000152                     LerDWINram@endereco:
   426                           	opt stack 0
   427  000152                     EscreverDWINtrend@valor:
   428                           	opt stack 0
   429  000152                     ___lwdiv@divisor:
   430                           	opt stack 0
   431                           
   432                           ; 2 bytes @ 0x2
   433  000152                     	ds	1
   434  000153                     ___ftpack@exp:
   435                           	opt stack 0
   436                           
   437                           ; 1 bytes @ 0x3
   438  000153                     	ds	1
   439  000154                     AcionaValvulaMotorizada@valvula:
   440                           	opt stack 0
   441  000154                     EscreverDWINreg@endereco:
   442                           	opt stack 0
   443  000154                     LerDWINreg@endereco:
   444                           	opt stack 0
   445  000154                     EscreverDWINtrend@cont:
   446                           	opt stack 0
   447  000154                     ___ftpack@sign:
   448                           	opt stack 0
   449  000154                     ___lwdiv@counter:
   450                           	opt stack 0
   451  000154                     LerDWINram@VPrecebido:
   452                           	opt stack 0
   453                           
   454                           ; 2 bytes @ 0x4
   455  000154                     	ds	1
   456  000155                     ??___ftpack:
   457  000155                     AcionaValvulaMotorizada@sentido:
   458                           	opt stack 0
   459  000155                     EscreverDWINreg@cont:
   460                           	opt stack 0
   461  000155                     LerDWINreg@recebido:
   462                           	opt stack 0
   463  000155                     ___lwdiv@quotient:
   464                           	opt stack 0
   465                           
   466                           ; 2 bytes @ 0x5
   467  000155                     	ds	1
   468  000156                     LerDWINram@cont:
   469                           	opt stack 0
   470  000156                     LerDWINreg@cont:
   471                           	opt stack 0
   472                           
   473                           ; 1 bytes @ 0x6
   474  000156                     	ds	1
   475  000157                     ??_LeDadosReceita:
   476  000157                     ?___wmul:
   477                           	opt stack 0
   478  000157                     ?___awdiv:
   479                           	opt stack 0
   480  000157                     ___wmul@multiplier:
   481                           	opt stack 0
   482  000157                     ___awdiv@dividend:
   483                           	opt stack 0
   484                           
   485                           ; 2 bytes @ 0x7
   486  000157                     	ds	1
   487  000158                     ?___lbtoft:
   488                           	opt stack 0
   489  000158                     ?___lwtoft:
   490                           	opt stack 0
   491  000158                     ___lwtoft@c:
   492                           	opt stack 0
   493                           
   494                           ; 2 bytes @ 0x8
   495  000158                     	ds	1
   496  000159                     LeDadosReceita@buffer:
   497                           	opt stack 0
   498  000159                     ___wmul@multiplicand:
   499                           	opt stack 0
   500  000159                     ___awdiv@divisor:
   501                           	opt stack 0
   502                           
   503                           ; 2 bytes @ 0x9
   504  000159                     	ds	2
   505  00015B                     LeDadosReceita@utemp8:
   506                           	opt stack 0
   507  00015B                     ___awdiv@counter:
   508                           	opt stack 0
   509  00015B                     ___lbtoft@c:
   510                           	opt stack 0
   511  00015B                     ___wmul@product:
   512                           	opt stack 0
   513                           
   514                           ; 2 bytes @ 0xB
   515  00015B                     	ds	1
   516  00015C                     ?___ftmul:
   517                           	opt stack 0
   518  00015C                     ___awdiv@sign:
   519                           	opt stack 0
   520  00015C                     ___ftmul@f1:
   521                           	opt stack 0
   522                           
   523                           ; 3 bytes @ 0xC
   524  00015C                     	ds	1
   525  00015D                     ___awdiv@quotient:
   526                           	opt stack 0
   527                           
   528                           ; 2 bytes @ 0xD
   529  00015D                     	ds	2
   530  00015F                     EscreverDWINram@endereco:
   531                           	opt stack 0
   532  00015F                     ___ftmul@f2:
   533                           	opt stack 0
   534                           
   535                           ; 3 bytes @ 0xF
   536  00015F                     	ds	2
   537  000161                     EscreverDWINram@valor:
   538                           	opt stack 0
   539                           
   540                           ; 2 bytes @ 0x11
   541  000161                     	ds	1
   542  000162                     ??___ftmul:
   543                           
   544                           ; 0 bytes @ 0x12
   545  000162                     	ds	1
   546  000163                     EscreverDWINram@cont:
   547                           	opt stack 0
   548                           
   549                           ; 1 bytes @ 0x13
   550  000163                     	ds	1
   551  000164                     ??_ModoManual:
   552                           
   553                           ; 0 bytes @ 0x14
   554  000164                     	ds	1
   555  000165                     ___ftmul@exp:
   556                           	opt stack 0
   557                           
   558                           ; 1 bytes @ 0x15
   559  000165                     	ds	1
   560  000166                     ModoManual@temp:
   561                           	opt stack 0
   562  000166                     ___ftmul@f3_as_product:
   563                           	opt stack 0
   564                           
   565                           ; 3 bytes @ 0x16
   566  000166                     	ds	3
   567  000169                     ___ftmul@cntr:
   568                           	opt stack 0
   569                           
   570                           ; 1 bytes @ 0x19
   571  000169                     	ds	1
   572  00016A                     ___ftmul@sign:
   573                           	opt stack 0
   574                           
   575                           ; 1 bytes @ 0x1A
   576  00016A                     	ds	1
   577  00016B                     ___ftge@ff1:
   578                           	opt stack 0
   579                           
   580                           ; 3 bytes @ 0x1B
   581  00016B                     	ds	3
   582  00016E                     ___ftge@ff2:
   583                           	opt stack 0
   584                           
   585                           ; 3 bytes @ 0x1E
   586  00016E                     	ds	3
   587  000171                     ??___ftge:
   588                           
   589                           ; 0 bytes @ 0x21
   590  000171                     	ds	3
   591  000174                     ??_ExecutaBrassagem:
   592                           
   593                           ; 0 bytes @ 0x24
   594  000174                     	ds	6
   595  00017A                     ExecutaBrassagem@temp:
   596                           	opt stack 0
   597                           
   598                           ; 2 bytes @ 0x2A
   599  00017A                     	ds	2
   600  00017C                     ExecutaBrassagem@MinutosEtapa:
   601                           	opt stack 0
   602                           
   603                           ; 1 bytes @ 0x2C
   604  00017C                     	ds	1
   605  00017D                     main@SegundoAtual:
   606                           	opt stack 0
   607                           
   608                           ; 1 bytes @ 0x2D
   609  00017D                     	ds	1
   610  00017E                     main@EstadoPrincipal:
   611                           	opt stack 0
   612                           
   613                           ; 1 bytes @ 0x2E
   614  00017E                     	ds	1
   615                           tblptru	equ	0xFF8
   616                           postinc0	equ	0xFEE
   617                           wreg	equ	0xFE8
   618                           
   619                           	psect	cstackBANK0
   620  0000C8                     __pcstackBANK0:
   621                           	opt stack 0
   622  0000C8                     i2___lwdiv@counter:
   623                           	opt stack 0
   624                           
   625                           ; 1 bytes @ 0x0
   626  0000C8                     	ds	1
   627  0000C9                     i2___lwdiv@quotient:
   628                           	opt stack 0
   629                           
   630                           ; 2 bytes @ 0x1
   631  0000C9                     	ds	2
   632  0000CB                     ??_HighISR:
   633                           
   634                           ; 0 bytes @ 0x3
   635  0000CB                     	ds	17
   636  0000DC                     HighISR@Temp16:
   637                           	opt stack 0
   638                           
   639                           ; 2 bytes @ 0x14
   640  0000DC                     	ds	2
   641  0000DE                     HighISR@SomaErro:
   642                           	opt stack 0
   643                           
   644                           ; 2 bytes @ 0x16
   645  0000DE                     	ds	2
   646  0000E0                     HighISR@Erro:
   647                           	opt stack 0
   648                           
   649                           ; 2 bytes @ 0x18
   650  0000E0                     	ds	2
   651  0000E2                     HighISR@Temp8:
   652                           	opt stack 0
   653                           
   654                           ; 1 bytes @ 0x1A
   655  0000E2                     	ds	1
   656  0000E3                     tblptru	equ	0xFF8
   657                           postinc0	equ	0xFEE
   658                           wreg	equ	0xFE8
   659                           
   660                           ; 0 bytes @ 0x1B
   661                           
   662                           	psect	cstackCOMRAM
   663  000025                     __pcstackCOMRAM:
   664                           	opt stack 0
   665  000025                     ?i1___awdiv:
   666                           	opt stack 0
   667  000025                     ?i1___lwdiv:
   668                           	opt stack 0
   669  000025                     i1___awdiv@dividend:
   670                           	opt stack 0
   671  000025                     i1___lwdiv@dividend:
   672                           	opt stack 0
   673                           
   674                           ; 2 bytes @ 0x0
   675  000025                     	ds	2
   676  000027                     i1___awdiv@divisor:
   677                           	opt stack 0
   678  000027                     i1___lwdiv@divisor:
   679                           	opt stack 0
   680                           
   681                           ; 2 bytes @ 0x2
   682  000027                     	ds	2
   683  000029                     i1___awdiv@counter:
   684                           	opt stack 0
   685  000029                     i1___lwdiv@quotient:
   686                           	opt stack 0
   687                           
   688                           ; 2 bytes @ 0x4
   689  000029                     	ds	1
   690  00002A                     i1___awdiv@sign:
   691                           	opt stack 0
   692                           
   693                           ; 1 bytes @ 0x5
   694  00002A                     	ds	1
   695  00002B                     i1___lwdiv@counter:
   696                           	opt stack 0
   697  00002B                     i1___awdiv@quotient:
   698                           	opt stack 0
   699                           
   700                           ; 2 bytes @ 0x6
   701  00002B                     	ds	2
   702  00002D                     ??_LowISR:
   703                           
   704                           ; 0 bytes @ 0x8
   705  00002D                     	ds	17
   706  00003E                     ?___awmod:
   707                           	opt stack 0
   708  00003E                     ?i2___wmul:
   709                           	opt stack 0
   710  00003E                     ?i2___lwdiv:
   711                           	opt stack 0
   712  00003E                     ___awmod@dividend:
   713                           	opt stack 0
   714  00003E                     i2___wmul@multiplier:
   715                           	opt stack 0
   716  00003E                     i2___lwdiv@dividend:
   717                           	opt stack 0
   718                           
   719                           ; 2 bytes @ 0x19
   720  00003E                     	ds	2
   721  000040                     ___awmod@divisor:
   722                           	opt stack 0
   723  000040                     i2___wmul@multiplicand:
   724                           	opt stack 0
   725  000040                     i2___lwdiv@divisor:
   726                           	opt stack 0
   727                           
   728                           ; 2 bytes @ 0x1B
   729  000040                     	ds	2
   730  000042                     ___awmod@counter:
   731                           	opt stack 0
   732  000042                     i2___wmul@product:
   733                           	opt stack 0
   734                           
   735                           ; 2 bytes @ 0x1D
   736  000042                     	ds	1
   737  000043                     ___awmod@sign:
   738                           	opt stack 0
   739                           
   740                           ; 1 bytes @ 0x1E
   741  000043                     	ds	1
   742                           tblptru	equ	0xFF8
   743                           postinc0	equ	0xFEE
   744                           wreg	equ	0xFE8
   745                           
   746 ;;
   747 ;;Main: autosize = 0, tempsize = 0, incstack = 0, save=0
   748 ;;
   749 ;; *************** function _main *****************
   750 ;; Defined at:
   751 ;;		line 617 in file "main.c"
   752 ;; Parameters:    Size  Location     Type
   753 ;;		None
   754 ;; Auto vars:     Size  Location     Type
   755 ;;  EstadoPrinci    1   46[BANK1 ] unsigned char 
   756 ;;  SegundoAtual    1   45[BANK1 ] unsigned char 
   757 ;; Return value:  Size  Location     Type
   758 ;;		None               void
   759 ;; Registers used:
   760 ;;		wreg, fsr2l, fsr2h, status,2, status,0, prodl, prodh, cstack
   761 ;; Tracked objects:
   762 ;;		On entry : 0/0
   763 ;;		On exit  : 0/0
   764 ;;		Unchanged: 0/0
   765 ;; Data sizes:     COMRAM   BANK0   BANK1   BANK2   BANK3   BANK4   BANK5   BANK6   BANK7
   766 ;;      Params:         0       0       0       0       0       0       0       0       0
   767 ;;      Locals:         0       0       2       0       0       0       0       0       0
   768 ;;      Temps:          0       0       0       0       0       0       0       0       0
   769 ;;      Totals:         0       0       2       0       0       0       0       0       0
   770 ;;Total ram usage:        2 bytes
   771 ;; Hardware stack levels required when called:    7
   772 ;; This function calls:
   773 ;;		_Bipar
   774 ;;		_EscreverDWINram
   775 ;;		_EscreverDWINreg
   776 ;;		_ExecutaBrassagem
   777 ;;		_Inicializacao
   778 ;;		_LeDadosReceita
   779 ;;		_LeParamConfig
   780 ;;		_LerDWINreg
   781 ;;		_ModoManual
   782 ;;		_ResetaSaidas
   783 ;; This function is called by:
   784 ;;		Startup code after reset
   785 ;; This function uses a non-reentrant model
   786 ;;
   787                           
   788                           	psect	text0
   789  0021A0                     __ptext0:
   790                           	opt stack 0
   791  0021A0                     _main:
   792                           	opt stack 24
   793                           
   794                           ;main.c: 619: enum EstadosMenuPrincipal{MENUPRINCIPAL,BRASSAGEM,EDICAORECEITA,MANUAL,CON
      +                          FIGURACAO};
   795                           ;main.c: 620: unsigned char EstadoPrincipal;
   796                           ;main.c: 621: unsigned char SegundoAtual;
   797                           ;main.c: 623: t1captura = 0;
   798                           
   799                           ;incstack = 0
   800  0021A0  0E00               	movlw	0
   801  0021A2  6E0C               	movwf	_t1captura+1,c
   802  0021A4  0E00               	movlw	0
   803  0021A6  6E0B               	movwf	_t1captura,c
   804                           
   805                           ;main.c: 624: t2captura = 0;
   806  0021A8  0E00               	movlw	0
   807  0021AA  6E0E               	movwf	_t2captura+1,c
   808  0021AC  0E00               	movlw	0
   809  0021AE  6E0D               	movwf	_t2captura,c
   810                           
   811                           ;main.c: 625: periodocaptura = 0;
   812  0021B0  0E00               	movlw	0
   813  0021B2  6E24               	movwf	_periodocaptura,c
   814                           
   815                           ;main.c: 626: FrequenciaMedidorFluxo = 0;
   816  0021B4  0E00               	movlw	0
   817  0021B6  6E16               	movwf	_FrequenciaMedidorFluxo,c
   818                           
   819                           ;main.c: 627: Inicializacao();
   820  0021B8  EC8D  F016         	call	_Inicializacao	;wreg free
   821                           
   822                           ;main.c: 629: TransmiteSerial = 0;
   823  0021BC  9E45               	bcf	_TransmiteSerial/(0+8),_TransmiteSerial& (0+7),c
   824                           
   825                           ;main.c: 630: fSerialInEnd = 0;
   826  0021BE  9046               	bcf	_fSerialInEnd/(0+8),_fSerialInEnd& (0+7),c
   827                           
   828                           ;main.c: 631: SegundoAtual = Segundos;
   829  0021C0  C01E  F17D         	movff	_Segundos,main@SegundoAtual
   830                           
   831                           ;main.c: 632: EstadoPrincipal = MENUPRINCIPAL;
   832  0021C4  0E00               	movlw	0
   833  0021C6  0101               	movlb	1	; () banked
   834  0021C8  6F7E               	movwf	main@EstadoPrincipal& (0+255),b
   835                           
   836                           ; BSR set to: 1
   837                           ;main.c: 633: PWMpanela = 1;
   838  0021CA  0E01               	movlw	1
   839  0021CC  0100               	movlb	0	; () banked
   840  0021CE  6FE4               	movwf	_PWMpanela& (0+255),b
   841                           
   842                           ; BSR set to: 0
   843                           ;main.c: 634: OnOffControleTemp = 0;
   844  0021D0  9E44               	bcf	_OnOffControleTemp/(0+8),_OnOffControleTemp& (0+7),c
   845                           
   846                           ; BSR set to: 0
   847                           ;main.c: 635: ControlePotenciaFervura = 0;
   848  0021D2  9044               	bcf	_ControlePotenciaFervura/(0+8),_ControlePotenciaFervura& (0+7),c
   849                           
   850                           ; BSR set to: 0
   851                           ;main.c: 636: PORTD = 0;
   852  0021D4  0E00               	movlw	0
   853  0021D6  6E83               	movwf	3971,c	;volatile
   854                           
   855                           ; BSR set to: 0
   856                           ;main.c: 637: CCPR2L = 0;
   857  0021D8  0E00               	movlw	0
   858  0021DA  6EBB               	movwf	4027,c	;volatile
   859                           
   860                           ; BSR set to: 0
   861                           ;main.c: 638: CanalADAtivo = 99;
   862  0021DC  0E63               	movlw	99
   863  0021DE  0100               	movlb	0	; () banked
   864  0021E0  6FE3               	movwf	_CanalADAtivo& (0+255),b
   865                           
   866                           ; BSR set to: 0
   867                           ;main.c: 639: EnviaDadoTrend = 0;
   868  0021E2  9244               	bcf	_EnviaDadoTrend/(0+8),_EnviaDadoTrend& (0+7),c
   869                           
   870                           ; BSR set to: 0
   871                           ;main.c: 642: ResetaSaidas();
   872  0021E4  EC37  F012         	call	_ResetaSaidas	;wreg free
   873                           
   874                           ;main.c: 644: EscreverDWINram(0x26,0);
   875  0021E8  0E00               	movlw	0
   876  0021EA  0101               	movlb	1	; () banked
   877  0021EC  6F60               	movwf	(EscreverDWINram@endereco+1)& (0+255),b
   878  0021EE  0E26               	movlw	38
   879  0021F0  6F5F               	movwf	EscreverDWINram@endereco& (0+255),b
   880  0021F2  0E00               	movlw	0
   881  0021F4  0101               	movlb	1	; () banked
   882  0021F6  6F62               	movwf	(EscreverDWINram@valor+1)& (0+255),b
   883  0021F8  0E00               	movlw	0
   884  0021FA  6F61               	movwf	EscreverDWINram@valor& (0+255),b
   885  0021FC  ECCD  F016         	call	_EscreverDWINram	;wreg free
   886                           
   887                           ;main.c: 646: LeParamConfig();
   888  002200  EC57  F013         	call	_LeParamConfig	;wreg free
   889                           
   890                           ;main.c: 647: LeDadosReceita();
   891  002204  EC50  F00F         	call	_LeDadosReceita	;wreg free
   892                           
   893                           ;main.c: 648: EscreverDWINreg(3,1);
   894  002208  0E00               	movlw	0
   895  00220A  0101               	movlb	1	; () banked
   896  00220C  6F53               	movwf	(EscreverDWINreg@valor+1)& (0+255),b
   897  00220E  0E01               	movlw	1
   898  002210  6F52               	movwf	EscreverDWINreg@valor& (0+255),b
   899  002212  0E03               	movlw	3
   900  002214  EC03  F017         	call	_EscreverDWINreg
   901                           
   902                           ;main.c: 649: Bipar();
   903  002218  EC7F  F018         	call	_Bipar	;wreg free
   904  00221C  D000               	goto	l7163
   905  00221E                     l7163:
   906                           
   907                           ;main.c: 652: __nop();
   908  00221E  F000               	nop	
   909                           
   910                           ;main.c: 653: switch(EstadoPrincipal){
   911  002220  D064               	goto	l7203
   912                           
   913                           ;main.c: 655: switch(LerDWINreg(03)){
   914                           
   915                           ;main.c: 654: case MENUPRINCIPAL:
   916  002222  D013               	goto	l7177
   917  002224                     l7165:
   918  002224  0E01               	movlw	1
   919  002226  0101               	movlb	1	; () banked
   920  002228  6F7E               	movwf	main@EstadoPrincipal& (0+255),b
   921                           
   922                           ; BSR set to: 1
   923  00222A  0E00               	movlw	0
   924  00222C  0101               	movlb	1	; () banked
   925  00222E  6F53               	movwf	(EscreverDWINreg@valor+1)& (0+255),b
   926  002230  0E0C               	movlw	12
   927  002232  6F52               	movwf	EscreverDWINreg@valor& (0+255),b
   928  002234  0E03               	movlw	3
   929  002236  EC03  F017         	call	_EscreverDWINreg
   930                           
   931                           ;main.c: 657: break;
   932  00223A  D7F1               	goto	l7163
   933  00223C                     l7169:
   934  00223C  0E02               	movlw	2
   935  00223E  D028               	goto	L3
   936  002240                     l7171:
   937                           
   938                           ; BSR set to: 1
   939  002240  0E03               	movlw	3
   940  002242  D026               	goto	L3
   941  002244                     l7173:
   942                           
   943                           ; BSR set to: 1
   944  002244  0E04               	movlw	4
   945  002246  D024               	goto	L3
   946                           
   947                           ; BSR set to: 1
   948                           ;main.c: 661: }
   949  002248  D7EA               	goto	l7163
   950  00224A                     l7177:
   951  00224A  0E03               	movlw	3
   952  00224C  EC12  F015         	call	_LerDWINreg
   953                           
   954                           ; Switch on 2 bytes has been partitioned into a top level switch of size 1, and 1 sub-sw
      +                          itches
   955                           ; Switch size 1, requested type "space"
   956                           ; Number of cases is 1, Range of values is 0 to 0
   957                           ; switch strategies available:
   958                           ; Name         Instructions Cycles
   959                           ; simple_byte            4     3 (average)
   960                           ;	Chosen strategy is simple_byte
   961  002250  0101               	movlb	1	; () banked
   962  002252  5153               	movf	(?_LerDWINreg+1)& (0+255),w,b
   963  002254  0A00               	xorlw	0	; case 0
   964  002256  A4D8               	btfss	status,2,c
   965  002258  D7E2               	goto	l7163
   966                           
   967                           ; BSR set to: 1
   968                           ; Switch size 1, requested type "space"
   969                           ; Number of cases is 4, Range of values is 2 to 6
   970                           ; switch strategies available:
   971                           ; Name         Instructions Cycles
   972                           ; simple_byte           13     7 (average)
   973                           ;	Chosen strategy is simple_byte
   974  00225A  0101               	movlb	1	; () banked
   975  00225C  5152               	movf	?_LerDWINreg& (0+255),w,b
   976  00225E  0A02               	xorlw	2	; case 2
   977  002260  B4D8               	btfsc	status,2,c
   978  002262  D7EE               	goto	l7171
   979  002264  0A01               	xorlw	1	; case 3
   980  002266  B4D8               	btfsc	status,2,c
   981  002268  D7ED               	goto	l7173
   982  00226A  0A07               	xorlw	7	; case 4
   983  00226C  B4D8               	btfsc	status,2,c
   984  00226E  D7E6               	goto	l7169
   985  002270  0A02               	xorlw	2	; case 6
   986  002272  B4D8               	btfsc	status,2,c
   987  002274  D7D7               	goto	l7165
   988                           
   989                           ; BSR set to: 1
   990                           ;main.c: 662: break;
   991  002276  D7D3               	goto	l7163
   992  002278                     l7179:
   993                           
   994                           ; BSR set to: 1
   995                           ;main.c: 664: ExecutaBrassagem();
   996  002278  ECAF  F000         	call	_ExecutaBrassagem	;wreg free
   997                           
   998                           ;main.c: 665: if(LerDWINreg(03) == 1)
   999  00227C  0E03               	movlw	3
  1000  00227E  EC12  F015         	call	_LerDWINreg
  1001  002282  0101               	movlb	1	; () banked
  1002  002284  0552               	decf	?_LerDWINreg& (0+255),w,b
  1003  002286  0101               	movlb	1	; () banked
  1004  002288  1153               	iorwf	(?_LerDWINreg+1)& (0+255),w,b
  1005  00228A  A4D8               	btfss	status,2,c
  1006  00228C  D7C8               	goto	l7163
  1007  00228E  D02A               	goto	l7199
  1008  002290                     L3:
  1009  002290  0101               	movlb	1	; () banked
  1010  002292  6F7E               	movwf	main@EstadoPrincipal& (0+255),b
  1011                           
  1012                           ; BSR set to: 1
  1013                           ;main.c: 667: break;
  1014  002294  D7C4               	goto	l7163
  1015  002296                     l7183:
  1016                           
  1017                           ; BSR set to: 1
  1018                           ;main.c: 669: if(LerDWINreg(03) == 1){
  1019  002296  0E03               	movlw	3
  1020  002298  EC12  F015         	call	_LerDWINreg
  1021  00229C  0101               	movlb	1	; () banked
  1022  00229E  0552               	decf	?_LerDWINreg& (0+255),w,b
  1023  0022A0  0101               	movlb	1	; () banked
  1024  0022A2  1153               	iorwf	(?_LerDWINreg+1)& (0+255),w,b
  1025  0022A4  A4D8               	btfss	status,2,c
  1026  0022A6  D7BB               	goto	l7163
  1027                           
  1028                           ; BSR set to: 1
  1029                           ;main.c: 670: LeDadosReceita();
  1030  0022A8  EC50  F00F         	call	_LeDadosReceita	;wreg free
  1031  0022AC  D01B               	goto	l7199
  1032                           
  1033                           ; BSR set to: 1
  1034                           ;main.c: 672: }
  1035                           ;main.c: 673: break;
  1036                           
  1037                           ;main.c: 671: EstadoPrincipal = MENUPRINCIPAL;
  1038  0022AE  D7B7               	goto	l7163
  1039  0022B0                     l7189:
  1040                           
  1041                           ; BSR set to: 1
  1042                           ;main.c: 675: ModoManual();
  1043  0022B0  EC36  F00D         	call	_ModoManual	;wreg free
  1044                           
  1045                           ;main.c: 676: if(LerDWINreg(03) == 1){
  1046  0022B4  0E03               	movlw	3
  1047  0022B6  EC12  F015         	call	_LerDWINreg
  1048  0022BA  0101               	movlb	1	; () banked
  1049  0022BC  0552               	decf	?_LerDWINreg& (0+255),w,b
  1050  0022BE  0101               	movlb	1	; () banked
  1051  0022C0  1153               	iorwf	(?_LerDWINreg+1)& (0+255),w,b
  1052  0022C2  A4D8               	btfss	status,2,c
  1053  0022C4  D7AC               	goto	l7163
  1054                           
  1055                           ; BSR set to: 1
  1056                           ;main.c: 677: ResetaSaidas();
  1057  0022C6  EC37  F012         	call	_ResetaSaidas	;wreg free
  1058  0022CA  D00C               	goto	l7199
  1059                           
  1060                           ; BSR set to: 1
  1061                           ;main.c: 679: }
  1062                           ;main.c: 680: break;
  1063                           
  1064                           ;main.c: 678: EstadoPrincipal = MENUPRINCIPAL;
  1065  0022CC  D7A8               	goto	l7163
  1066  0022CE                     l7195:
  1067                           
  1068                           ; BSR set to: 1
  1069                           ;main.c: 682: if(LerDWINreg(03) == 1){
  1070  0022CE  0E03               	movlw	3
  1071  0022D0  EC12  F015         	call	_LerDWINreg
  1072  0022D4  0101               	movlb	1	; () banked
  1073  0022D6  0552               	decf	?_LerDWINreg& (0+255),w,b
  1074  0022D8  0101               	movlb	1	; () banked
  1075  0022DA  1153               	iorwf	(?_LerDWINreg+1)& (0+255),w,b
  1076  0022DC  A4D8               	btfss	status,2,c
  1077  0022DE  D79F               	goto	l7163
  1078                           
  1079                           ; BSR set to: 1
  1080                           ;main.c: 683: LeParamConfig();
  1081  0022E0  EC57  F013         	call	_LeParamConfig	;wreg free
  1082  0022E4                     l7199:
  1083                           
  1084                           ;main.c: 684: EstadoPrincipal = MENUPRINCIPAL;
  1085  0022E4  0E00               	movlw	0
  1086  0022E6  D7D4               	goto	L3
  1087                           
  1088                           ; BSR set to: 1
  1089                           ;main.c: 687: }
  1090                           
  1091                           ; BSR set to: 1
  1092                           ;main.c: 685: }
  1093                           ;main.c: 686: break;
  1094  0022E8  D79A               	goto	l7163
  1095  0022EA                     l7203:
  1096  0022EA  0101               	movlb	1	; () banked
  1097  0022EC  517E               	movf	main@EstadoPrincipal& (0+255),w,b
  1098                           
  1099                           ; Switch size 1, requested type "space"
  1100                           ; Number of cases is 5, Range of values is 0 to 4
  1101                           ; switch strategies available:
  1102                           ; Name         Instructions Cycles
  1103                           ; simple_byte           16     9 (average)
  1104                           ;	Chosen strategy is simple_byte
  1105  0022EE  0A00               	xorlw	0	; case 0
  1106  0022F0  B4D8               	btfsc	status,2,c
  1107  0022F2  D7AB               	goto	l7177
  1108  0022F4  0A01               	xorlw	1	; case 1
  1109  0022F6  B4D8               	btfsc	status,2,c
  1110  0022F8  D7BF               	goto	l7179
  1111  0022FA  0A03               	xorlw	3	; case 2
  1112  0022FC  B4D8               	btfsc	status,2,c
  1113  0022FE  D7CB               	goto	l7183
  1114  002300  0A01               	xorlw	1	; case 3
  1115  002302  B4D8               	btfsc	status,2,c
  1116  002304  D7D5               	goto	l7189
  1117  002306  0A07               	xorlw	7	; case 4
  1118  002308  B4D8               	btfsc	status,2,c
  1119  00230A  D7E1               	goto	l7195
  1120                           
  1121                           ; BSR set to: 1
  1122                           
  1123                           ; BSR set to: 1
  1124  00230C  D788               	goto	l7163
  1125                           
  1126                           ; BSR set to: 1
  1127                           
  1128                           ; BSR set to: 1
  1129                           ;main.c: 688: }
  1130                           ;main.c: 689: return;
  1131  00230E  EFAD  F000         	goto	start
  1132  002312                     __end_of_main:
  1133                           	opt stack 0
  1134                           tblptru	equ	0xFF8
  1135                           postinc0	equ	0xFEE
  1136                           wreg	equ	0xFE8
  1137                           status	equ	0xFD8
  1138                           
  1139 ;; *************** function _ResetaSaidas *****************
  1140 ;; Defined at:
  1141 ;;		line 588 in file "main.c"
  1142 ;; Parameters:    Size  Location     Type
  1143 ;;		None
  1144 ;; Auto vars:     Size  Location     Type
  1145 ;;		None
  1146 ;; Return value:  Size  Location     Type
  1147 ;;		None               void
  1148 ;; Registers used:
  1149 ;;		wreg, fsr2l, fsr2h, status,2, status,0, prodl, prodh, cstack
  1150 ;; Tracked objects:
  1151 ;;		On entry : 0/0
  1152 ;;		On exit  : 0/0
  1153 ;;		Unchanged: 0/0
  1154 ;; Data sizes:     COMRAM   BANK0   BANK1   BANK2   BANK3   BANK4   BANK5   BANK6   BANK7
  1155 ;;      Params:         0       0       0       0       0       0       0       0       0
  1156 ;;      Locals:         0       0       0       0       0       0       0       0       0
  1157 ;;      Temps:          0       0       0       0       0       0       0       0       0
  1158 ;;      Totals:         0       0       0       0       0       0       0       0       0
  1159 ;;Total ram usage:        0 bytes
  1160 ;; Hardware stack levels used:    1
  1161 ;; Hardware stack levels required when called:    6
  1162 ;; This function calls:
  1163 ;;		_AcionaValvulaMotorizada
  1164 ;;		_EscreverDWINram
  1165 ;; This function is called by:
  1166 ;;		_main
  1167 ;; This function uses a non-reentrant model
  1168 ;;
  1169                           
  1170                           	psect	text1
  1171  00246E                     __ptext1:
  1172                           	opt stack 0
  1173  00246E                     _ResetaSaidas:
  1174                           	opt stack 24
  1175                           
  1176                           ;main.c: 590: PORTDbits.RD0 = 0;
  1177                           
  1178                           ; BSR set to: 1
  1179                           ;incstack = 0
  1180  00246E  9083               	bcf	3971,0,c	;volatile
  1181                           
  1182                           ;main.c: 591: PORTDbits.RD1 = 0;
  1183  002470  9283               	bcf	3971,1,c	;volatile
  1184                           
  1185                           ;main.c: 592: PORTDbits.RD2 = 0;
  1186  002472  9483               	bcf	3971,2,c	;volatile
  1187                           
  1188                           ;main.c: 593: PORTDbits.RD3 = 0;
  1189  002474  9683               	bcf	3971,3,c	;volatile
  1190                           
  1191                           ;main.c: 594: PORTBbits.RB1 = 0;
  1192  002476  9281               	bcf	3969,1,c	;volatile
  1193                           
  1194                           ;main.c: 595: AcionaValvulaMotorizada(0,0b00000010);
  1195  002478  0E02               	movlw	2
  1196  00247A  0101               	movlb	1	; () banked
  1197  00247C  6F54               	movwf	AcionaValvulaMotorizada@valvula& (0+255),b
  1198  00247E  0E00               	movlw	0
  1199  002480  EC6A  F015         	call	_AcionaValvulaMotorizada
  1200                           
  1201                           ;main.c: 596: AcionaValvulaMotorizada(0,0b00000100);
  1202  002484  0E04               	movlw	4
  1203  002486  0101               	movlb	1	; () banked
  1204  002488  6F54               	movwf	AcionaValvulaMotorizada@valvula& (0+255),b
  1205  00248A  0E00               	movlw	0
  1206  00248C  EC6A  F015         	call	_AcionaValvulaMotorizada
  1207                           
  1208                           ;main.c: 597: AcionaValvulaMotorizada(0,0b00001000);
  1209  002490  0E08               	movlw	8
  1210  002492  0101               	movlb	1	; () banked
  1211  002494  6F54               	movwf	AcionaValvulaMotorizada@valvula& (0+255),b
  1212  002496  0E00               	movlw	0
  1213  002498  EC6A  F015         	call	_AcionaValvulaMotorizada
  1214                           
  1215                           ;main.c: 598: AcionaValvulaMotorizada(0,0b00010000);
  1216  00249C  0E10               	movlw	16
  1217  00249E  0101               	movlb	1	; () banked
  1218  0024A0  6F54               	movwf	AcionaValvulaMotorizada@valvula& (0+255),b
  1219  0024A2  0E00               	movlw	0
  1220  0024A4  EC6A  F015         	call	_AcionaValvulaMotorizada
  1221                           
  1222                           ;main.c: 599: AcionaValvulaMotorizada(0,0b00100000);
  1223  0024A8  0E20               	movlw	32
  1224  0024AA  0101               	movlb	1	; () banked
  1225  0024AC  6F54               	movwf	AcionaValvulaMotorizada@valvula& (0+255),b
  1226  0024AE  0E00               	movlw	0
  1227  0024B0  EC6A  F015         	call	_AcionaValvulaMotorizada
  1228                           
  1229                           ;main.c: 600: AcionaValvulaMotorizada(0,0b01000000);
  1230  0024B4  0E40               	movlw	64
  1231  0024B6  0101               	movlb	1	; () banked
  1232  0024B8  6F54               	movwf	AcionaValvulaMotorizada@valvula& (0+255),b
  1233  0024BA  0E00               	movlw	0
  1234  0024BC  EC6A  F015         	call	_AcionaValvulaMotorizada
  1235                           
  1236                           ;main.c: 601: EscreverDWINram(0x41,0);
  1237  0024C0  0E00               	movlw	0
  1238  0024C2  0101               	movlb	1	; () banked
  1239  0024C4  6F60               	movwf	(EscreverDWINram@endereco+1)& (0+255),b
  1240  0024C6  0E41               	movlw	65
  1241  0024C8  6F5F               	movwf	EscreverDWINram@endereco& (0+255),b
  1242  0024CA  0E00               	movlw	0
  1243  0024CC  0101               	movlb	1	; () banked
  1244  0024CE  6F62               	movwf	(EscreverDWINram@valor+1)& (0+255),b
  1245  0024D0  0E00               	movlw	0
  1246  0024D2  6F61               	movwf	EscreverDWINram@valor& (0+255),b
  1247  0024D4  ECCD  F016         	call	_EscreverDWINram	;wreg free
  1248                           
  1249                           ;main.c: 602: StatusY2 = 0;
  1250  0024D8  9045               	bcf	_StatusY2/(0+8),_StatusY2& (0+7),c
  1251                           
  1252                           ;main.c: 603: EscreverDWINram(0x42,0);
  1253  0024DA  0E00               	movlw	0
  1254  0024DC  0101               	movlb	1	; () banked
  1255  0024DE  6F60               	movwf	(EscreverDWINram@endereco+1)& (0+255),b
  1256  0024E0  0E42               	movlw	66
  1257  0024E2  6F5F               	movwf	EscreverDWINram@endereco& (0+255),b
  1258  0024E4  0E00               	movlw	0
  1259  0024E6  0101               	movlb	1	; () banked
  1260  0024E8  6F62               	movwf	(EscreverDWINram@valor+1)& (0+255),b
  1261  0024EA  0E00               	movlw	0
  1262  0024EC  6F61               	movwf	EscreverDWINram@valor& (0+255),b
  1263  0024EE  ECCD  F016         	call	_EscreverDWINram	;wreg free
  1264                           
  1265                           ;main.c: 604: StatusY3 = 0;
  1266  0024F2  9245               	bcf	_StatusY3/(0+8),_StatusY3& (0+7),c
  1267                           
  1268                           ;main.c: 605: EscreverDWINram(0x43,0);
  1269  0024F4  0E00               	movlw	0
  1270  0024F6  0101               	movlb	1	; () banked
  1271  0024F8  6F60               	movwf	(EscreverDWINram@endereco+1)& (0+255),b
  1272  0024FA  0E43               	movlw	67
  1273  0024FC  6F5F               	movwf	EscreverDWINram@endereco& (0+255),b
  1274  0024FE  0E00               	movlw	0
  1275  002500  0101               	movlb	1	; () banked
  1276  002502  6F62               	movwf	(EscreverDWINram@valor+1)& (0+255),b
  1277  002504  0E00               	movlw	0
  1278  002506  6F61               	movwf	EscreverDWINram@valor& (0+255),b
  1279  002508  ECCD  F016         	call	_EscreverDWINram	;wreg free
  1280                           
  1281                           ;main.c: 606: StatusY4 = 0;
  1282  00250C  9445               	bcf	_StatusY4/(0+8),_StatusY4& (0+7),c
  1283                           
  1284                           ;main.c: 607: EscreverDWINram(0x44,0);
  1285  00250E  0E00               	movlw	0
  1286  002510  0101               	movlb	1	; () banked
  1287  002512  6F60               	movwf	(EscreverDWINram@endereco+1)& (0+255),b
  1288  002514  0E44               	movlw	68
  1289  002516  6F5F               	movwf	EscreverDWINram@endereco& (0+255),b
  1290  002518  0E00               	movlw	0
  1291  00251A  0101               	movlb	1	; () banked
  1292  00251C  6F62               	movwf	(EscreverDWINram@valor+1)& (0+255),b
  1293  00251E  0E00               	movlw	0
  1294  002520  6F61               	movwf	EscreverDWINram@valor& (0+255),b
  1295  002522  ECCD  F016         	call	_EscreverDWINram	;wreg free
  1296                           
  1297                           ;main.c: 608: StatusY5 = 0;
  1298  002526  9645               	bcf	_StatusY5/(0+8),_StatusY5& (0+7),c
  1299                           
  1300                           ;main.c: 609: EscreverDWINram(0x45,0);
  1301  002528  0E00               	movlw	0
  1302  00252A  0101               	movlb	1	; () banked
  1303  00252C  6F60               	movwf	(EscreverDWINram@endereco+1)& (0+255),b
  1304  00252E  0E45               	movlw	69
  1305  002530  6F5F               	movwf	EscreverDWINram@endereco& (0+255),b
  1306  002532  0E00               	movlw	0
  1307  002534  0101               	movlb	1	; () banked
  1308  002536  6F62               	movwf	(EscreverDWINram@valor+1)& (0+255),b
  1309  002538  0E00               	movlw	0
  1310  00253A  6F61               	movwf	EscreverDWINram@valor& (0+255),b
  1311  00253C  ECCD  F016         	call	_EscreverDWINram	;wreg free
  1312                           
  1313                           ;main.c: 610: StatusY6 = 0;
  1314  002540  9845               	bcf	_StatusY6/(0+8),_StatusY6& (0+7),c
  1315                           
  1316                           ;main.c: 611: EscreverDWINram(0x46,0);
  1317  002542  0E00               	movlw	0
  1318  002544  0101               	movlb	1	; () banked
  1319  002546  6F60               	movwf	(EscreverDWINram@endereco+1)& (0+255),b
  1320  002548  0E46               	movlw	70
  1321  00254A  6F5F               	movwf	EscreverDWINram@endereco& (0+255),b
  1322  00254C  0E00               	movlw	0
  1323  00254E  0101               	movlb	1	; () banked
  1324  002550  6F62               	movwf	(EscreverDWINram@valor+1)& (0+255),b
  1325  002552  0E00               	movlw	0
  1326  002554  6F61               	movwf	EscreverDWINram@valor& (0+255),b
  1327  002556  ECCD  F016         	call	_EscreverDWINram	;wreg free
  1328                           
  1329                           ;main.c: 612: StatusY7 = 0;
  1330  00255A  9A45               	bcf	_StatusY7/(0+8),_StatusY7& (0+7),c
  1331                           
  1332                           ;main.c: 613: EscreverDWINram(0x47,0);
  1333  00255C  0E00               	movlw	0
  1334  00255E  0101               	movlb	1	; () banked
  1335  002560  6F60               	movwf	(EscreverDWINram@endereco+1)& (0+255),b
  1336  002562  0E47               	movlw	71
  1337  002564  6F5F               	movwf	EscreverDWINram@endereco& (0+255),b
  1338  002566  0E00               	movlw	0
  1339  002568  0101               	movlb	1	; () banked
  1340  00256A  6F62               	movwf	(EscreverDWINram@valor+1)& (0+255),b
  1341  00256C  0E00               	movlw	0
  1342  00256E  6F61               	movwf	EscreverDWINram@valor& (0+255),b
  1343  002570  ECCD  F016         	call	_EscreverDWINram	;wreg free
  1344                           
  1345                           ;main.c: 614: EscreverDWINram(0x48,0);
  1346  002574  0E00               	movlw	0
  1347  002576  0101               	movlb	1	; () banked
  1348  002578  6F60               	movwf	(EscreverDWINram@endereco+1)& (0+255),b
  1349  00257A  0E48               	movlw	72
  1350  00257C  6F5F               	movwf	EscreverDWINram@endereco& (0+255),b
  1351  00257E  0E00               	movlw	0
  1352  002580  0101               	movlb	1	; () banked
  1353  002582  6F62               	movwf	(EscreverDWINram@valor+1)& (0+255),b
  1354  002584  0E00               	movlw	0
  1355  002586  6F61               	movwf	EscreverDWINram@valor& (0+255),b
  1356  002588  ECCD  F016         	call	_EscreverDWINram	;wreg free
  1357  00258C  0012               	return		;funcret
  1358  00258E                     __end_of_ResetaSaidas:
  1359                           	opt stack 0
  1360                           tblptru	equ	0xFF8
  1361                           postinc0	equ	0xFEE
  1362                           wreg	equ	0xFE8
  1363                           status	equ	0xFD8
  1364                           
  1365 ;; *************** function _ModoManual *****************
  1366 ;; Defined at:
  1367 ;;		line 40 in file "manual.c"
  1368 ;; Parameters:    Size  Location     Type
  1369 ;;		None
  1370 ;; Auto vars:     Size  Location     Type
  1371 ;;  temp            2   22[BANK1 ] unsigned int 
  1372 ;; Return value:  Size  Location     Type
  1373 ;;                  2  116[None  ] int 
  1374 ;; Registers used:
  1375 ;;		wreg, fsr2l, fsr2h, status,2, status,0, prodl, prodh, cstack
  1376 ;; Tracked objects:
  1377 ;;		On entry : 0/0
  1378 ;;		On exit  : 0/0
  1379 ;;		Unchanged: 0/0
  1380 ;; Data sizes:     COMRAM   BANK0   BANK1   BANK2   BANK3   BANK4   BANK5   BANK6   BANK7
  1381 ;;      Params:         0       0       0       0       0       0       0       0       0
  1382 ;;      Locals:         0       0       2       0       0       0       0       0       0
  1383 ;;      Temps:          0       0       2       0       0       0       0       0       0
  1384 ;;      Totals:         0       0       4       0       0       0       0       0       0
  1385 ;;Total ram usage:        4 bytes
  1386 ;; Hardware stack levels used:    1
  1387 ;; Hardware stack levels required when called:    6
  1388 ;; This function calls:
  1389 ;;		_AcionaValvulaMotorizada
  1390 ;;		_DelaySeg
  1391 ;;		_EscreverDWINram
  1392 ;;		_LerDWINram
  1393 ;;		___lwdiv
  1394 ;;		___wmul
  1395 ;; This function is called by:
  1396 ;;		_main
  1397 ;; This function uses a non-reentrant model
  1398 ;;
  1399                           
  1400                           	psect	text2
  1401  001A6C                     __ptext2:
  1402                           	opt stack 0
  1403  001A6C                     _ModoManual:
  1404                           	opt stack 24
  1405                           
  1406                           ;manual.c: 42: unsigned int temp;
  1407                           ;manual.c: 44: CanalADAtivo = 99;
  1408                           
  1409                           ;incstack = 0
  1410  001A6C  0E63               	movlw	99
  1411  001A6E  0100               	movlb	0	; () banked
  1412  001A70  6FE3               	movwf	_CanalADAtivo& (0+255),b
  1413                           
  1414                           ; BSR set to: 0
  1415                           ;manual.c: 47: EscreverDWINram(0x32,ValoresAD[0]);
  1416  001A72  0E00               	movlw	0
  1417  001A74  0101               	movlb	1	; () banked
  1418  001A76  6F60               	movwf	(EscreverDWINram@endereco+1)& (0+255),b
  1419  001A78  0E32               	movlw	50
  1420  001A7A  6F5F               	movwf	EscreverDWINram@endereco& (0+255),b
  1421  001A7C  C001  F161         	movff	_ValoresAD,EscreverDWINram@valor
  1422  001A80  C002  F162         	movff	_ValoresAD+1,EscreverDWINram@valor+1
  1423  001A84  ECCD  F016         	call	_EscreverDWINram	;wreg free
  1424                           
  1425                           ;manual.c: 48: EscreverDWINram(0x37,ValoresAD[1]);
  1426  001A88  0E00               	movlw	0
  1427  001A8A  0101               	movlb	1	; () banked
  1428  001A8C  6F60               	movwf	(EscreverDWINram@endereco+1)& (0+255),b
  1429  001A8E  0E37               	movlw	55
  1430  001A90  6F5F               	movwf	EscreverDWINram@endereco& (0+255),b
  1431  001A92  C003  F161         	movff	_ValoresAD+2,EscreverDWINram@valor
  1432  001A96  C004  F162         	movff	_ValoresAD+3,EscreverDWINram@valor+1
  1433  001A9A  ECCD  F016         	call	_EscreverDWINram	;wreg free
  1434                           
  1435                           ;manual.c: 49: EscreverDWINram(0x38,ValoresAD[2]);
  1436  001A9E  0E00               	movlw	0
  1437  001AA0  0101               	movlb	1	; () banked
  1438  001AA2  6F60               	movwf	(EscreverDWINram@endereco+1)& (0+255),b
  1439  001AA4  0E38               	movlw	56
  1440  001AA6  6F5F               	movwf	EscreverDWINram@endereco& (0+255),b
  1441  001AA8  C005  F161         	movff	_ValoresAD+4,EscreverDWINram@valor
  1442  001AAC  C006  F162         	movff	_ValoresAD+5,EscreverDWINram@valor+1
  1443  001AB0  ECCD  F016         	call	_EscreverDWINram	;wreg free
  1444                           
  1445                           ;manual.c: 51: temp = LerDWINram(0x39) * 255;
  1446  001AB4  0E00               	movlw	0
  1447  001AB6  0101               	movlb	1	; () banked
  1448  001AB8  6F53               	movwf	(LerDWINram@endereco+1)& (0+255),b
  1449  001ABA  0E39               	movlw	57
  1450  001ABC  6F52               	movwf	LerDWINram@endereco& (0+255),b
  1451  001ABE  ECB4  F014         	call	_LerDWINram	;wreg free
  1452  001AC2  C152  F157         	movff	?_LerDWINram,___wmul@multiplier
  1453  001AC6  C153  F158         	movff	?_LerDWINram+1,___wmul@multiplier+1
  1454  001ACA  0E00               	movlw	0
  1455  001ACC  0101               	movlb	1	; () banked
  1456  001ACE  6F5A               	movwf	(___wmul@multiplicand+1)& (0+255),b
  1457  001AD0  6959               	setf	___wmul@multiplicand& (0+255),b
  1458  001AD2  ECF2  F017         	call	___wmul	;wreg free
  1459  001AD6  C157  F166         	movff	?___wmul,ModoManual@temp
  1460  001ADA  C158  F167         	movff	?___wmul+1,ModoManual@temp+1
  1461                           
  1462                           ;manual.c: 52: CCPR2L = temp / 100;
  1463  001ADE  C166  F150         	movff	ModoManual@temp,___lwdiv@dividend
  1464  001AE2  C167  F151         	movff	ModoManual@temp+1,___lwdiv@dividend+1
  1465  001AE6  0E00               	movlw	0
  1466  001AE8  0101               	movlb	1	; () banked
  1467  001AEA  6F53               	movwf	(___lwdiv@divisor+1)& (0+255),b
  1468  001AEC  0E64               	movlw	100
  1469  001AEE  6F52               	movwf	___lwdiv@divisor& (0+255),b
  1470  001AF0  EC0B  F016         	call	___lwdiv	;wreg free
  1471  001AF4  0101               	movlb	1	; () banked
  1472  001AF6  5150               	movf	?___lwdiv& (0+255),w,b
  1473  001AF8  6EBB               	movwf	4027,c	;volatile
  1474                           
  1475                           ; BSR set to: 1
  1476                           ;manual.c: 54: TempUInt = LerDWINram(0x40);
  1477  001AFA  0E00               	movlw	0
  1478  001AFC  0101               	movlb	1	; () banked
  1479  001AFE  6F53               	movwf	(LerDWINram@endereco+1)& (0+255),b
  1480  001B00  0E40               	movlw	64
  1481  001B02  6F52               	movwf	LerDWINram@endereco& (0+255),b
  1482  001B04  ECB4  F014         	call	_LerDWINram	;wreg free
  1483  001B08  C152  F08F         	movff	?_LerDWINram,_TempUInt
  1484  001B0C  C153  F090         	movff	?_LerDWINram+1,_TempUInt+1
  1485                           
  1486                           ;manual.c: 55: if(TempUInt != 0){
  1487  001B10  0100               	movlb	0	; () banked
  1488  001B12  518F               	movf	_TempUInt& (0+255),w,b
  1489  001B14  0100               	movlb	0	; () banked
  1490  001B16  1190               	iorwf	(_TempUInt+1)& (0+255),w,b
  1491  001B18  A4D8               	btfss	status,2,c
  1492  001B1A  D11A               	goto	l6803
  1493  001B1C  D14D               	goto	l6809
  1494                           
  1495                           ; BSR set to: 0
  1496                           ;manual.c: 56: switch(TempUInt){
  1497  001B1E  D118               	goto	l6803
  1498  001B20                     l729:
  1499                           
  1500                           ; BSR set to: 1
  1501                           ;manual.c: 59: PORTDbits.RD0 = !PORTDbits.RD0;
  1502  001B20  7083               	btg	3971,0,c	;volatile
  1503                           
  1504                           ;manual.c: 60: if(PORTDbits.RD0)
  1505  001B22  A083               	btfss	3971,0,c	;volatile
  1506  001B24  D00D               	goto	l6747
  1507                           
  1508                           ; BSR set to: 1
  1509                           ;manual.c: 61: EscreverDWINram(0x41,1);
  1510  001B26  0E00               	movlw	0
  1511  001B28  0101               	movlb	1	; () banked
  1512  001B2A  6F60               	movwf	(EscreverDWINram@endereco+1)& (0+255),b
  1513  001B2C  0E41               	movlw	65
  1514  001B2E  6F5F               	movwf	EscreverDWINram@endereco& (0+255),b
  1515  001B30  0E00               	movlw	0
  1516  001B32  0101               	movlb	1	; () banked
  1517  001B34  6F62               	movwf	(EscreverDWINram@valor+1)& (0+255),b
  1518  001B36  0E01               	movlw	1
  1519  001B38  6F61               	movwf	EscreverDWINram@valor& (0+255),b
  1520  001B3A  ECCD  F016         	call	_EscreverDWINram	;wreg free
  1521  001B3E  D12B               	goto	l732
  1522  001B40                     l6747:
  1523                           
  1524                           ;manual.c: 62: else
  1525                           ;manual.c: 63: EscreverDWINram(0x41,0);
  1526  001B40  0E00               	movlw	0
  1527  001B42  0101               	movlb	1	; () banked
  1528  001B44  6F60               	movwf	(EscreverDWINram@endereco+1)& (0+255),b
  1529  001B46  0E41               	movlw	65
  1530  001B48  6F5F               	movwf	EscreverDWINram@endereco& (0+255),b
  1531  001B4A  0E00               	movlw	0
  1532  001B4C  0101               	movlb	1	; () banked
  1533  001B4E  6F62               	movwf	(EscreverDWINram@valor+1)& (0+255),b
  1534  001B50  0E00               	movlw	0
  1535  001B52  6F61               	movwf	EscreverDWINram@valor& (0+255),b
  1536  001B54  ECCD  F016         	call	_EscreverDWINram	;wreg free
  1537                           
  1538                           ;manual.c: 64: break;
  1539  001B58  D11E               	goto	l732
  1540  001B5A                     l733:
  1541                           
  1542                           ; BSR set to: 1
  1543                           ;manual.c: 67: StatusY2 = !StatusY2;
  1544  001B5A  7045               	btg	_StatusY2/(0+8),_StatusY2& (0+7),c
  1545                           
  1546                           ; BSR set to: 1
  1547                           ;manual.c: 68: AcionaValvulaMotorizada(StatusY2,0b00000010);
  1548  001B5C  0E02               	movlw	2
  1549  001B5E  0101               	movlb	1	; () banked
  1550  001B60  6F54               	movwf	AcionaValvulaMotorizada@valvula& (0+255),b
  1551  001B62  0E00               	movlw	0
  1552  001B64  B045               	btfsc	_StatusY2/(0+8),_StatusY2& (0+7),c
  1553  001B66  0E01               	movlw	1
  1554  001B68  EC6A  F015         	call	_AcionaValvulaMotorizada
  1555                           
  1556                           ;manual.c: 69: if(StatusY2)
  1557  001B6C  A045               	btfss	_StatusY2/(0+8),_StatusY2& (0+7),c
  1558  001B6E  D00D               	goto	l6755
  1559                           
  1560                           ;manual.c: 70: EscreverDWINram(0x42,1);
  1561  001B70  0E00               	movlw	0
  1562  001B72  0101               	movlb	1	; () banked
  1563  001B74  6F60               	movwf	(EscreverDWINram@endereco+1)& (0+255),b
  1564  001B76  0E42               	movlw	66
  1565  001B78  6F5F               	movwf	EscreverDWINram@endereco& (0+255),b
  1566  001B7A  0E00               	movlw	0
  1567  001B7C  0101               	movlb	1	; () banked
  1568  001B7E  6F62               	movwf	(EscreverDWINram@valor+1)& (0+255),b
  1569  001B80  0E01               	movlw	1
  1570  001B82  6F61               	movwf	EscreverDWINram@valor& (0+255),b
  1571  001B84  ECCD  F016         	call	_EscreverDWINram	;wreg free
  1572  001B88  D106               	goto	l732
  1573  001B8A                     l6755:
  1574                           
  1575                           ;manual.c: 71: else
  1576                           ;manual.c: 72: EscreverDWINram(0x42,0);
  1577  001B8A  0E00               	movlw	0
  1578  001B8C  0101               	movlb	1	; () banked
  1579  001B8E  6F60               	movwf	(EscreverDWINram@endereco+1)& (0+255),b
  1580  001B90  0E42               	movlw	66
  1581  001B92  6F5F               	movwf	EscreverDWINram@endereco& (0+255),b
  1582  001B94  0E00               	movlw	0
  1583  001B96  0101               	movlb	1	; () banked
  1584  001B98  6F62               	movwf	(EscreverDWINram@valor+1)& (0+255),b
  1585  001B9A  0E00               	movlw	0
  1586  001B9C  6F61               	movwf	EscreverDWINram@valor& (0+255),b
  1587  001B9E  ECCD  F016         	call	_EscreverDWINram	;wreg free
  1588                           
  1589                           ;manual.c: 73: break;
  1590  001BA2  D0F9               	goto	l732
  1591  001BA4                     l736:
  1592                           
  1593                           ; BSR set to: 1
  1594                           ;manual.c: 76: StatusY3 = !StatusY3;
  1595  001BA4  7245               	btg	_StatusY3/(0+8),_StatusY3& (0+7),c
  1596                           
  1597                           ; BSR set to: 1
  1598                           ;manual.c: 77: AcionaValvulaMotorizada(StatusY3,0b00000100);
  1599  001BA6  0E04               	movlw	4
  1600  001BA8  0101               	movlb	1	; () banked
  1601  001BAA  6F54               	movwf	AcionaValvulaMotorizada@valvula& (0+255),b
  1602  001BAC  0E00               	movlw	0
  1603  001BAE  B245               	btfsc	_StatusY3/(0+8),_StatusY3& (0+7),c
  1604  001BB0  0E01               	movlw	1
  1605  001BB2  EC6A  F015         	call	_AcionaValvulaMotorizada
  1606                           
  1607                           ;manual.c: 78: if(StatusY3)
  1608  001BB6  A245               	btfss	_StatusY3/(0+8),_StatusY3& (0+7),c
  1609  001BB8  D00D               	goto	l6763
  1610                           
  1611                           ;manual.c: 79: EscreverDWINram(0x43,1);
  1612  001BBA  0E00               	movlw	0
  1613  001BBC  0101               	movlb	1	; () banked
  1614  001BBE  6F60               	movwf	(EscreverDWINram@endereco+1)& (0+255),b
  1615  001BC0  0E43               	movlw	67
  1616  001BC2  6F5F               	movwf	EscreverDWINram@endereco& (0+255),b
  1617  001BC4  0E00               	movlw	0
  1618  001BC6  0101               	movlb	1	; () banked
  1619  001BC8  6F62               	movwf	(EscreverDWINram@valor+1)& (0+255),b
  1620  001BCA  0E01               	movlw	1
  1621  001BCC  6F61               	movwf	EscreverDWINram@valor& (0+255),b
  1622  001BCE  ECCD  F016         	call	_EscreverDWINram	;wreg free
  1623  001BD2  D0E1               	goto	l732
  1624  001BD4                     l6763:
  1625                           
  1626                           ;manual.c: 80: else
  1627                           ;manual.c: 81: EscreverDWINram(0x43,0);
  1628  001BD4  0E00               	movlw	0
  1629  001BD6  0101               	movlb	1	; () banked
  1630  001BD8  6F60               	movwf	(EscreverDWINram@endereco+1)& (0+255),b
  1631  001BDA  0E43               	movlw	67
  1632  001BDC  6F5F               	movwf	EscreverDWINram@endereco& (0+255),b
  1633  001BDE  0E00               	movlw	0
  1634  001BE0  0101               	movlb	1	; () banked
  1635  001BE2  6F62               	movwf	(EscreverDWINram@valor+1)& (0+255),b
  1636  001BE4  0E00               	movlw	0
  1637  001BE6  6F61               	movwf	EscreverDWINram@valor& (0+255),b
  1638  001BE8  ECCD  F016         	call	_EscreverDWINram	;wreg free
  1639                           
  1640                           ;manual.c: 82: break;
  1641  001BEC  D0D4               	goto	l732
  1642  001BEE                     l739:
  1643                           
  1644                           ; BSR set to: 1
  1645                           ;manual.c: 85: StatusY4 = !StatusY4;
  1646  001BEE  7445               	btg	_StatusY4/(0+8),_StatusY4& (0+7),c
  1647                           
  1648                           ; BSR set to: 1
  1649                           ;manual.c: 86: AcionaValvulaMotorizada(StatusY4,0b00001000);
  1650  001BF0  0E08               	movlw	8
  1651  001BF2  0101               	movlb	1	; () banked
  1652  001BF4  6F54               	movwf	AcionaValvulaMotorizada@valvula& (0+255),b
  1653  001BF6  0E00               	movlw	0
  1654  001BF8  B445               	btfsc	_StatusY4/(0+8),_StatusY4& (0+7),c
  1655  001BFA  0E01               	movlw	1
  1656  001BFC  EC6A  F015         	call	_AcionaValvulaMotorizada
  1657                           
  1658                           ;manual.c: 87: if(StatusY4)
  1659  001C00  A445               	btfss	_StatusY4/(0+8),_StatusY4& (0+7),c
  1660  001C02  D00D               	goto	l6771
  1661                           
  1662                           ;manual.c: 88: EscreverDWINram(0x44,1);
  1663  001C04  0E00               	movlw	0
  1664  001C06  0101               	movlb	1	; () banked
  1665  001C08  6F60               	movwf	(EscreverDWINram@endereco+1)& (0+255),b
  1666  001C0A  0E44               	movlw	68
  1667  001C0C  6F5F               	movwf	EscreverDWINram@endereco& (0+255),b
  1668  001C0E  0E00               	movlw	0
  1669  001C10  0101               	movlb	1	; () banked
  1670  001C12  6F62               	movwf	(EscreverDWINram@valor+1)& (0+255),b
  1671  001C14  0E01               	movlw	1
  1672  001C16  6F61               	movwf	EscreverDWINram@valor& (0+255),b
  1673  001C18  ECCD  F016         	call	_EscreverDWINram	;wreg free
  1674  001C1C  D0BC               	goto	l732
  1675  001C1E                     l6771:
  1676                           
  1677                           ;manual.c: 89: else
  1678                           ;manual.c: 90: EscreverDWINram(0x44,0);
  1679  001C1E  0E00               	movlw	0
  1680  001C20  0101               	movlb	1	; () banked
  1681  001C22  6F60               	movwf	(EscreverDWINram@endereco+1)& (0+255),b
  1682  001C24  0E44               	movlw	68
  1683  001C26  6F5F               	movwf	EscreverDWINram@endereco& (0+255),b
  1684  001C28  0E00               	movlw	0
  1685  001C2A  0101               	movlb	1	; () banked
  1686  001C2C  6F62               	movwf	(EscreverDWINram@valor+1)& (0+255),b
  1687  001C2E  0E00               	movlw	0
  1688  001C30  6F61               	movwf	EscreverDWINram@valor& (0+255),b
  1689  001C32  ECCD  F016         	call	_EscreverDWINram	;wreg free
  1690                           
  1691                           ;manual.c: 91: break;
  1692  001C36  D0AF               	goto	l732
  1693  001C38                     l742:
  1694                           
  1695                           ; BSR set to: 1
  1696                           ;manual.c: 94: StatusY5 = !StatusY5;
  1697  001C38  7645               	btg	_StatusY5/(0+8),_StatusY5& (0+7),c
  1698                           
  1699                           ; BSR set to: 1
  1700                           ;manual.c: 95: AcionaValvulaMotorizada(StatusY5,0b00010000);
  1701  001C3A  0E10               	movlw	16
  1702  001C3C  0101               	movlb	1	; () banked
  1703  001C3E  6F54               	movwf	AcionaValvulaMotorizada@valvula& (0+255),b
  1704  001C40  0E00               	movlw	0
  1705  001C42  B645               	btfsc	_StatusY5/(0+8),_StatusY5& (0+7),c
  1706  001C44  0E01               	movlw	1
  1707  001C46  EC6A  F015         	call	_AcionaValvulaMotorizada
  1708                           
  1709                           ;manual.c: 96: if(StatusY5)
  1710  001C4A  A645               	btfss	_StatusY5/(0+8),_StatusY5& (0+7),c
  1711  001C4C  D00D               	goto	l6779
  1712                           
  1713                           ;manual.c: 97: EscreverDWINram(0x45,1);
  1714  001C4E  0E00               	movlw	0
  1715  001C50  0101               	movlb	1	; () banked
  1716  001C52  6F60               	movwf	(EscreverDWINram@endereco+1)& (0+255),b
  1717  001C54  0E45               	movlw	69
  1718  001C56  6F5F               	movwf	EscreverDWINram@endereco& (0+255),b
  1719  001C58  0E00               	movlw	0
  1720  001C5A  0101               	movlb	1	; () banked
  1721  001C5C  6F62               	movwf	(EscreverDWINram@valor+1)& (0+255),b
  1722  001C5E  0E01               	movlw	1
  1723  001C60  6F61               	movwf	EscreverDWINram@valor& (0+255),b
  1724  001C62  ECCD  F016         	call	_EscreverDWINram	;wreg free
  1725  001C66  D097               	goto	l732
  1726  001C68                     l6779:
  1727                           
  1728                           ;manual.c: 98: else
  1729                           ;manual.c: 99: EscreverDWINram(0x45,0);
  1730  001C68  0E00               	movlw	0
  1731  001C6A  0101               	movlb	1	; () banked
  1732  001C6C  6F60               	movwf	(EscreverDWINram@endereco+1)& (0+255),b
  1733  001C6E  0E45               	movlw	69
  1734  001C70  6F5F               	movwf	EscreverDWINram@endereco& (0+255),b
  1735  001C72  0E00               	movlw	0
  1736  001C74  0101               	movlb	1	; () banked
  1737  001C76  6F62               	movwf	(EscreverDWINram@valor+1)& (0+255),b
  1738  001C78  0E00               	movlw	0
  1739  001C7A  6F61               	movwf	EscreverDWINram@valor& (0+255),b
  1740  001C7C  ECCD  F016         	call	_EscreverDWINram	;wreg free
  1741                           
  1742                           ;manual.c: 100: break;
  1743  001C80  D08A               	goto	l732
  1744  001C82                     l745:
  1745                           
  1746                           ; BSR set to: 1
  1747                           ;manual.c: 103: StatusY6 = !StatusY6;
  1748  001C82  7845               	btg	_StatusY6/(0+8),_StatusY6& (0+7),c
  1749                           
  1750                           ; BSR set to: 1
  1751                           ;manual.c: 104: AcionaValvulaMotorizada(StatusY6,0b00100000);
  1752  001C84  0E20               	movlw	32
  1753  001C86  0101               	movlb	1	; () banked
  1754  001C88  6F54               	movwf	AcionaValvulaMotorizada@valvula& (0+255),b
  1755  001C8A  0E00               	movlw	0
  1756  001C8C  B845               	btfsc	_StatusY6/(0+8),_StatusY6& (0+7),c
  1757  001C8E  0E01               	movlw	1
  1758  001C90  EC6A  F015         	call	_AcionaValvulaMotorizada
  1759                           
  1760                           ;manual.c: 105: if(StatusY6)
  1761  001C94  A845               	btfss	_StatusY6/(0+8),_StatusY6& (0+7),c
  1762  001C96  D00D               	goto	l6787
  1763                           
  1764                           ;manual.c: 106: EscreverDWINram(0x46,1);
  1765  001C98  0E00               	movlw	0
  1766  001C9A  0101               	movlb	1	; () banked
  1767  001C9C  6F60               	movwf	(EscreverDWINram@endereco+1)& (0+255),b
  1768  001C9E  0E46               	movlw	70
  1769  001CA0  6F5F               	movwf	EscreverDWINram@endereco& (0+255),b
  1770  001CA2  0E00               	movlw	0
  1771  001CA4  0101               	movlb	1	; () banked
  1772  001CA6  6F62               	movwf	(EscreverDWINram@valor+1)& (0+255),b
  1773  001CA8  0E01               	movlw	1
  1774  001CAA  6F61               	movwf	EscreverDWINram@valor& (0+255),b
  1775  001CAC  ECCD  F016         	call	_EscreverDWINram	;wreg free
  1776  001CB0  D072               	goto	l732
  1777  001CB2                     l6787:
  1778                           
  1779                           ;manual.c: 107: else
  1780                           ;manual.c: 108: EscreverDWINram(0x46,0);
  1781  001CB2  0E00               	movlw	0
  1782  001CB4  0101               	movlb	1	; () banked
  1783  001CB6  6F60               	movwf	(EscreverDWINram@endereco+1)& (0+255),b
  1784  001CB8  0E46               	movlw	70
  1785  001CBA  6F5F               	movwf	EscreverDWINram@endereco& (0+255),b
  1786  001CBC  0E00               	movlw	0
  1787  001CBE  0101               	movlb	1	; () banked
  1788  001CC0  6F62               	movwf	(EscreverDWINram@valor+1)& (0+255),b
  1789  001CC2  0E00               	movlw	0
  1790  001CC4  6F61               	movwf	EscreverDWINram@valor& (0+255),b
  1791  001CC6  ECCD  F016         	call	_EscreverDWINram	;wreg free
  1792                           
  1793                           ;manual.c: 109: break;
  1794  001CCA  D065               	goto	l732
  1795  001CCC                     l748:
  1796                           
  1797                           ; BSR set to: 1
  1798                           ;manual.c: 112: StatusY7 = !StatusY7;
  1799  001CCC  7A45               	btg	_StatusY7/(0+8),_StatusY7& (0+7),c
  1800                           
  1801                           ; BSR set to: 1
  1802                           ;manual.c: 113: AcionaValvulaMotorizada(StatusY7,0b01000000);
  1803  001CCE  0E40               	movlw	64
  1804  001CD0  0101               	movlb	1	; () banked
  1805  001CD2  6F54               	movwf	AcionaValvulaMotorizada@valvula& (0+255),b
  1806  001CD4  0E00               	movlw	0
  1807  001CD6  BA45               	btfsc	_StatusY7/(0+8),_StatusY7& (0+7),c
  1808  001CD8  0E01               	movlw	1
  1809  001CDA  EC6A  F015         	call	_AcionaValvulaMotorizada
  1810                           
  1811                           ;manual.c: 114: if(StatusY7)
  1812  001CDE  AA45               	btfss	_StatusY7/(0+8),_StatusY7& (0+7),c
  1813  001CE0  D00D               	goto	l6795
  1814                           
  1815                           ;manual.c: 115: EscreverDWINram(0x47,1);
  1816  001CE2  0E00               	movlw	0
  1817  001CE4  0101               	movlb	1	; () banked
  1818  001CE6  6F60               	movwf	(EscreverDWINram@endereco+1)& (0+255),b
  1819  001CE8  0E47               	movlw	71
  1820  001CEA  6F5F               	movwf	EscreverDWINram@endereco& (0+255),b
  1821  001CEC  0E00               	movlw	0
  1822  001CEE  0101               	movlb	1	; () banked
  1823  001CF0  6F62               	movwf	(EscreverDWINram@valor+1)& (0+255),b
  1824  001CF2  0E01               	movlw	1
  1825  001CF4  6F61               	movwf	EscreverDWINram@valor& (0+255),b
  1826  001CF6  ECCD  F016         	call	_EscreverDWINram	;wreg free
  1827  001CFA  D04D               	goto	l732
  1828  001CFC                     l6795:
  1829                           
  1830                           ;manual.c: 116: else
  1831                           ;manual.c: 117: EscreverDWINram(0x47,0);
  1832  001CFC  0E00               	movlw	0
  1833  001CFE  0101               	movlb	1	; () banked
  1834  001D00  6F60               	movwf	(EscreverDWINram@endereco+1)& (0+255),b
  1835  001D02  0E47               	movlw	71
  1836  001D04  6F5F               	movwf	EscreverDWINram@endereco& (0+255),b
  1837  001D06  0E00               	movlw	0
  1838  001D08  0101               	movlb	1	; () banked
  1839  001D0A  6F62               	movwf	(EscreverDWINram@valor+1)& (0+255),b
  1840  001D0C  0E00               	movlw	0
  1841  001D0E  6F61               	movwf	EscreverDWINram@valor& (0+255),b
  1842  001D10  ECCD  F016         	call	_EscreverDWINram	;wreg free
  1843                           
  1844                           ;manual.c: 118: break;
  1845  001D14  D040               	goto	l732
  1846  001D16                     l751:
  1847                           
  1848                           ; BSR set to: 1
  1849                           ;manual.c: 121: PORTDbits.RD1 = !PORTDbits.RD1;
  1850  001D16  7283               	btg	3971,1,c	;volatile
  1851                           
  1852                           ;manual.c: 122: if(PORTDbits.RD1)
  1853  001D18  A283               	btfss	3971,1,c	;volatile
  1854  001D1A  D00D               	goto	l6799
  1855                           
  1856                           ; BSR set to: 1
  1857                           ;manual.c: 123: EscreverDWINram(0x48,1);
  1858  001D1C  0E00               	movlw	0
  1859  001D1E  0101               	movlb	1	; () banked
  1860  001D20  6F60               	movwf	(EscreverDWINram@endereco+1)& (0+255),b
  1861  001D22  0E48               	movlw	72
  1862  001D24  6F5F               	movwf	EscreverDWINram@endereco& (0+255),b
  1863  001D26  0E00               	movlw	0
  1864  001D28  0101               	movlb	1	; () banked
  1865  001D2A  6F62               	movwf	(EscreverDWINram@valor+1)& (0+255),b
  1866  001D2C  0E01               	movlw	1
  1867  001D2E  6F61               	movwf	EscreverDWINram@valor& (0+255),b
  1868  001D30  ECCD  F016         	call	_EscreverDWINram	;wreg free
  1869  001D34  D030               	goto	l732
  1870  001D36                     l6799:
  1871                           
  1872                           ;manual.c: 124: else
  1873                           ;manual.c: 125: EscreverDWINram(0x48,0);
  1874  001D36  0E00               	movlw	0
  1875  001D38  0101               	movlb	1	; () banked
  1876  001D3A  6F60               	movwf	(EscreverDWINram@endereco+1)& (0+255),b
  1877  001D3C  0E48               	movlw	72
  1878  001D3E  6F5F               	movwf	EscreverDWINram@endereco& (0+255),b
  1879  001D40  0E00               	movlw	0
  1880  001D42  0101               	movlb	1	; () banked
  1881  001D44  6F62               	movwf	(EscreverDWINram@valor+1)& (0+255),b
  1882  001D46  0E00               	movlw	0
  1883  001D48  6F61               	movwf	EscreverDWINram@valor& (0+255),b
  1884  001D4A  ECCD  F016         	call	_EscreverDWINram	;wreg free
  1885                           
  1886                           ;manual.c: 127: }
  1887                           
  1888                           ;manual.c: 126: break;
  1889  001D4E  D023               	goto	l732
  1890  001D50                     l6803:
  1891  001D50  C08F  F164         	movff	_TempUInt,??_ModoManual
  1892  001D54  C090  F165         	movff	_TempUInt+1,??_ModoManual+1
  1893                           
  1894                           ; Switch on 2 bytes has been partitioned into a top level switch of size 1, and 1 sub-sw
      +                          itches
  1895                           ; Switch size 1, requested type "space"
  1896                           ; Number of cases is 1, Range of values is 0 to 0
  1897                           ; switch strategies available:
  1898                           ; Name         Instructions Cycles
  1899                           ; simple_byte            4     3 (average)
  1900                           ;	Chosen strategy is simple_byte
  1901  001D58  0101               	movlb	1	; () banked
  1902  001D5A  5165               	movf	(??_ModoManual+1)& (0+255),w,b
  1903  001D5C  0A00               	xorlw	0	; case 0
  1904  001D5E  A4D8               	btfss	status,2,c
  1905  001D60  D01A               	goto	l732
  1906                           
  1907                           ; BSR set to: 1
  1908                           ; Switch size 1, requested type "space"
  1909                           ; Number of cases is 8, Range of values is 1 to 128
  1910                           ; switch strategies available:
  1911                           ; Name         Instructions Cycles
  1912                           ; simple_byte           25    13 (average)
  1913                           ;	Chosen strategy is simple_byte
  1914  001D62  0101               	movlb	1	; () banked
  1915  001D64  5164               	movf	??_ModoManual& (0+255),w,b
  1916  001D66  0A01               	xorlw	1	; case 1
  1917  001D68  B4D8               	btfsc	status,2,c
  1918  001D6A  D6DA               	goto	l729
  1919  001D6C  0A03               	xorlw	3	; case 2
  1920  001D6E  B4D8               	btfsc	status,2,c
  1921  001D70  D6F4               	goto	l733
  1922  001D72  0A06               	xorlw	6	; case 4
  1923  001D74  B4D8               	btfsc	status,2,c
  1924  001D76  D716               	goto	l736
  1925  001D78  0A0C               	xorlw	12	; case 8
  1926  001D7A  B4D8               	btfsc	status,2,c
  1927  001D7C  D738               	goto	l739
  1928  001D7E  0A18               	xorlw	24	; case 16
  1929  001D80  B4D8               	btfsc	status,2,c
  1930  001D82  D75A               	goto	l742
  1931  001D84  0A30               	xorlw	48	; case 32
  1932  001D86  B4D8               	btfsc	status,2,c
  1933  001D88  D77C               	goto	l745
  1934  001D8A  0A60               	xorlw	96	; case 64
  1935  001D8C  B4D8               	btfsc	status,2,c
  1936  001D8E  D79E               	goto	l748
  1937  001D90  0AC0               	xorlw	192	; case 128
  1938  001D92  B4D8               	btfsc	status,2,c
  1939  001D94  D7C0               	goto	l751
  1940  001D96                     l732:
  1941                           
  1942                           ;manual.c: 128: __nop();
  1943  001D96  F000               	nop	
  1944                           
  1945                           ;manual.c: 129: EscreverDWINram(0x40,0);
  1946  001D98  0E00               	movlw	0
  1947  001D9A  0101               	movlb	1	; () banked
  1948  001D9C  6F60               	movwf	(EscreverDWINram@endereco+1)& (0+255),b
  1949  001D9E  0E40               	movlw	64
  1950  001DA0  6F5F               	movwf	EscreverDWINram@endereco& (0+255),b
  1951  001DA2  0E00               	movlw	0
  1952  001DA4  0101               	movlb	1	; () banked
  1953  001DA6  6F62               	movwf	(EscreverDWINram@valor+1)& (0+255),b
  1954  001DA8  0E00               	movlw	0
  1955  001DAA  6F61               	movwf	EscreverDWINram@valor& (0+255),b
  1956  001DAC  ECCD  F016         	call	_EscreverDWINram	;wreg free
  1957                           
  1958                           ;manual.c: 130: DelaySeg(1);
  1959  001DB0  0E01               	movlw	1
  1960  001DB2  ECCC  F017         	call	_DelaySeg
  1961  001DB6  D000               	goto	l6809
  1962  001DB8                     l6809:
  1963                           
  1964                           ;manual.c: 131: }
  1965                           ;manual.c: 132: TempUInt = LerDWINram(0x26);
  1966  001DB8  0E00               	movlw	0
  1967  001DBA  0101               	movlb	1	; () banked
  1968  001DBC  6F53               	movwf	(LerDWINram@endereco+1)& (0+255),b
  1969  001DBE  0E26               	movlw	38
  1970  001DC0  6F52               	movwf	LerDWINram@endereco& (0+255),b
  1971  001DC2  ECB4  F014         	call	_LerDWINram	;wreg free
  1972  001DC6  C152  F08F         	movff	?_LerDWINram,_TempUInt
  1973  001DCA  C153  F090         	movff	?_LerDWINram+1,_TempUInt+1
  1974                           
  1975                           ;manual.c: 133: if(TempUInt != 0){
  1976  001DCE  0100               	movlb	0	; () banked
  1977  001DD0  518F               	movf	_TempUInt& (0+255),w,b
  1978  001DD2  0100               	movlb	0	; () banked
  1979  001DD4  1190               	iorwf	(_TempUInt+1)& (0+255),w,b
  1980  001DD6  B4D8               	btfsc	status,2,c
  1981  001DD8  D062               	goto	l763
  1982                           
  1983                           ; BSR set to: 0
  1984                           ;manual.c: 134: __nop();
  1985  001DDA  F000               	nop	
  1986                           
  1987                           ;manual.c: 135: switch(TempUInt){
  1988  001DDC  D03E               	goto	l6829
  1989  001DDE                     l756:
  1990                           
  1991                           ; BSR set to: 1
  1992                           ;manual.c: 137: PORTDbits.RD2 = !PORTDbits.RD2;
  1993  001DDE  7483               	btg	3971,2,c	;volatile
  1994                           
  1995                           ;manual.c: 138: if(PORTDbits.RD2){
  1996  001DE0  A483               	btfss	3971,2,c	;volatile
  1997  001DE2  D00E               	goto	l757
  1998                           
  1999                           ; BSR set to: 1
  2000                           ;manual.c: 139: PORTBbits.RB1 = 1;
  2001  001DE4  8281               	bsf	3969,1,c	;volatile
  2002                           
  2003                           ; BSR set to: 1
  2004                           ;manual.c: 140: EscreverDWINram(0x49,1);
  2005  001DE6  0E00               	movlw	0
  2006  001DE8  0101               	movlb	1	; () banked
  2007  001DEA  6F60               	movwf	(EscreverDWINram@endereco+1)& (0+255),b
  2008  001DEC  0E49               	movlw	73
  2009  001DEE  6F5F               	movwf	EscreverDWINram@endereco& (0+255),b
  2010  001DF0  0E00               	movlw	0
  2011  001DF2  0101               	movlb	1	; () banked
  2012  001DF4  6F62               	movwf	(EscreverDWINram@valor+1)& (0+255),b
  2013  001DF6  0E01               	movlw	1
  2014  001DF8  6F61               	movwf	EscreverDWINram@valor& (0+255),b
  2015  001DFA  ECCD  F016         	call	_EscreverDWINram	;wreg free
  2016                           
  2017                           ;manual.c: 141: }
  2018  001DFE  D03F               	goto	l6831
  2019  001E00                     l757:
  2020                           
  2021                           ; BSR set to: 1
  2022                           ;manual.c: 142: else{
  2023                           ;manual.c: 143: PORTBbits.RB1 = 0;
  2024  001E00  9281               	bcf	3969,1,c	;volatile
  2025                           
  2026                           ; BSR set to: 1
  2027                           ;manual.c: 144: EscreverDWINram(0x49,0);
  2028  001E02  0E00               	movlw	0
  2029  001E04  0101               	movlb	1	; () banked
  2030  001E06  6F60               	movwf	(EscreverDWINram@endereco+1)& (0+255),b
  2031  001E08  0E49               	movlw	73
  2032  001E0A  6F5F               	movwf	EscreverDWINram@endereco& (0+255),b
  2033  001E0C  0E00               	movlw	0
  2034  001E0E  0101               	movlb	1	; () banked
  2035  001E10  6F62               	movwf	(EscreverDWINram@valor+1)& (0+255),b
  2036  001E12  0E00               	movlw	0
  2037  001E14  6F61               	movwf	EscreverDWINram@valor& (0+255),b
  2038  001E16  ECCD  F016         	call	_EscreverDWINram	;wreg free
  2039                           
  2040                           ;manual.c: 145: }
  2041                           ;manual.c: 146: break;
  2042  001E1A  D031               	goto	l6831
  2043  001E1C                     l760:
  2044                           
  2045                           ; BSR set to: 1
  2046                           ;manual.c: 148: PORTDbits.RD3 = !PORTDbits.RD3;
  2047  001E1C  7683               	btg	3971,3,c	;volatile
  2048                           
  2049                           ;manual.c: 149: if(PORTDbits.RD3){
  2050  001E1E  A683               	btfss	3971,3,c	;volatile
  2051  001E20  D00E               	goto	l761
  2052                           
  2053                           ; BSR set to: 1
  2054                           ;manual.c: 150: PORTBbits.RB1 = 1;
  2055  001E22  8281               	bsf	3969,1,c	;volatile
  2056                           
  2057                           ; BSR set to: 1
  2058                           ;manual.c: 151: EscreverDWINram(0x50,1);
  2059  001E24  0E00               	movlw	0
  2060  001E26  0101               	movlb	1	; () banked
  2061  001E28  6F60               	movwf	(EscreverDWINram@endereco+1)& (0+255),b
  2062  001E2A  0E50               	movlw	80
  2063  001E2C  6F5F               	movwf	EscreverDWINram@endereco& (0+255),b
  2064  001E2E  0E00               	movlw	0
  2065  001E30  0101               	movlb	1	; () banked
  2066  001E32  6F62               	movwf	(EscreverDWINram@valor+1)& (0+255),b
  2067  001E34  0E01               	movlw	1
  2068  001E36  6F61               	movwf	EscreverDWINram@valor& (0+255),b
  2069  001E38  ECCD  F016         	call	_EscreverDWINram	;wreg free
  2070                           
  2071                           ;manual.c: 152: }
  2072  001E3C  D020               	goto	l6831
  2073  001E3E                     l761:
  2074                           
  2075                           ; BSR set to: 1
  2076                           ;manual.c: 153: else{
  2077                           ;manual.c: 154: PORTBbits.RB1 = 0;
  2078  001E3E  9281               	bcf	3969,1,c	;volatile
  2079                           
  2080                           ; BSR set to: 1
  2081                           ;manual.c: 155: EscreverDWINram(0x50,0);
  2082  001E40  0E00               	movlw	0
  2083  001E42  0101               	movlb	1	; () banked
  2084  001E44  6F60               	movwf	(EscreverDWINram@endereco+1)& (0+255),b
  2085  001E46  0E50               	movlw	80
  2086  001E48  6F5F               	movwf	EscreverDWINram@endereco& (0+255),b
  2087  001E4A  0E00               	movlw	0
  2088  001E4C  0101               	movlb	1	; () banked
  2089  001E4E  6F62               	movwf	(EscreverDWINram@valor+1)& (0+255),b
  2090  001E50  0E00               	movlw	0
  2091  001E52  6F61               	movwf	EscreverDWINram@valor& (0+255),b
  2092  001E54  ECCD  F016         	call	_EscreverDWINram	;wreg free
  2093                           
  2094                           ;manual.c: 158: }
  2095                           
  2096                           ;manual.c: 156: }
  2097                           ;manual.c: 157: break;
  2098  001E58  D012               	goto	l6831
  2099  001E5A                     l6829:
  2100  001E5A  C08F  F164         	movff	_TempUInt,??_ModoManual
  2101  001E5E  C090  F165         	movff	_TempUInt+1,??_ModoManual+1
  2102                           
  2103                           ; Switch on 2 bytes has been partitioned into a top level switch of size 1, and 1 sub-sw
      +                          itches
  2104                           ; Switch size 1, requested type "space"
  2105                           ; Number of cases is 1, Range of values is 0 to 0
  2106                           ; switch strategies available:
  2107                           ; Name         Instructions Cycles
  2108                           ; simple_byte            4     3 (average)
  2109                           ;	Chosen strategy is simple_byte
  2110  001E62  0101               	movlb	1	; () banked
  2111  001E64  5165               	movf	(??_ModoManual+1)& (0+255),w,b
  2112  001E66  0A00               	xorlw	0	; case 0
  2113  001E68  A4D8               	btfss	status,2,c
  2114  001E6A  D009               	goto	l6831
  2115                           
  2116                           ; BSR set to: 1
  2117                           ; Switch size 1, requested type "space"
  2118                           ; Number of cases is 2, Range of values is 64 to 128
  2119                           ; switch strategies available:
  2120                           ; Name         Instructions Cycles
  2121                           ; simple_byte            7     4 (average)
  2122                           ;	Chosen strategy is simple_byte
  2123  001E6C  0101               	movlb	1	; () banked
  2124  001E6E  5164               	movf	??_ModoManual& (0+255),w,b
  2125  001E70  0A40               	xorlw	64	; case 64
  2126  001E72  B4D8               	btfsc	status,2,c
  2127  001E74  D7B4               	goto	l756
  2128  001E76  0AC0               	xorlw	192	; case 128
  2129  001E78  B4D8               	btfsc	status,2,c
  2130  001E7A  D7D0               	goto	l760
  2131  001E7C  D000               	goto	l6831
  2132  001E7E                     l6831:
  2133                           
  2134                           ;manual.c: 159: EscreverDWINram(0x26,0);
  2135  001E7E  0E00               	movlw	0
  2136  001E80  0101               	movlb	1	; () banked
  2137  001E82  6F60               	movwf	(EscreverDWINram@endereco+1)& (0+255),b
  2138  001E84  0E26               	movlw	38
  2139  001E86  6F5F               	movwf	EscreverDWINram@endereco& (0+255),b
  2140  001E88  0E00               	movlw	0
  2141  001E8A  0101               	movlb	1	; () banked
  2142  001E8C  6F62               	movwf	(EscreverDWINram@valor+1)& (0+255),b
  2143  001E8E  0E00               	movlw	0
  2144  001E90  6F61               	movwf	EscreverDWINram@valor& (0+255),b
  2145  001E92  ECCD  F016         	call	_EscreverDWINram	;wreg free
  2146                           
  2147                           ;manual.c: 160: DelaySeg(1);
  2148  001E96  0E01               	movlw	1
  2149  001E98  ECCC  F017         	call	_DelaySeg
  2150  001E9C  D000               	goto	l763
  2151  001E9E                     l763:
  2152  001E9E  0012               	return		;funcret
  2153  001EA0                     __end_of_ModoManual:
  2154                           	opt stack 0
  2155                           tblptru	equ	0xFF8
  2156                           postinc0	equ	0xFEE
  2157                           wreg	equ	0xFE8
  2158                           status	equ	0xFD8
  2159                           
  2160 ;; *************** function _LeParamConfig *****************
  2161 ;; Defined at:
  2162 ;;		line 461 in file "main.c"
  2163 ;; Parameters:    Size  Location     Type
  2164 ;;		None
  2165 ;; Auto vars:     Size  Location     Type
  2166 ;;		None
  2167 ;; Return value:  Size  Location     Type
  2168 ;;		None               void
  2169 ;; Registers used:
  2170 ;;		wreg, fsr2l, fsr2h, status,2, status,0, prodl, prodh, cstack
  2171 ;; Tracked objects:
  2172 ;;		On entry : 0/0
  2173 ;;		On exit  : 0/0
  2174 ;;		Unchanged: 0/0
  2175 ;; Data sizes:     COMRAM   BANK0   BANK1   BANK2   BANK3   BANK4   BANK5   BANK6   BANK7
  2176 ;;      Params:         0       0       0       0       0       0       0       0       0
  2177 ;;      Locals:         0       0       0       0       0       0       0       0       0
  2178 ;;      Temps:          0       0       0       0       0       0       0       0       0
  2179 ;;      Totals:         0       0       0       0       0       0       0       0       0
  2180 ;;Total ram usage:        0 bytes
  2181 ;; Hardware stack levels used:    1
  2182 ;; Hardware stack levels required when called:    6
  2183 ;; This function calls:
  2184 ;;		_LerDWINram
  2185 ;;		___awdiv
  2186 ;; This function is called by:
  2187 ;;		_main
  2188 ;; This function uses a non-reentrant model
  2189 ;;
  2190                           
  2191                           	psect	text3
  2192  0026AE                     __ptext3:
  2193                           	opt stack 0
  2194  0026AE                     _LeParamConfig:
  2195                           	opt stack 24
  2196                           
  2197                           ;main.c: 463: KP = LerDWINram(0x27) / 10;
  2198                           
  2199                           ;incstack = 0
  2200  0026AE  0E00               	movlw	0
  2201  0026B0  0101               	movlb	1	; () banked
  2202  0026B2  6F53               	movwf	(LerDWINram@endereco+1)& (0+255),b
  2203  0026B4  0E27               	movlw	39
  2204  0026B6  6F52               	movwf	LerDWINram@endereco& (0+255),b
  2205  0026B8  ECB4  F014         	call	_LerDWINram	;wreg free
  2206  0026BC  C152  F157         	movff	?_LerDWINram,___awdiv@dividend
  2207  0026C0  C153  F158         	movff	?_LerDWINram+1,___awdiv@dividend+1
  2208  0026C4  0E00               	movlw	0
  2209  0026C6  0101               	movlb	1	; () banked
  2210  0026C8  6F5A               	movwf	(___awdiv@divisor+1)& (0+255),b
  2211  0026CA  0E0A               	movlw	10
  2212  0026CC  6F59               	movwf	___awdiv@divisor& (0+255),b
  2213  0026CE  ECE5  F013         	call	___awdiv	;wreg free
  2214  0026D2  0101               	movlb	1	; () banked
  2215  0026D4  5157               	movf	?___awdiv& (0+255),w,b
  2216  0026D6  6E1B               	movwf	_KP,c
  2217                           
  2218                           ;main.c: 464: KI = LerDWINram(0x28) / 10;
  2219  0026D8  0E00               	movlw	0
  2220  0026DA  0101               	movlb	1	; () banked
  2221  0026DC  6F53               	movwf	(LerDWINram@endereco+1)& (0+255),b
  2222  0026DE  0E28               	movlw	40
  2223  0026E0  6F52               	movwf	LerDWINram@endereco& (0+255),b
  2224  0026E2  ECB4  F014         	call	_LerDWINram	;wreg free
  2225  0026E6  C152  F157         	movff	?_LerDWINram,___awdiv@dividend
  2226  0026EA  C153  F158         	movff	?_LerDWINram+1,___awdiv@dividend+1
  2227  0026EE  0E00               	movlw	0
  2228  0026F0  0101               	movlb	1	; () banked
  2229  0026F2  6F5A               	movwf	(___awdiv@divisor+1)& (0+255),b
  2230  0026F4  0E0A               	movlw	10
  2231  0026F6  6F59               	movwf	___awdiv@divisor& (0+255),b
  2232  0026F8  ECE5  F013         	call	___awdiv	;wreg free
  2233  0026FC  0101               	movlb	1	; () banked
  2234  0026FE  5157               	movf	?___awdiv& (0+255),w,b
  2235  002700  6E1A               	movwf	_KI,c
  2236                           
  2237                           ;main.c: 465: KD = LerDWINram(0x29) / 10;
  2238  002702  0E00               	movlw	0
  2239  002704  0101               	movlb	1	; () banked
  2240  002706  6F53               	movwf	(LerDWINram@endereco+1)& (0+255),b
  2241  002708  0E29               	movlw	41
  2242  00270A  6F52               	movwf	LerDWINram@endereco& (0+255),b
  2243  00270C  ECB4  F014         	call	_LerDWINram	;wreg free
  2244  002710  C152  F157         	movff	?_LerDWINram,___awdiv@dividend
  2245  002714  C153  F158         	movff	?_LerDWINram+1,___awdiv@dividend+1
  2246  002718  0E00               	movlw	0
  2247  00271A  0101               	movlb	1	; () banked
  2248  00271C  6F5A               	movwf	(___awdiv@divisor+1)& (0+255),b
  2249  00271E  0E0A               	movlw	10
  2250  002720  6F59               	movwf	___awdiv@divisor& (0+255),b
  2251  002722  ECE5  F013         	call	___awdiv	;wreg free
  2252  002726  0101               	movlb	1	; () banked
  2253  002728  5157               	movf	?___awdiv& (0+255),w,b
  2254  00272A  0100               	movlb	0	; () banked
  2255  00272C  6F97               	movwf	_KD& (0+255),b
  2256                           
  2257                           ;main.c: 466: TAmostragemPID = LerDWINram(0x2A);
  2258  00272E  0E00               	movlw	0
  2259  002730  0101               	movlb	1	; () banked
  2260  002732  6F53               	movwf	(LerDWINram@endereco+1)& (0+255),b
  2261  002734  0E2A               	movlw	42
  2262  002736  6F52               	movwf	LerDWINram@endereco& (0+255),b
  2263  002738  ECB4  F014         	call	_LerDWINram	;wreg free
  2264  00273C  C152  F009         	movff	?_LerDWINram,_TAmostragemPID
  2265  002740  C153  F00A         	movff	?_LerDWINram+1,_TAmostragemPID+1
  2266                           
  2267                           ;main.c: 467: TonBomba = LerDWINram(0x57);
  2268  002744  0E00               	movlw	0
  2269  002746  0101               	movlb	1	; () banked
  2270  002748  6F53               	movwf	(LerDWINram@endereco+1)& (0+255),b
  2271  00274A  0E57               	movlw	87
  2272  00274C  6F52               	movwf	LerDWINram@endereco& (0+255),b
  2273  00274E  ECB4  F014         	call	_LerDWINram	;wreg free
  2274  002752  0101               	movlb	1	; () banked
  2275  002754  5152               	movf	?_LerDWINram& (0+255),w,b
  2276  002756  0100               	movlb	0	; () banked
  2277  002758  6F9F               	movwf	_TonBomba& (0+255),b
  2278                           
  2279                           ;main.c: 468: ToffBomba = LerDWINram(0x58);
  2280  00275A  0E00               	movlw	0
  2281  00275C  0101               	movlb	1	; () banked
  2282  00275E  6F53               	movwf	(LerDWINram@endereco+1)& (0+255),b
  2283  002760  0E58               	movlw	88
  2284  002762  6F52               	movwf	LerDWINram@endereco& (0+255),b
  2285  002764  ECB4  F014         	call	_LerDWINram	;wreg free
  2286  002768  0101               	movlb	1	; () banked
  2287  00276A  5152               	movf	?_LerDWINram& (0+255),w,b
  2288  00276C  0100               	movlb	0	; () banked
  2289  00276E  6F9E               	movwf	_ToffBomba& (0+255),b
  2290                           
  2291                           ;main.c: 469: TemperaturaSparging = LerDWINram(0x2C);
  2292  002770  0E00               	movlw	0
  2293  002772  0101               	movlb	1	; () banked
  2294  002774  6F53               	movwf	(LerDWINram@endereco+1)& (0+255),b
  2295  002776  0E2C               	movlw	44
  2296  002778  6F52               	movwf	LerDWINram@endereco& (0+255),b
  2297  00277A  ECB4  F014         	call	_LerDWINram	;wreg free
  2298  00277E  0101               	movlb	1	; () banked
  2299  002780  5152               	movf	?_LerDWINram& (0+255),w,b
  2300  002782  0100               	movlb	0	; () banked
  2301  002784  6F9B               	movwf	_TemperaturaSparging& (0+255),b
  2302                           
  2303                           ;main.c: 470: PorcentagemBombaSparging = LerDWINram(0x2D);
  2304  002786  0E00               	movlw	0
  2305  002788  0101               	movlb	1	; () banked
  2306  00278A  6F53               	movwf	(LerDWINram@endereco+1)& (0+255),b
  2307  00278C  0E2D               	movlw	45
  2308  00278E  6F52               	movwf	LerDWINram@endereco& (0+255),b
  2309  002790  ECB4  F014         	call	_LerDWINram	;wreg free
  2310  002794  0101               	movlb	1	; () banked
  2311  002796  5152               	movf	?_LerDWINram& (0+255),w,b
  2312  002798  0100               	movlb	0	; () banked
  2313  00279A  6F9A               	movwf	_PorcentagemBombaSparging& (0+255),b
  2314                           
  2315                           ;main.c: 471: TempoAdicionarAguaSparging = LerDWINram(0x55);
  2316  00279C  0E00               	movlw	0
  2317  00279E  0101               	movlb	1	; () banked
  2318  0027A0  6F53               	movwf	(LerDWINram@endereco+1)& (0+255),b
  2319  0027A2  0E55               	movlw	85
  2320  0027A4  6F52               	movwf	LerDWINram@endereco& (0+255),b
  2321  0027A6  ECB4  F014         	call	_LerDWINram	;wreg free
  2322  0027AA  0101               	movlb	1	; () banked
  2323  0027AC  5152               	movf	?_LerDWINram& (0+255),w,b
  2324  0027AE  0100               	movlb	0	; () banked
  2325  0027B0  6F9C               	movwf	_TempoAdicionarAguaSparging& (0+255),b
  2326                           
  2327                           ;main.c: 472: TempoDescansosparging = LerDWINram(0x56);
  2328  0027B2  0E00               	movlw	0
  2329  0027B4  0101               	movlb	1	; () banked
  2330  0027B6  6F53               	movwf	(LerDWINram@endereco+1)& (0+255),b
  2331  0027B8  0E56               	movlw	86
  2332  0027BA  6F52               	movwf	LerDWINram@endereco& (0+255),b
  2333  0027BC  ECB4  F014         	call	_LerDWINram	;wreg free
  2334  0027C0  0101               	movlb	1	; () banked
  2335  0027C2  5152               	movf	?_LerDWINram& (0+255),w,b
  2336  0027C4  0100               	movlb	0	; () banked
  2337  0027C6  6F9D               	movwf	_TempoDescansosparging& (0+255),b
  2338                           
  2339                           ; BSR set to: 0
  2340  0027C8  0012               	return		;funcret
  2341  0027CA                     __end_of_LeParamConfig:
  2342                           	opt stack 0
  2343                           tblptru	equ	0xFF8
  2344                           postinc0	equ	0xFEE
  2345                           wreg	equ	0xFE8
  2346                           status	equ	0xFD8
  2347                           
  2348 ;; *************** function _LeDadosReceita *****************
  2349 ;; Defined at:
  2350 ;;		line 475 in file "main.c"
  2351 ;; Parameters:    Size  Location     Type
  2352 ;;		None
  2353 ;; Auto vars:     Size  Location     Type
  2354 ;;  buffer          2    9[BANK1 ] unsigned int 
  2355 ;;  utemp8          1   11[BANK1 ] unsigned char 
  2356 ;; Return value:  Size  Location     Type
  2357 ;;		None               void
  2358 ;; Registers used:
  2359 ;;		wreg, fsr2l, fsr2h, status,2, status,0, prodl, prodh, cstack
  2360 ;; Tracked objects:
  2361 ;;		On entry : 0/0
  2362 ;;		On exit  : 0/0
  2363 ;;		Unchanged: 0/0
  2364 ;; Data sizes:     COMRAM   BANK0   BANK1   BANK2   BANK3   BANK4   BANK5   BANK6   BANK7
  2365 ;;      Params:         0       0       0       0       0       0       0       0       0
  2366 ;;      Locals:         0       0       3       0       0       0       0       0       0
  2367 ;;      Temps:          0       0       2       0       0       0       0       0       0
  2368 ;;      Totals:         0       0       5       0       0       0       0       0       0
  2369 ;;Total ram usage:        5 bytes
  2370 ;; Hardware stack levels used:    1
  2371 ;; Hardware stack levels required when called:    6
  2372 ;; This function calls:
  2373 ;;		_LerDWINram
  2374 ;; This function is called by:
  2375 ;;		_main
  2376 ;; This function uses a non-reentrant model
  2377 ;;
  2378                           
  2379                           	psect	text4
  2380  001EA0                     __ptext4:
  2381                           	opt stack 0
  2382  001EA0                     _LeDadosReceita:
  2383                           	opt stack 24
  2384                           
  2385                           ;main.c: 477: unsigned char utemp8;
  2386                           ;main.c: 478: unsigned int buffer;
  2387                           ;main.c: 480: for(utemp8=0x10;utemp8<0x25;utemp8++){
  2388                           
  2389                           ; BSR set to: 0
  2390                           ;incstack = 0
  2391  001EA0  0E10               	movlw	16
  2392  001EA2  0101               	movlb	1	; () banked
  2393  001EA4  6F5B               	movwf	LeDadosReceita@utemp8& (0+255),b
  2394  001EA6                     l5821:
  2395                           
  2396                           ; BSR set to: 1
  2397  001EA6  0E24               	movlw	36
  2398  001EA8  0101               	movlb	1	; () banked
  2399  001EAA  655B               	cpfsgt	LeDadosReceita@utemp8& (0+255),b
  2400  001EAC  D0E9               	goto	l5869
  2401                           
  2402                           ; BSR set to: 1
  2403  001EAE  D12D               	goto	l5875
  2404                           
  2405                           ; BSR set to: 1
  2406                           ;main.c: 481: switch(utemp8){
  2407  001EB0  D0E7               	goto	l5869
  2408  001EB2                     l5825:
  2409                           
  2410                           ; BSR set to: 1
  2411  001EB2  C15B  F152         	movff	LeDadosReceita@utemp8,LerDWINram@endereco
  2412  001EB6  0101               	movlb	1	; () banked
  2413  001EB8  6B53               	clrf	(LerDWINram@endereco+1)& (0+255),b
  2414  001EBA  ECB4  F014         	call	_LerDWINram	;wreg free
  2415  001EBE  0101               	movlb	1	; () banked
  2416  001EC0  5152               	movf	?_LerDWINram& (0+255),w,b
  2417  001EC2  0100               	movlb	0	; () banked
  2418  001EC4  6FA1               	movwf	_ReceitaAtual& (0+255),b
  2419  001EC6  D11E               	goto	l5871
  2420  001EC8                     l5827:
  2421  001EC8  C15B  F152         	movff	LeDadosReceita@utemp8,LerDWINram@endereco
  2422  001ECC  0101               	movlb	1	; () banked
  2423  001ECE  6B53               	clrf	(LerDWINram@endereco+1)& (0+255),b
  2424  001ED0  ECB4  F014         	call	_LerDWINram	;wreg free
  2425  001ED4  0101               	movlb	1	; () banked
  2426  001ED6  5152               	movf	?_LerDWINram& (0+255),w,b
  2427  001ED8  0100               	movlb	0	; () banked
  2428  001EDA  6FA2               	movwf	(_ReceitaAtual+1)& (0+255),b
  2429  001EDC  D113               	goto	l5871
  2430  001EDE                     l5829:
  2431  001EDE  C15B  F152         	movff	LeDadosReceita@utemp8,LerDWINram@endereco
  2432  001EE2  0101               	movlb	1	; () banked
  2433  001EE4  6B53               	clrf	(LerDWINram@endereco+1)& (0+255),b
  2434  001EE6  ECB4  F014         	call	_LerDWINram	;wreg free
  2435  001EEA  0101               	movlb	1	; () banked
  2436  001EEC  5152               	movf	?_LerDWINram& (0+255),w,b
  2437  001EEE  0100               	movlb	0	; () banked
  2438  001EF0  6FA3               	movwf	(_ReceitaAtual+2)& (0+255),b
  2439  001EF2  D108               	goto	l5871
  2440  001EF4                     l5831:
  2441  001EF4  C15B  F152         	movff	LeDadosReceita@utemp8,LerDWINram@endereco
  2442  001EF8  0101               	movlb	1	; () banked
  2443  001EFA  6B53               	clrf	(LerDWINram@endereco+1)& (0+255),b
  2444  001EFC  ECB4  F014         	call	_LerDWINram	;wreg free
  2445  001F00  0101               	movlb	1	; () banked
  2446  001F02  5152               	movf	?_LerDWINram& (0+255),w,b
  2447  001F04  0100               	movlb	0	; () banked
  2448  001F06  6FA4               	movwf	(_ReceitaAtual+3)& (0+255),b
  2449  001F08  D0FD               	goto	l5871
  2450  001F0A                     l5833:
  2451  001F0A  C15B  F152         	movff	LeDadosReceita@utemp8,LerDWINram@endereco
  2452  001F0E  0101               	movlb	1	; () banked
  2453  001F10  6B53               	clrf	(LerDWINram@endereco+1)& (0+255),b
  2454  001F12  ECB4  F014         	call	_LerDWINram	;wreg free
  2455  001F16  0101               	movlb	1	; () banked
  2456  001F18  5152               	movf	?_LerDWINram& (0+255),w,b
  2457  001F1A  0100               	movlb	0	; () banked
  2458  001F1C  6FA5               	movwf	(_ReceitaAtual+4)& (0+255),b
  2459  001F1E  D0F2               	goto	l5871
  2460  001F20                     l5835:
  2461  001F20  C15B  F152         	movff	LeDadosReceita@utemp8,LerDWINram@endereco
  2462  001F24  0101               	movlb	1	; () banked
  2463  001F26  6B53               	clrf	(LerDWINram@endereco+1)& (0+255),b
  2464  001F28  ECB4  F014         	call	_LerDWINram	;wreg free
  2465  001F2C  0101               	movlb	1	; () banked
  2466  001F2E  5152               	movf	?_LerDWINram& (0+255),w,b
  2467  001F30  0100               	movlb	0	; () banked
  2468  001F32  6FA6               	movwf	(_ReceitaAtual+5)& (0+255),b
  2469  001F34  D0E7               	goto	l5871
  2470  001F36                     l5837:
  2471  001F36  C15B  F152         	movff	LeDadosReceita@utemp8,LerDWINram@endereco
  2472  001F3A  0101               	movlb	1	; () banked
  2473  001F3C  6B53               	clrf	(LerDWINram@endereco+1)& (0+255),b
  2474  001F3E  ECB4  F014         	call	_LerDWINram	;wreg free
  2475  001F42  0101               	movlb	1	; () banked
  2476  001F44  5152               	movf	?_LerDWINram& (0+255),w,b
  2477  001F46  0100               	movlb	0	; () banked
  2478  001F48  6FA7               	movwf	(_ReceitaAtual+6)& (0+255),b
  2479  001F4A  D0DC               	goto	l5871
  2480  001F4C                     l5839:
  2481  001F4C  C15B  F152         	movff	LeDadosReceita@utemp8,LerDWINram@endereco
  2482  001F50  0101               	movlb	1	; () banked
  2483  001F52  6B53               	clrf	(LerDWINram@endereco+1)& (0+255),b
  2484  001F54  ECB4  F014         	call	_LerDWINram	;wreg free
  2485  001F58  0101               	movlb	1	; () banked
  2486  001F5A  5152               	movf	?_LerDWINram& (0+255),w,b
  2487  001F5C  0100               	movlb	0	; () banked
  2488  001F5E  6FA8               	movwf	(_ReceitaAtual+7)& (0+255),b
  2489  001F60  D0D1               	goto	l5871
  2490  001F62                     l5841:
  2491  001F62  C15B  F152         	movff	LeDadosReceita@utemp8,LerDWINram@endereco
  2492  001F66  0101               	movlb	1	; () banked
  2493  001F68  6B53               	clrf	(LerDWINram@endereco+1)& (0+255),b
  2494  001F6A  ECB4  F014         	call	_LerDWINram	;wreg free
  2495  001F6E  0101               	movlb	1	; () banked
  2496  001F70  5152               	movf	?_LerDWINram& (0+255),w,b
  2497  001F72  0100               	movlb	0	; () banked
  2498  001F74  6FA9               	movwf	(_ReceitaAtual+8)& (0+255),b
  2499  001F76  D0C6               	goto	l5871
  2500  001F78                     l5843:
  2501  001F78  C15B  F152         	movff	LeDadosReceita@utemp8,LerDWINram@endereco
  2502  001F7C  0101               	movlb	1	; () banked
  2503  001F7E  6B53               	clrf	(LerDWINram@endereco+1)& (0+255),b
  2504  001F80  ECB4  F014         	call	_LerDWINram	;wreg free
  2505  001F84  0101               	movlb	1	; () banked
  2506  001F86  5152               	movf	?_LerDWINram& (0+255),w,b
  2507  001F88  0100               	movlb	0	; () banked
  2508  001F8A  6FAA               	movwf	(_ReceitaAtual+9)& (0+255),b
  2509  001F8C  D0BB               	goto	l5871
  2510  001F8E                     l5845:
  2511  001F8E  C15B  F152         	movff	LeDadosReceita@utemp8,LerDWINram@endereco
  2512  001F92  0101               	movlb	1	; () banked
  2513  001F94  6B53               	clrf	(LerDWINram@endereco+1)& (0+255),b
  2514  001F96  ECB4  F014         	call	_LerDWINram	;wreg free
  2515  001F9A  0101               	movlb	1	; () banked
  2516  001F9C  5152               	movf	?_LerDWINram& (0+255),w,b
  2517  001F9E  0100               	movlb	0	; () banked
  2518  001FA0  6FAB               	movwf	(_ReceitaAtual+10)& (0+255),b
  2519  001FA2  D0B0               	goto	l5871
  2520  001FA4                     l5847:
  2521  001FA4  C15B  F152         	movff	LeDadosReceita@utemp8,LerDWINram@endereco
  2522  001FA8  0101               	movlb	1	; () banked
  2523  001FAA  6B53               	clrf	(LerDWINram@endereco+1)& (0+255),b
  2524  001FAC  ECB4  F014         	call	_LerDWINram	;wreg free
  2525  001FB0  0101               	movlb	1	; () banked
  2526  001FB2  5152               	movf	?_LerDWINram& (0+255),w,b
  2527  001FB4  0100               	movlb	0	; () banked
  2528  001FB6  6FAC               	movwf	(_ReceitaAtual+11)& (0+255),b
  2529  001FB8  D0A5               	goto	l5871
  2530  001FBA                     l5849:
  2531  001FBA  C15B  F152         	movff	LeDadosReceita@utemp8,LerDWINram@endereco
  2532  001FBE  0101               	movlb	1	; () banked
  2533  001FC0  6B53               	clrf	(LerDWINram@endereco+1)& (0+255),b
  2534  001FC2  ECB4  F014         	call	_LerDWINram	;wreg free
  2535  001FC6  0101               	movlb	1	; () banked
  2536  001FC8  5152               	movf	?_LerDWINram& (0+255),w,b
  2537  001FCA  0100               	movlb	0	; () banked
  2538  001FCC  6FAD               	movwf	(_ReceitaAtual+12)& (0+255),b
  2539  001FCE  D09A               	goto	l5871
  2540  001FD0                     l5851:
  2541  001FD0  C15B  F152         	movff	LeDadosReceita@utemp8,LerDWINram@endereco
  2542  001FD4  0101               	movlb	1	; () banked
  2543  001FD6  6B53               	clrf	(LerDWINram@endereco+1)& (0+255),b
  2544  001FD8  ECB4  F014         	call	_LerDWINram	;wreg free
  2545  001FDC  0101               	movlb	1	; () banked
  2546  001FDE  5152               	movf	?_LerDWINram& (0+255),w,b
  2547  001FE0  0100               	movlb	0	; () banked
  2548  001FE2  6FAE               	movwf	(_ReceitaAtual+13)& (0+255),b
  2549  001FE4  D08F               	goto	l5871
  2550  001FE6                     l5853:
  2551  001FE6  C15B  F152         	movff	LeDadosReceita@utemp8,LerDWINram@endereco
  2552  001FEA  0101               	movlb	1	; () banked
  2553  001FEC  6B53               	clrf	(LerDWINram@endereco+1)& (0+255),b
  2554  001FEE  ECB4  F014         	call	_LerDWINram	;wreg free
  2555  001FF2  0101               	movlb	1	; () banked
  2556  001FF4  5152               	movf	?_LerDWINram& (0+255),w,b
  2557  001FF6  0100               	movlb	0	; () banked
  2558  001FF8  6FAF               	movwf	(_ReceitaAtual+14)& (0+255),b
  2559  001FFA  D084               	goto	l5871
  2560  001FFC                     l5855:
  2561  001FFC  C15B  F152         	movff	LeDadosReceita@utemp8,LerDWINram@endereco
  2562  002000  0101               	movlb	1	; () banked
  2563  002002  6B53               	clrf	(LerDWINram@endereco+1)& (0+255),b
  2564  002004  ECB4  F014         	call	_LerDWINram	;wreg free
  2565  002008  0101               	movlb	1	; () banked
  2566  00200A  5152               	movf	?_LerDWINram& (0+255),w,b
  2567  00200C  0100               	movlb	0	; () banked
  2568  00200E  6FB0               	movwf	(_ReceitaAtual+15)& (0+255),b
  2569  002010  D079               	goto	l5871
  2570  002012                     l5857:
  2571  002012  C15B  F152         	movff	LeDadosReceita@utemp8,LerDWINram@endereco
  2572  002016  0101               	movlb	1	; () banked
  2573  002018  6B53               	clrf	(LerDWINram@endereco+1)& (0+255),b
  2574  00201A  ECB4  F014         	call	_LerDWINram	;wreg free
  2575  00201E  0101               	movlb	1	; () banked
  2576  002020  5152               	movf	?_LerDWINram& (0+255),w,b
  2577  002022  0100               	movlb	0	; () banked
  2578  002024  6FB1               	movwf	(_ReceitaAtual+16)& (0+255),b
  2579  002026  D06E               	goto	l5871
  2580  002028                     l5859:
  2581  002028  C15B  F152         	movff	LeDadosReceita@utemp8,LerDWINram@endereco
  2582  00202C  0101               	movlb	1	; () banked
  2583  00202E  6B53               	clrf	(LerDWINram@endereco+1)& (0+255),b
  2584  002030  ECB4  F014         	call	_LerDWINram	;wreg free
  2585  002034  0101               	movlb	1	; () banked
  2586  002036  5152               	movf	?_LerDWINram& (0+255),w,b
  2587  002038  0100               	movlb	0	; () banked
  2588  00203A  6FB2               	movwf	(_ReceitaAtual+17)& (0+255),b
  2589  00203C  D063               	goto	l5871
  2590  00203E                     l5861:
  2591  00203E  C15B  F152         	movff	LeDadosReceita@utemp8,LerDWINram@endereco
  2592  002042  0101               	movlb	1	; () banked
  2593  002044  6B53               	clrf	(LerDWINram@endereco+1)& (0+255),b
  2594  002046  ECB4  F014         	call	_LerDWINram	;wreg free
  2595  00204A  0101               	movlb	1	; () banked
  2596  00204C  5152               	movf	?_LerDWINram& (0+255),w,b
  2597  00204E  0100               	movlb	0	; () banked
  2598  002050  6FB3               	movwf	(_ReceitaAtual+18)& (0+255),b
  2599  002052  D058               	goto	l5871
  2600  002054                     l5863:
  2601  002054  C15B  F152         	movff	LeDadosReceita@utemp8,LerDWINram@endereco
  2602  002058  0101               	movlb	1	; () banked
  2603  00205A  6B53               	clrf	(LerDWINram@endereco+1)& (0+255),b
  2604  00205C  ECB4  F014         	call	_LerDWINram	;wreg free
  2605  002060  0101               	movlb	1	; () banked
  2606  002062  5152               	movf	?_LerDWINram& (0+255),w,b
  2607  002064  0100               	movlb	0	; () banked
  2608  002066  6FB4               	movwf	(_ReceitaAtual+19)& (0+255),b
  2609  002068  D04D               	goto	l5871
  2610  00206A                     l5865:
  2611  00206A  C15B  F152         	movff	LeDadosReceita@utemp8,LerDWINram@endereco
  2612  00206E  0101               	movlb	1	; () banked
  2613  002070  6B53               	clrf	(LerDWINram@endereco+1)& (0+255),b
  2614  002072  ECB4  F014         	call	_LerDWINram	;wreg free
  2615  002076  0101               	movlb	1	; () banked
  2616  002078  5152               	movf	?_LerDWINram& (0+255),w,b
  2617  00207A  0100               	movlb	0	; () banked
  2618  00207C  6FB5               	movwf	(_ReceitaAtual+20)& (0+255),b
  2619                           
  2620                           ; BSR set to: 0
  2621                           ;main.c: 503: }
  2622  00207E  D042               	goto	l5871
  2623  002080                     l5869:
  2624  002080  0101               	movlb	1	; () banked
  2625  002082  515B               	movf	LeDadosReceita@utemp8& (0+255),w,b
  2626                           
  2627                           ; Switch size 1, requested type "space"
  2628                           ; Number of cases is 21, Range of values is 16 to 36
  2629                           ; switch strategies available:
  2630                           ; Name         Instructions Cycles
  2631                           ; simple_byte           64    33 (average)
  2632                           ;	Chosen strategy is simple_byte
  2633  002084  0A10               	xorlw	16	; case 16
  2634  002086  B4D8               	btfsc	status,2,c
  2635  002088  D714               	goto	l5825
  2636  00208A  0A01               	xorlw	1	; case 17
  2637  00208C  B4D8               	btfsc	status,2,c
  2638  00208E  D71C               	goto	l5827
  2639  002090  0A03               	xorlw	3	; case 18
  2640  002092  B4D8               	btfsc	status,2,c
  2641  002094  D724               	goto	l5829
  2642  002096  0A01               	xorlw	1	; case 19
  2643  002098  B4D8               	btfsc	status,2,c
  2644  00209A  D72C               	goto	l5831
  2645  00209C  0A07               	xorlw	7	; case 20
  2646  00209E  B4D8               	btfsc	status,2,c
  2647  0020A0  D734               	goto	l5833
  2648  0020A2  0A01               	xorlw	1	; case 21
  2649  0020A4  B4D8               	btfsc	status,2,c
  2650  0020A6  D73C               	goto	l5835
  2651  0020A8  0A03               	xorlw	3	; case 22
  2652  0020AA  B4D8               	btfsc	status,2,c
  2653  0020AC  D744               	goto	l5837
  2654  0020AE  0A01               	xorlw	1	; case 23
  2655  0020B0  B4D8               	btfsc	status,2,c
  2656  0020B2  D74C               	goto	l5839
  2657  0020B4  0A0F               	xorlw	15	; case 24
  2658  0020B6  B4D8               	btfsc	status,2,c
  2659  0020B8  D754               	goto	l5841
  2660  0020BA  0A01               	xorlw	1	; case 25
  2661  0020BC  B4D8               	btfsc	status,2,c
  2662  0020BE  D75C               	goto	l5843
  2663  0020C0  0A03               	xorlw	3	; case 26
  2664  0020C2  B4D8               	btfsc	status,2,c
  2665  0020C4  D764               	goto	l5845
  2666  0020C6  0A01               	xorlw	1	; case 27
  2667  0020C8  B4D8               	btfsc	status,2,c
  2668  0020CA  D76C               	goto	l5847
  2669  0020CC  0A07               	xorlw	7	; case 28
  2670  0020CE  B4D8               	btfsc	status,2,c
  2671  0020D0  D774               	goto	l5849
  2672  0020D2  0A01               	xorlw	1	; case 29
  2673  0020D4  B4D8               	btfsc	status,2,c
  2674  0020D6  D77C               	goto	l5851
  2675  0020D8  0A03               	xorlw	3	; case 30
  2676  0020DA  B4D8               	btfsc	status,2,c
  2677  0020DC  D784               	goto	l5853
  2678  0020DE  0A01               	xorlw	1	; case 31
  2679  0020E0  B4D8               	btfsc	status,2,c
  2680  0020E2  D78C               	goto	l5855
  2681  0020E4  0A3F               	xorlw	63	; case 32
  2682  0020E6  B4D8               	btfsc	status,2,c
  2683  0020E8  D794               	goto	l5857
  2684  0020EA  0A01               	xorlw	1	; case 33
  2685  0020EC  B4D8               	btfsc	status,2,c
  2686  0020EE  D79C               	goto	l5859
  2687  0020F0  0A03               	xorlw	3	; case 34
  2688  0020F2  B4D8               	btfsc	status,2,c
  2689  0020F4  D7A4               	goto	l5861
  2690  0020F6  0A01               	xorlw	1	; case 35
  2691  0020F8  B4D8               	btfsc	status,2,c
  2692  0020FA  D7AC               	goto	l5863
  2693  0020FC  0A07               	xorlw	7	; case 36
  2694  0020FE  B4D8               	btfsc	status,2,c
  2695  002100  D7B4               	goto	l5865
  2696  002102  D000               	goto	l5871
  2697  002104                     l5871:
  2698  002104  0101               	movlb	1	; () banked
  2699  002106  2B5B               	incf	LeDadosReceita@utemp8& (0+255),f,b
  2700  002108  D6CE               	goto	l5821
  2701  00210A                     l5875:
  2702                           
  2703                           ; BSR set to: 1
  2704                           ;main.c: 504: }
  2705                           ;main.c: 505: ReceitaAtual.TempoMashIn = LerDWINram(0x51);
  2706  00210A  0E00               	movlw	0
  2707  00210C  0101               	movlb	1	; () banked
  2708  00210E  6F53               	movwf	(LerDWINram@endereco+1)& (0+255),b
  2709  002110  0E51               	movlw	81
  2710  002112  6F52               	movwf	LerDWINram@endereco& (0+255),b
  2711  002114  ECB4  F014         	call	_LerDWINram	;wreg free
  2712  002118  0101               	movlb	1	; () banked
  2713  00211A  5152               	movf	?_LerDWINram& (0+255),w,b
  2714  00211C  0100               	movlb	0	; () banked
  2715  00211E  6FB6               	movwf	(_ReceitaAtual+21)& (0+255),b
  2716                           
  2717                           ; BSR set to: 0
  2718                           ;main.c: 506: for(utemp8=0;utemp8<8;utemp8++){
  2719  002120  0E00               	movlw	0
  2720  002122  0101               	movlb	1	; () banked
  2721  002124  6F5B               	movwf	LeDadosReceita@utemp8& (0+255),b
  2722  002126  D036               	goto	l5891
  2723                           
  2724                           ; BSR set to: 1
  2725                           
  2726                           ; BSR set to: 1
  2727  002128  D039               	goto	l347
  2728  00212A                     l5883:
  2729                           
  2730                           ; BSR set to: 1
  2731                           ;main.c: 507: buffer = LerDWINram(0x100+utemp8);
  2732  00212A  0E00               	movlw	0
  2733  00212C  0101               	movlb	1	; () banked
  2734  00212E  255B               	addwf	LeDadosReceita@utemp8& (0+255),w,b
  2735  002130  0101               	movlb	1	; () banked
  2736  002132  6F52               	movwf	LerDWINram@endereco& (0+255),b
  2737  002134  0101               	movlb	1	; () banked
  2738  002136  6B53               	clrf	(LerDWINram@endereco+1)& (0+255),b
  2739  002138  0E01               	movlw	1
  2740  00213A  2353               	addwfc	(LerDWINram@endereco+1)& (0+255),f,b
  2741  00213C  ECB4  F014         	call	_LerDWINram	;wreg free
  2742  002140  C152  F159         	movff	?_LerDWINram,LeDadosReceita@buffer
  2743  002144  C153  F15A         	movff	?_LerDWINram+1,LeDadosReceita@buffer+1
  2744                           
  2745                           ;main.c: 508: ReceitaAtual.Nome[utemp8*2] = buffer>>8;
  2746  002148  0101               	movlb	1	; () banked
  2747  00214A  515B               	movf	LeDadosReceita@utemp8& (0+255),w,b
  2748  00214C  0D02               	mullw	2
  2749  00214E  0EB7               	movlw	low (_ReceitaAtual+22)
  2750  002150  24F3               	addwf	prodl,w,c
  2751  002152  6ED9               	movwf	fsr2l,c
  2752  002154  0E00               	movlw	high (_ReceitaAtual+22)
  2753  002156  20F4               	addwfc	prodh,w,c
  2754  002158  6EDA               	movwf	fsr2h,c
  2755  00215A  0101               	movlb	1	; () banked
  2756  00215C  515A               	movf	(LeDadosReceita@buffer+1)& (0+255),w,b
  2757  00215E  6EDF               	movwf	indf2,c
  2758                           
  2759                           ; BSR set to: 1
  2760                           ;main.c: 509: ReceitaAtual.Nome[utemp8*2+1] = buffer;
  2761  002160  0101               	movlb	1	; () banked
  2762  002162  515B               	movf	LeDadosReceita@utemp8& (0+255),w,b
  2763  002164  0101               	movlb	1	; () banked
  2764  002166  6F57               	movwf	??_LeDadosReceita& (0+255),b
  2765  002168  6B58               	clrf	(??_LeDadosReceita+1)& (0+255),b
  2766  00216A  90D8               	bcf	status,0,c
  2767  00216C  0101               	movlb	1	; () banked
  2768  00216E  3757               	rlcf	??_LeDadosReceita& (0+255),f,b
  2769  002170  3758               	rlcf	(??_LeDadosReceita+1)& (0+255),f,b
  2770  002172  0E01               	movlw	1
  2771  002174  0101               	movlb	1	; () banked
  2772  002176  2757               	addwf	??_LeDadosReceita& (0+255),f,b
  2773  002178  0E00               	movlw	0
  2774  00217A  2358               	addwfc	(??_LeDadosReceita+1)& (0+255),f,b
  2775  00217C  0EB7               	movlw	low (_ReceitaAtual+22)
  2776  00217E  0101               	movlb	1	; () banked
  2777  002180  2557               	addwf	??_LeDadosReceita& (0+255),w,b
  2778  002182  6ED9               	movwf	fsr2l,c
  2779  002184  0E00               	movlw	high (_ReceitaAtual+22)
  2780  002186  0101               	movlb	1	; () banked
  2781  002188  2158               	addwfc	(??_LeDadosReceita+1)& (0+255),w,b
  2782  00218A  6EDA               	movwf	fsr2h,c
  2783  00218C  C159  FFDF         	movff	LeDadosReceita@buffer,indf2
  2784                           
  2785                           ; BSR set to: 1
  2786  002190  0101               	movlb	1	; () banked
  2787  002192  2B5B               	incf	LeDadosReceita@utemp8& (0+255),f,b
  2788  002194                     l5891:
  2789                           
  2790                           ; BSR set to: 1
  2791  002194  0E07               	movlw	7
  2792  002196  0101               	movlb	1	; () banked
  2793  002198  655B               	cpfsgt	LeDadosReceita@utemp8& (0+255),b
  2794  00219A  D7C7               	goto	l5883
  2795  00219C                     l347:
  2796                           
  2797                           ; BSR set to: 1
  2798                           ;main.c: 510: }
  2799                           ;main.c: 511: __nop();
  2800  00219C  F000               	nop	
  2801  00219E  0012               	return		;funcret
  2802  0021A0                     __end_of_LeDadosReceita:
  2803                           	opt stack 0
  2804                           tblptru	equ	0xFF8
  2805                           prodh	equ	0xFF4
  2806                           prodl	equ	0xFF3
  2807                           postinc0	equ	0xFEE
  2808                           wreg	equ	0xFE8
  2809                           indf2	equ	0xFDF
  2810                           fsr2h	equ	0xFDA
  2811                           fsr2l	equ	0xFD9
  2812                           status	equ	0xFD8
  2813                           
  2814 ;; *************** function _Inicializacao *****************
  2815 ;; Defined at:
  2816 ;;		line 402 in file "main.c"
  2817 ;; Parameters:    Size  Location     Type
  2818 ;;		None
  2819 ;; Auto vars:     Size  Location     Type
  2820 ;;		None
  2821 ;; Return value:  Size  Location     Type
  2822 ;;		None               void
  2823 ;; Registers used:
  2824 ;;		wreg, status,2
  2825 ;; Tracked objects:
  2826 ;;		On entry : 0/0
  2827 ;;		On exit  : 0/0
  2828 ;;		Unchanged: 0/0
  2829 ;; Data sizes:     COMRAM   BANK0   BANK1   BANK2   BANK3   BANK4   BANK5   BANK6   BANK7
  2830 ;;      Params:         0       0       0       0       0       0       0       0       0
  2831 ;;      Locals:         0       0       0       0       0       0       0       0       0
  2832 ;;      Temps:          0       0       0       0       0       0       0       0       0
  2833 ;;      Totals:         0       0       0       0       0       0       0       0       0
  2834 ;;Total ram usage:        0 bytes
  2835 ;; Hardware stack levels used:    1
  2836 ;; Hardware stack levels required when called:    4
  2837 ;; This function calls:
  2838 ;;		Nothing
  2839 ;; This function is called by:
  2840 ;;		_main
  2841 ;; This function uses a non-reentrant model
  2842 ;;
  2843                           
  2844                           	psect	text5
  2845  002D1A                     __ptext5:
  2846                           	opt stack 0
  2847  002D1A                     _Inicializacao:
  2848                           	opt stack 26
  2849                           
  2850                           ;main.c: 406: PORTA = 0;
  2851                           
  2852                           ;incstack = 0
  2853  002D1A  0E00               	movlw	0
  2854  002D1C  6E80               	movwf	3968,c	;volatile
  2855                           
  2856                           ;main.c: 407: ADCON0 = 0;
  2857  002D1E  0E00               	movlw	0
  2858  002D20  6EC2               	movwf	4034,c	;volatile
  2859                           
  2860                           ;main.c: 408: ADCON1 = 0b00011010;
  2861  002D22  0E1A               	movlw	26
  2862  002D24  6EC1               	movwf	4033,c	;volatile
  2863                           
  2864                           ;main.c: 409: ADCON2 = 0b10100101;
  2865  002D26  0EA5               	movlw	165
  2866  002D28  6EC0               	movwf	4032,c	;volatile
  2867                           
  2868                           ;main.c: 410: CMCON = 7;
  2869  002D2A  0E07               	movlw	7
  2870  002D2C  6EB4               	movwf	4020,c	;volatile
  2871                           
  2872                           ;main.c: 411: TRISA = 0x3F;
  2873  002D2E  0E3F               	movlw	63
  2874  002D30  6E92               	movwf	3986,c	;volatile
  2875                           
  2876                           ;main.c: 413: PORTB = 0;
  2877  002D32  0E00               	movlw	0
  2878  002D34  6E81               	movwf	3969,c	;volatile
  2879                           
  2880                           ;main.c: 414: TRISB = 0b11010101;
  2881  002D36  0ED5               	movlw	213
  2882  002D38  6E93               	movwf	3987,c	;volatile
  2883                           
  2884                           ;main.c: 415: PORTC = 0;
  2885  002D3A  0E00               	movlw	0
  2886  002D3C  6E82               	movwf	3970,c	;volatile
  2887                           
  2888                           ;main.c: 416: TRISC = 0xFF;
  2889  002D3E  6894               	setf	3988,c	;volatile
  2890                           
  2891                           ;main.c: 417: PORTD = 0;
  2892  002D40  0E00               	movlw	0
  2893  002D42  6E83               	movwf	3971,c	;volatile
  2894                           
  2895                           ;main.c: 418: TRISD = 0;
  2896  002D44  0E00               	movlw	0
  2897  002D46  6E95               	movwf	3989,c	;volatile
  2898                           
  2899                           ;main.c: 419: TRISE = 0;
  2900  002D48  0E00               	movlw	0
  2901  002D4A  6E96               	movwf	3990,c	;volatile
  2902                           
  2903                           ;main.c: 420: PORTE = 0;
  2904  002D4C  0E00               	movlw	0
  2905  002D4E  6E84               	movwf	3972,c	;volatile
  2906                           
  2907                           ;main.c: 423: SPBRGH = 2;
  2908  002D50  0E02               	movlw	2
  2909  002D52  6EB0               	movwf	4016,c	;volatile
  2910                           
  2911                           ;main.c: 424: SPBRG = 8;
  2912  002D54  0E08               	movlw	8
  2913  002D56  6EAF               	movwf	4015,c	;volatile
  2914                           
  2915                           ;main.c: 425: BAUDCONbits.BRG16 = 1;
  2916  002D58  86B8               	bsf	4024,3,c	;volatile
  2917                           
  2918                           ;main.c: 426: TXSTAbits.BRGH = 1;
  2919  002D5A  84AC               	bsf	4012,2,c	;volatile
  2920                           
  2921                           ;main.c: 427: TXSTAbits.TXEN = 1;
  2922  002D5C  8AAC               	bsf	4012,5,c	;volatile
  2923                           
  2924                           ;main.c: 428: RCSTAbits.SPEN = 1;
  2925  002D5E  8EAB               	bsf	4011,7,c	;volatile
  2926                           
  2927                           ;main.c: 429: RCSTAbits.CREN = 1;
  2928  002D60  88AB               	bsf	4011,4,c	;volatile
  2929                           
  2930                           ;main.c: 430: IPR1bits.RCIP = 0;
  2931  002D62  9A9F               	bcf	3999,5,c	;volatile
  2932                           
  2933                           ;main.c: 431: PIE1bits.RCIE = 0;
  2934  002D64  9A9D               	bcf	3997,5,c	;volatile
  2935                           
  2936                           ;main.c: 433: ADCON0bits.ADON = 1;
  2937  002D66  80C2               	bsf	4034,0,c	;volatile
  2938                           
  2939                           ;main.c: 436: T0CON = 0b11000110;
  2940  002D68  0EC6               	movlw	198
  2941  002D6A  6ED5               	movwf	4053,c	;volatile
  2942                           
  2943                           ;main.c: 437: TMR0L = 60;
  2944  002D6C  0E3C               	movlw	60
  2945  002D6E  6ED6               	movwf	4054,c	;volatile
  2946                           
  2947                           ;main.c: 438: INTCON2bits.T0IP = 1;
  2948  002D70  84F1               	bsf	intcon2,2,c	;volatile
  2949                           
  2950                           ;main.c: 439: INTCONbits.TMR0IE = 1;
  2951  002D72  8AF2               	bsf	intcon,5,c	;volatile
  2952                           
  2953                           ;main.c: 441: PR2 = 0xFF;
  2954  002D74  68CB               	setf	4043,c	;volatile
  2955                           
  2956                           ;main.c: 442: CCPR2L = 0x7F;
  2957  002D76  0E7F               	movlw	127
  2958  002D78  6EBB               	movwf	4027,c	;volatile
  2959                           
  2960                           ;main.c: 443: T2CON = 0x04;
  2961  002D7A  0E04               	movlw	4
  2962  002D7C  6ECA               	movwf	4042,c	;volatile
  2963                           
  2964                           ;main.c: 444: CCP2CON = 0x0F;
  2965  002D7E  0E0F               	movlw	15
  2966  002D80  6EBA               	movwf	4026,c	;volatile
  2967                           
  2968                           ;main.c: 447: T3CON = 0b11111001;
  2969  002D82  0EF9               	movlw	249
  2970  002D84  6EB1               	movwf	4017,c	;volatile
  2971                           
  2972                           ;main.c: 448: PIE2bits.TMR3IE = 1;
  2973  002D86  82A0               	bsf	4000,1,c	;volatile
  2974                           
  2975                           ;main.c: 449: IPR2bits.TMR3IP = 0;
  2976  002D88  92A2               	bcf	4002,1,c	;volatile
  2977                           
  2978                           ;main.c: 451: CCP1CON = 0b00000101;
  2979  002D8A  0E05               	movlw	5
  2980  002D8C  6EBD               	movwf	4029,c	;volatile
  2981                           
  2982                           ;main.c: 452: IPR1bits.CCP1IP = 0;
  2983  002D8E  949F               	bcf	3999,2,c	;volatile
  2984                           
  2985                           ;main.c: 453: PIE1bits.CCP1IE = 1;
  2986  002D90  849D               	bsf	3997,2,c	;volatile
  2987                           
  2988                           ;main.c: 456: RCONbits.IPEN = 1;
  2989  002D92  8ED0               	bsf	4048,7,c	;volatile
  2990                           
  2991                           ;main.c: 457: INTCONbits.GIEH = 1;
  2992  002D94  8EF2               	bsf	intcon,7,c	;volatile
  2993                           
  2994                           ;main.c: 458: INTCONbits.GIEL = 1;
  2995  002D96  8CF2               	bsf	intcon,6,c	;volatile
  2996  002D98  0012               	return		;funcret
  2997  002D9A                     __end_of_Inicializacao:
  2998                           	opt stack 0
  2999                           tblptru	equ	0xFF8
  3000                           prodh	equ	0xFF4
  3001                           prodl	equ	0xFF3
  3002                           intcon	equ	0xFF2
  3003                           intcon2	equ	0xFF1
  3004                           postinc0	equ	0xFEE
  3005                           wreg	equ	0xFE8
  3006                           indf2	equ	0xFDF
  3007                           fsr2h	equ	0xFDA
  3008                           fsr2l	equ	0xFD9
  3009                           status	equ	0xFD8
  3010                           
  3011 ;; *************** function _ExecutaBrassagem *****************
  3012 ;; Defined at:
  3013 ;;		line 72 in file "brassagem.c"
  3014 ;; Parameters:    Size  Location     Type
  3015 ;;		None
  3016 ;; Auto vars:     Size  Location     Type
  3017 ;;  temp            2   42[BANK1 ] unsigned int 
  3018 ;;  MinutosEtapa    1   44[BANK1 ] unsigned char 
  3019 ;; Return value:  Size  Location     Type
  3020 ;;		None               void
  3021 ;; Registers used:
  3022 ;;		wreg, fsr2l, fsr2h, status,2, status,0, prodl, prodh, cstack
  3023 ;; Tracked objects:
  3024 ;;		On entry : 0/0
  3025 ;;		On exit  : 0/0
  3026 ;;		Unchanged: 0/0
  3027 ;; Data sizes:     COMRAM   BANK0   BANK1   BANK2   BANK3   BANK4   BANK5   BANK6   BANK7
  3028 ;;      Params:         0       0       0       0       0       0       0       0       0
  3029 ;;      Locals:         0       0       3       0       0       0       0       0       0
  3030 ;;      Temps:          0       0       6       0       0       0       0       0       0
  3031 ;;      Totals:         0       0       9       0       0       0       0       0       0
  3032 ;;Total ram usage:        9 bytes
  3033 ;; Hardware stack levels used:    1
  3034 ;; Hardware stack levels required when called:    6
  3035 ;; This function calls:
  3036 ;;		_AcionaValvulaMotorizada
  3037 ;;		_Bipar
  3038 ;;		_DelaySeg
  3039 ;;		_EscreverDWINram
  3040 ;;		_EscreverDWINreg
  3041 ;;		_EscreverDWINtrend
  3042 ;;		_LerDWINram
  3043 ;;		_LerDWINreg
  3044 ;;		___awdiv
  3045 ;;		___ftge
  3046 ;;		___ftmul
  3047 ;;		___lbtoft
  3048 ;;		___lwdiv
  3049 ;;		___lwtoft
  3050 ;;		___wmul
  3051 ;; This function is called by:
  3052 ;;		_main
  3053 ;; This function uses a non-reentrant model
  3054 ;;
  3055                           
  3056                           	psect	text6
  3057  00015E                     __ptext6:
  3058                           	opt stack 0
  3059  00015E                     _ExecutaBrassagem:
  3060                           	opt stack 24
  3061                           
  3062                           ;brassagem.c: 74: enum EstadosBrassagem{AGUARDASTART,MODOENCHIMENTO,ENCHERBOILERAGUAPRIM
      +                          ARIA,DOSARAGUAPRIMARIA,CICLABOMBA,MASHIN,ADICIONARMALTE,DESCANSOMASHIN,PREFASE1,FASE1,PR
      +                          EFASE2,FASE2,PREFASE3,FASE3,PREFASE4,FASE4,PREFASE5,FASE5,TESTEIODO,PREMASHOUT,MASHOUT,R
      +                          ETIR
  3063                           ;brassagem.c: 75: enum EstadosBomba{CENTRAL,EXTERNO,NIVEL};
  3064                           ;brassagem.c: 76: static unsigned char EstadoBrassagem = AGUARDASTART;
  3065                           ;brassagem.c: 77: static unsigned char EstadoBomba = CENTRAL;
  3066                           ;brassagem.c: 78: unsigned int temp;
  3067                           ;brassagem.c: 79: unsigned char MinutosEtapa;
  3068                           
  3069                           ;incstack = 0
  3070  00015E  0E00               	movlw	0
  3071  000160  0101               	movlb	1	; () banked
  3072  000162  6F60               	movwf	(EscreverDWINram@endereco+1)& (0+255),b
  3073  000164  0E32               	movlw	50
  3074  000166  6F5F               	movwf	EscreverDWINram@endereco& (0+255),b
  3075  000168  C001  F161         	movff	_ValoresAD,EscreverDWINram@valor
  3076  00016C  C002  F162         	movff	_ValoresAD+1,EscreverDWINram@valor+1
  3077  000170  ECCD  F016         	call	_EscreverDWINram	;wreg free
  3078                           
  3079                           ;brassagem.c: 82: EscreverDWINram(0x52,SetPointTempPanela);
  3080  000174  0E00               	movlw	0
  3081  000176  0101               	movlb	1	; () banked
  3082  000178  6F60               	movwf	(EscreverDWINram@endereco+1)& (0+255),b
  3083  00017A  0E52               	movlw	82
  3084  00017C  6F5F               	movwf	EscreverDWINram@endereco& (0+255),b
  3085  00017E  C01F  F161         	movff	_SetPointTempPanela,EscreverDWINram@valor
  3086  000182  0101               	movlb	1	; () banked
  3087  000184  6B62               	clrf	(EscreverDWINram@valor+1)& (0+255),b
  3088  000186  ECCD  F016         	call	_EscreverDWINram	;wreg free
  3089                           
  3090                           ;brassagem.c: 84: if((EstadoBrassagem >= MASHIN) && (EstadoBrassagem <= WHIRLPOOL)){
  3091  00018A  0E04               	movlw	4
  3092  00018C  0100               	movlb	0	; () banked
  3093  00018E  6596               	cpfsgt	ExecutaBrassagem@EstadoBrassagem& (0+255),b
  3094  000190  D01B               	goto	l5933
  3095                           
  3096                           ; BSR set to: 0
  3097  000192  0E1F               	movlw	31
  3098  000194  0100               	movlb	0	; () banked
  3099  000196  6196               	cpfslt	ExecutaBrassagem@EstadoBrassagem& (0+255),b
  3100  000198  D017               	goto	l5933
  3101                           
  3102                           ; BSR set to: 0
  3103                           ;brassagem.c: 85: EscreverDWINram(0x33,TotalHoras);
  3104  00019A  0E00               	movlw	0
  3105  00019C  0101               	movlb	1	; () banked
  3106  00019E  6F60               	movwf	(EscreverDWINram@endereco+1)& (0+255),b
  3107  0001A0  0E33               	movlw	51
  3108  0001A2  6F5F               	movwf	EscreverDWINram@endereco& (0+255),b
  3109  0001A4  C0A0  F161         	movff	_TotalHoras,EscreverDWINram@valor
  3110  0001A8  0101               	movlb	1	; () banked
  3111  0001AA  6B62               	clrf	(EscreverDWINram@valor+1)& (0+255),b
  3112  0001AC  ECCD  F016         	call	_EscreverDWINram	;wreg free
  3113                           
  3114                           ;brassagem.c: 86: EscreverDWINram(0x34,TotalMinutos);
  3115  0001B0  0E00               	movlw	0
  3116  0001B2  0101               	movlb	1	; () banked
  3117  0001B4  6F60               	movwf	(EscreverDWINram@endereco+1)& (0+255),b
  3118  0001B6  0E34               	movlw	52
  3119  0001B8  6F5F               	movwf	EscreverDWINram@endereco& (0+255),b
  3120  0001BA  C022  F161         	movff	_TotalMinutos,EscreverDWINram@valor
  3121  0001BE  0101               	movlb	1	; () banked
  3122  0001C0  6B62               	clrf	(EscreverDWINram@valor+1)& (0+255),b
  3123  0001C2  ECCD  F016         	call	_EscreverDWINram	;wreg free
  3124  0001C6  D000               	goto	l5933
  3125  0001C8                     l5933:
  3126                           
  3127                           ;brassagem.c: 87: }
  3128                           ;brassagem.c: 89: if( ((EstadoBrassagem >= MASHIN) && (EstadoBrassagem <= MASHOUT) && (E
      +                          stadoBomba == CENTRAL)) || ((EstadoBrassagem >= PREFERVURA) && (EstadoBrassagem <= FERVU
      +                          RA)) ){
  3129  0001C8  0E04               	movlw	4
  3130  0001CA  0100               	movlb	0	; () banked
  3131  0001CC  6596               	cpfsgt	ExecutaBrassagem@EstadoBrassagem& (0+255),b
  3132  0001CE  D009               	goto	l5939
  3133                           
  3134                           ; BSR set to: 0
  3135  0001D0  0E15               	movlw	21
  3136  0001D2  0100               	movlb	0	; () banked
  3137  0001D4  6196               	cpfslt	ExecutaBrassagem@EstadoBrassagem& (0+255),b
  3138  0001D6  D005               	goto	l5939
  3139                           
  3140                           ; BSR set to: 0
  3141  0001D8  0100               	movlb	0	; () banked
  3142  0001DA  5195               	movf	ExecutaBrassagem@EstadoBomba& (0+255),w,b
  3143  0001DC  0100               	movlb	0	; () banked
  3144  0001DE  B4D8               	btfsc	status,2,c
  3145  0001E0  D009               	goto	l5943
  3146  0001E2                     l5939:
  3147                           
  3148                           ; BSR set to: 0
  3149  0001E2  0E19               	movlw	25
  3150  0001E4  0100               	movlb	0	; () banked
  3151  0001E6  6596               	cpfsgt	ExecutaBrassagem@EstadoBrassagem& (0+255),b
  3152  0001E8  D029               	goto	l5947
  3153                           
  3154                           ; BSR set to: 0
  3155  0001EA  0E1C               	movlw	28
  3156  0001EC  0100               	movlb	0	; () banked
  3157  0001EE  6196               	cpfslt	ExecutaBrassagem@EstadoBrassagem& (0+255),b
  3158  0001F0  D025               	goto	l5947
  3159  0001F2  D000               	goto	l5943
  3160  0001F4                     l5943:
  3161                           
  3162                           ; BSR set to: 0
  3163                           ;brassagem.c: 90: temp = LerDWINram(0x39) * 255;
  3164  0001F4  0E00               	movlw	0
  3165  0001F6  0101               	movlb	1	; () banked
  3166  0001F8  6F53               	movwf	(LerDWINram@endereco+1)& (0+255),b
  3167  0001FA  0E39               	movlw	57
  3168  0001FC  6F52               	movwf	LerDWINram@endereco& (0+255),b
  3169  0001FE  ECB4  F014         	call	_LerDWINram	;wreg free
  3170  000202  C152  F157         	movff	?_LerDWINram,___wmul@multiplier
  3171  000206  C153  F158         	movff	?_LerDWINram+1,___wmul@multiplier+1
  3172  00020A  0E00               	movlw	0
  3173  00020C  0101               	movlb	1	; () banked
  3174  00020E  6F5A               	movwf	(___wmul@multiplicand+1)& (0+255),b
  3175  000210  6959               	setf	___wmul@multiplicand& (0+255),b
  3176  000212  ECF2  F017         	call	___wmul	;wreg free
  3177  000216  C157  F17A         	movff	?___wmul,ExecutaBrassagem@temp
  3178  00021A  C158  F17B         	movff	?___wmul+1,ExecutaBrassagem@temp+1
  3179                           
  3180                           ;brassagem.c: 91: CCPR2L = temp / 100;
  3181  00021E  C17A  F150         	movff	ExecutaBrassagem@temp,___lwdiv@dividend
  3182  000222  C17B  F151         	movff	ExecutaBrassagem@temp+1,___lwdiv@dividend+1
  3183  000226  0E00               	movlw	0
  3184  000228  0101               	movlb	1	; () banked
  3185  00022A  6F53               	movwf	(___lwdiv@divisor+1)& (0+255),b
  3186  00022C  0E64               	movlw	100
  3187  00022E  6F52               	movwf	___lwdiv@divisor& (0+255),b
  3188  000230  EC0B  F016         	call	___lwdiv	;wreg free
  3189  000234  0101               	movlb	1	; () banked
  3190  000236  5150               	movf	?___lwdiv& (0+255),w,b
  3191  000238  6EBB               	movwf	4027,c	;volatile
  3192  00023A  D000               	goto	l5947
  3193  00023C                     l5947:
  3194                           
  3195                           ;brassagem.c: 92: }
  3196                           ;brassagem.c: 94: if(EstadoBrassagem == FERVURA){
  3197  00023C  0E1B               	movlw	27
  3198  00023E  0100               	movlb	0	; () banked
  3199  000240  1996               	xorwf	ExecutaBrassagem@EstadoBrassagem& (0+255),w,b
  3200  000242  A4D8               	btfss	status,2,c
  3201  000244  D012               	goto	l5951
  3202                           
  3203                           ; BSR set to: 0
  3204                           ;brassagem.c: 95: PWMpanela = LerDWINram(0x2B)*2 - 1;
  3205  000246  0E00               	movlw	0
  3206  000248  0101               	movlb	1	; () banked
  3207  00024A  6F53               	movwf	(LerDWINram@endereco+1)& (0+255),b
  3208  00024C  0E2B               	movlw	43
  3209  00024E  6F52               	movwf	LerDWINram@endereco& (0+255),b
  3210  000250  ECB4  F014         	call	_LerDWINram	;wreg free
  3211  000254  0101               	movlb	1	; () banked
  3212  000256  90D8               	bcf	status,0,c
  3213  000258  0101               	movlb	1	; () banked
  3214  00025A  3552               	rlcf	?_LerDWINram& (0+255),w,b
  3215  00025C  0101               	movlb	1	; () banked
  3216  00025E  6F74               	movwf	??_ExecutaBrassagem& (0+255),b
  3217  000260  0101               	movlb	1	; () banked
  3218  000262  0574               	decf	??_ExecutaBrassagem& (0+255),w,b
  3219  000264  0100               	movlb	0	; () banked
  3220  000266  6FE4               	movwf	_PWMpanela& (0+255),b
  3221                           
  3222                           ;brassagem.c: 96: }
  3223  000268  D017               	goto	l5953
  3224  00026A                     l5951:
  3225                           
  3226                           ; BSR set to: 0
  3227                           ;brassagem.c: 97: else{
  3228                           ;brassagem.c: 98: EscreverDWINram(0x2B,PWMpanela/2);
  3229  00026A  0E00               	movlw	0
  3230  00026C  0101               	movlb	1	; () banked
  3231  00026E  6F60               	movwf	(EscreverDWINram@endereco+1)& (0+255),b
  3232  000270  0E2B               	movlw	43
  3233  000272  6F5F               	movwf	EscreverDWINram@endereco& (0+255),b
  3234  000274  C0E4  F157         	movff	_PWMpanela,___awdiv@dividend
  3235  000278  0101               	movlb	1	; () banked
  3236  00027A  6B58               	clrf	(___awdiv@dividend+1)& (0+255),b
  3237  00027C  0E00               	movlw	0
  3238  00027E  0101               	movlb	1	; () banked
  3239  000280  6F5A               	movwf	(___awdiv@divisor+1)& (0+255),b
  3240  000282  0E02               	movlw	2
  3241  000284  6F59               	movwf	___awdiv@divisor& (0+255),b
  3242  000286  ECE5  F013         	call	___awdiv	;wreg free
  3243  00028A  C157  F161         	movff	?___awdiv,EscreverDWINram@valor
  3244  00028E  C158  F162         	movff	?___awdiv+1,EscreverDWINram@valor+1
  3245  000292  ECCD  F016         	call	_EscreverDWINram	;wreg free
  3246  000296  D000               	goto	l5953
  3247  000298                     l5953:
  3248                           
  3249                           ;brassagem.c: 99: }
  3250                           ;brassagem.c: 101: if((EstadoBrassagem >= PREFASE1) && (EstadoBrassagem <= MASHOUT)){
  3251  000298  0E07               	movlw	7
  3252  00029A  0100               	movlb	0	; () banked
  3253  00029C  6596               	cpfsgt	ExecutaBrassagem@EstadoBrassagem& (0+255),b
  3254  00029E  D04D               	goto	l577
  3255                           
  3256                           ; BSR set to: 0
  3257  0002A0  0E15               	movlw	21
  3258  0002A2  0100               	movlb	0	; () banked
  3259  0002A4  6196               	cpfslt	ExecutaBrassagem@EstadoBrassagem& (0+255),b
  3260  0002A6  D049               	goto	l577
  3261                           
  3262                           ; BSR set to: 0
  3263                           ;brassagem.c: 102: switch(EstadoBomba){
  3264  0002A8  D03C               	goto	l5981
  3265  0002AA                     l5959:
  3266                           
  3267                           ; BSR set to: 0
  3268                           ;brassagem.c: 104: if(MinutosBomba >= TonBomba){
  3269  0002AA  0100               	movlb	0	; () banked
  3270  0002AC  519F               	movf	_TonBomba& (0+255),w,b
  3271  0002AE  0100               	movlb	0	; () banked
  3272  0002B0  5D99               	subwf	_MinutosBomba& (0+255),w,b
  3273  0002B2  A0D8               	btfss	status,0,c
  3274  0002B4  D042               	goto	l577
  3275                           
  3276                           ; BSR set to: 0
  3277                           ;brassagem.c: 105: MinutosBomba = 0;
  3278  0002B6  0E00               	movlw	0
  3279  0002B8  0100               	movlb	0	; () banked
  3280  0002BA  6F99               	movwf	_MinutosBomba& (0+255),b
  3281                           
  3282                           ;brassagem.c: 106: CCPR2L = 0;
  3283  0002BC  0E00               	movlw	0
  3284  0002BE  6EBB               	movwf	4027,c	;volatile
  3285                           
  3286                           ;brassagem.c: 107: EstadoBomba = NIVEL;
  3287  0002C0  0E02               	movlw	2
  3288  0002C2  D02C               	goto	L5
  3289                           
  3290                           ; BSR set to: 0
  3291                           ;brassagem.c: 108: }
  3292                           ;brassagem.c: 109: break;
  3293  0002C4  D03A               	goto	l577
  3294  0002C6                     l5963:
  3295                           
  3296                           ; BSR set to: 0
  3297                           ;brassagem.c: 111: if(MinutosBomba >= ToffBomba){
  3298  0002C6  0100               	movlb	0	; () banked
  3299  0002C8  519E               	movf	_ToffBomba& (0+255),w,b
  3300  0002CA  0100               	movlb	0	; () banked
  3301  0002CC  5D99               	subwf	_MinutosBomba& (0+255),w,b
  3302  0002CE  A0D8               	btfss	status,0,c
  3303  0002D0  D034               	goto	l577
  3304                           
  3305                           ; BSR set to: 0
  3306                           ;brassagem.c: 112: AcionaValvulaMotorizada(1,0b00010000);
  3307  0002D2  0E10               	movlw	16
  3308  0002D4  0101               	movlb	1	; () banked
  3309  0002D6  6F54               	movwf	AcionaValvulaMotorizada@valvula& (0+255),b
  3310  0002D8  0E01               	movlw	1
  3311  0002DA  EC6A  F015         	call	_AcionaValvulaMotorizada
  3312                           
  3313                           ;brassagem.c: 113: AcionaValvulaMotorizada(0,0b00100000);
  3314  0002DE  0E20               	movlw	32
  3315  0002E0  0101               	movlb	1	; () banked
  3316  0002E2  6F54               	movwf	AcionaValvulaMotorizada@valvula& (0+255),b
  3317  0002E4  0E00               	movlw	0
  3318  0002E6  EC6A  F015         	call	_AcionaValvulaMotorizada
  3319                           
  3320                           ;brassagem.c: 114: MinutosBomba = 0;
  3321  0002EA  0E00               	movlw	0
  3322  0002EC  0100               	movlb	0	; () banked
  3323  0002EE  6F99               	movwf	_MinutosBomba& (0+255),b
  3324                           
  3325                           ; BSR set to: 0
  3326                           ;brassagem.c: 115: EstadoBomba = CENTRAL;
  3327  0002F0  0E00               	movlw	0
  3328  0002F2  D014               	goto	L5
  3329                           
  3330                           ; BSR set to: 0
  3331                           ;brassagem.c: 116: }
  3332                           ;brassagem.c: 117: break;
  3333  0002F4  D022               	goto	l577
  3334  0002F6                     l5971:
  3335                           
  3336                           ; BSR set to: 0
  3337                           ;brassagem.c: 119: if(MinutosBomba >= 1){
  3338  0002F6  0100               	movlb	0	; () banked
  3339  0002F8  5199               	movf	_MinutosBomba& (0+255),w,b
  3340  0002FA  B4D8               	btfsc	status,2,c
  3341  0002FC  D01E               	goto	l577
  3342                           
  3343                           ; BSR set to: 0
  3344                           ;brassagem.c: 120: AcionaValvulaMotorizada(1,0b00100000);
  3345  0002FE  0E20               	movlw	32
  3346  000300  0101               	movlb	1	; () banked
  3347  000302  6F54               	movwf	AcionaValvulaMotorizada@valvula& (0+255),b
  3348  000304  0E01               	movlw	1
  3349  000306  EC6A  F015         	call	_AcionaValvulaMotorizada
  3350                           
  3351                           ;brassagem.c: 121: AcionaValvulaMotorizada(0,0b00010000);
  3352  00030A  0E10               	movlw	16
  3353  00030C  0101               	movlb	1	; () banked
  3354  00030E  6F54               	movwf	AcionaValvulaMotorizada@valvula& (0+255),b
  3355  000310  0E00               	movlw	0
  3356  000312  EC6A  F015         	call	_AcionaValvulaMotorizada
  3357                           
  3358                           ;brassagem.c: 122: CCPR2L = 85;
  3359  000316  0E55               	movlw	85
  3360  000318  6EBB               	movwf	4027,c	;volatile
  3361                           
  3362                           ;brassagem.c: 123: EstadoBomba = EXTERNO;
  3363  00031A  0E01               	movlw	1
  3364  00031C                     L5:
  3365  00031C  0100               	movlb	0	; () banked
  3366  00031E  6F95               	movwf	ExecutaBrassagem@EstadoBomba& (0+255),b
  3367                           
  3368                           ; BSR set to: 0
  3369                           ;brassagem.c: 126: }
  3370                           
  3371                           ; BSR set to: 0
  3372                           ;brassagem.c: 124: }
  3373                           ;brassagem.c: 125: break;
  3374  000320  D00C               	goto	l577
  3375  000322                     l5981:
  3376                           
  3377                           ; BSR set to: 0
  3378  000322  0100               	movlb	0	; () banked
  3379  000324  5195               	movf	ExecutaBrassagem@EstadoBomba& (0+255),w,b
  3380                           
  3381                           ; Switch size 1, requested type "space"
  3382                           ; Number of cases is 3, Range of values is 0 to 2
  3383                           ; switch strategies available:
  3384                           ; Name         Instructions Cycles
  3385                           ; simple_byte           10     6 (average)
  3386                           ;	Chosen strategy is simple_byte
  3387  000326  0A00               	xorlw	0	; case 0
  3388  000328  B4D8               	btfsc	status,2,c
  3389  00032A  D7BF               	goto	l5959
  3390  00032C  0A01               	xorlw	1	; case 1
  3391  00032E  B4D8               	btfsc	status,2,c
  3392  000330  D7CA               	goto	l5963
  3393  000332  0A03               	xorlw	3	; case 2
  3394  000334  B4D8               	btfsc	status,2,c
  3395  000336  D7DF               	goto	l5971
  3396  000338  D000               	goto	l577
  3397  00033A                     l577:
  3398                           
  3399                           ; BSR set to: 0
  3400                           ;brassagem.c: 127: }
  3401                           ;brassagem.c: 129: if(EnviaDadoTrend){
  3402  00033A  A244               	btfss	_EnviaDadoTrend/(0+8),_EnviaDadoTrend& (0+7),c
  3403  00033C  EF22  F00A         	goto	l6725
  3404                           
  3405                           ; BSR set to: 0
  3406                           ;brassagem.c: 130: EnviaDadoTrend = 0;
  3407  000340  9244               	bcf	_EnviaDadoTrend/(0+8),_EnviaDadoTrend& (0+7),c
  3408                           
  3409                           ; BSR set to: 0
  3410                           ;brassagem.c: 131: if((EstadoBrassagem >= MASHIN) && (EstadoBrassagem <= WHIRLPOOL)){
  3411  000342  0E04               	movlw	4
  3412  000344  0100               	movlb	0	; () banked
  3413  000346  6596               	cpfsgt	ExecutaBrassagem@EstadoBrassagem& (0+255),b
  3414  000348  EF22  F00A         	goto	l6725
  3415                           
  3416                           ; BSR set to: 0
  3417  00034C  0E1F               	movlw	31
  3418  00034E  0100               	movlb	0	; () banked
  3419  000350  6196               	cpfslt	ExecutaBrassagem@EstadoBrassagem& (0+255),b
  3420  000352  EF22  F00A         	goto	l6725
  3421                           
  3422                           ; BSR set to: 0
  3423                           ;brassagem.c: 132: if(ValoresAD[0]>400)
  3424  000356  0E91               	movlw	145
  3425  000358  5C01               	subwf	_ValoresAD,w,c
  3426  00035A  0E01               	movlw	1
  3427  00035C  5802               	subwfb	_ValoresAD+1,w,c
  3428  00035E  A0D8               	btfss	status,0,c
  3429  000360  EF22  F00A         	goto	l6725
  3430                           
  3431                           ; BSR set to: 0
  3432                           ;brassagem.c: 133: EscreverDWINtrend(ValoresAD[0]);
  3433  000364  C001  F152         	movff	_ValoresAD,EscreverDWINtrend@valor
  3434  000368  C002  F153         	movff	_ValoresAD+1,EscreverDWINtrend@valor+1
  3435  00036C  EC6B  F017         	call	_EscreverDWINtrend	;wreg free
  3436                           
  3437                           ;brassagem.c: 134: }
  3438                           ;brassagem.c: 135: }
  3439                           ;brassagem.c: 137: switch(EstadoBrassagem){
  3440  000370  EF22  F00A         	goto	l6725
  3441  000374                     l5993:
  3442                           
  3443                           ;brassagem.c: 139: CanalADAtivo = 0;
  3444  000374  0E00               	movlw	0
  3445  000376  0100               	movlb	0	; () banked
  3446  000378  6FE3               	movwf	_CanalADAtivo& (0+255),b
  3447                           
  3448                           ; BSR set to: 0
  3449                           ;brassagem.c: 140: EscreverDWINram(0x39,0);
  3450  00037A  0E00               	movlw	0
  3451  00037C  0101               	movlb	1	; () banked
  3452  00037E  6F60               	movwf	(EscreverDWINram@endereco+1)& (0+255),b
  3453  000380  0E39               	movlw	57
  3454  000382  6F5F               	movwf	EscreverDWINram@endereco& (0+255),b
  3455  000384  0E00               	movlw	0
  3456  000386  0101               	movlb	1	; () banked
  3457  000388  6F62               	movwf	(EscreverDWINram@valor+1)& (0+255),b
  3458  00038A  0E00               	movlw	0
  3459  00038C  6F61               	movwf	EscreverDWINram@valor& (0+255),b
  3460  00038E  ECCD  F016         	call	_EscreverDWINram	;wreg free
  3461                           
  3462                           ;brassagem.c: 141: EscreverDWINram(0x31,0);
  3463  000392  0E00               	movlw	0
  3464  000394  0101               	movlb	1	; () banked
  3465  000396  6F60               	movwf	(EscreverDWINram@endereco+1)& (0+255),b
  3466  000398  0E31               	movlw	49
  3467  00039A  6F5F               	movwf	EscreverDWINram@endereco& (0+255),b
  3468  00039C  0E00               	movlw	0
  3469  00039E  0101               	movlb	1	; () banked
  3470  0003A0  6F62               	movwf	(EscreverDWINram@valor+1)& (0+255),b
  3471  0003A2  0E00               	movlw	0
  3472  0003A4  6F61               	movwf	EscreverDWINram@valor& (0+255),b
  3473  0003A6  ECCD  F016         	call	_EscreverDWINram	;wreg free
  3474                           
  3475                           ;brassagem.c: 142: SetPointTempPanela = 0;
  3476  0003AA  0E00               	movlw	0
  3477  0003AC  6E1F               	movwf	_SetPointTempPanela,c
  3478                           
  3479                           ;brassagem.c: 143: if(PORTCbits.RC2){
  3480  0003AE  A482               	btfss	3970,2,c	;volatile
  3481  0003B0  EFA0  F00A         	goto	l690
  3482                           
  3483                           ;brassagem.c: 144: EscreverDWINreg(3,24);
  3484  0003B4  0E00               	movlw	0
  3485  0003B6  0101               	movlb	1	; () banked
  3486  0003B8  6F53               	movwf	(EscreverDWINreg@valor+1)& (0+255),b
  3487  0003BA  0E18               	movlw	24
  3488  0003BC  6F52               	movwf	EscreverDWINreg@valor& (0+255),b
  3489  0003BE  0E03               	movlw	3
  3490  0003C0  EC03  F017         	call	_EscreverDWINreg
  3491                           
  3492                           ;brassagem.c: 145: EstadoBomba = CENTRAL;
  3493  0003C4  0E00               	movlw	0
  3494  0003C6  0100               	movlb	0	; () banked
  3495  0003C8  6F95               	movwf	ExecutaBrassagem@EstadoBomba& (0+255),b
  3496                           
  3497                           ; BSR set to: 0
  3498                           ;brassagem.c: 146: EstadoBrassagem = MODOENCHIMENTO;
  3499  0003CA  0E01               	movlw	1
  3500  0003CC  EF45  F006         	goto	L30
  3501                           
  3502                           ; BSR set to: 0
  3503                           ;brassagem.c: 147: }
  3504                           ;brassagem.c: 148: break;
  3505  0003D0  EFA0  F00A         	goto	l690
  3506  0003D4                     l6007:
  3507                           
  3508                           ; BSR set to: 0
  3509                           ;brassagem.c: 150: temp = LerDWINram(0x26);
  3510  0003D4  0E00               	movlw	0
  3511  0003D6  0101               	movlb	1	; () banked
  3512  0003D8  6F53               	movwf	(LerDWINram@endereco+1)& (0+255),b
  3513  0003DA  0E26               	movlw	38
  3514  0003DC  6F52               	movwf	LerDWINram@endereco& (0+255),b
  3515  0003DE  ECB4  F014         	call	_LerDWINram	;wreg free
  3516  0003E2  C152  F17A         	movff	?_LerDWINram,ExecutaBrassagem@temp
  3517  0003E6  C153  F17B         	movff	?_LerDWINram+1,ExecutaBrassagem@temp+1
  3518                           
  3519                           ;brassagem.c: 151: if(temp == 0b00000100){
  3520  0003EA  0E04               	movlw	4
  3521  0003EC  0101               	movlb	1	; () banked
  3522  0003EE  197A               	xorwf	ExecutaBrassagem@temp& (0+255),w,b
  3523  0003F0  0101               	movlb	1	; () banked
  3524  0003F2  117B               	iorwf	(ExecutaBrassagem@temp+1)& (0+255),w,b
  3525  0003F4  A4D8               	btfss	status,2,c
  3526  0003F6  D032               	goto	l6021
  3527                           
  3528                           ; BSR set to: 1
  3529                           ;brassagem.c: 152: EscreverDWINreg(3,6);
  3530  0003F8  0E00               	movlw	0
  3531  0003FA  0101               	movlb	1	; () banked
  3532  0003FC  6F53               	movwf	(EscreverDWINreg@valor+1)& (0+255),b
  3533  0003FE  0E06               	movlw	6
  3534  000400  6F52               	movwf	EscreverDWINreg@valor& (0+255),b
  3535  000402  0E03               	movlw	3
  3536  000404  EC03  F017         	call	_EscreverDWINreg
  3537                           
  3538                           ;brassagem.c: 153: EscreverDWINram(0x26,0);
  3539  000408  0E00               	movlw	0
  3540  00040A  0101               	movlb	1	; () banked
  3541  00040C  6F60               	movwf	(EscreverDWINram@endereco+1)& (0+255),b
  3542  00040E  0E26               	movlw	38
  3543  000410  6F5F               	movwf	EscreverDWINram@endereco& (0+255),b
  3544  000412  0E00               	movlw	0
  3545  000414  0101               	movlb	1	; () banked
  3546  000416  6F62               	movwf	(EscreverDWINram@valor+1)& (0+255),b
  3547  000418  0E00               	movlw	0
  3548  00041A  6F61               	movwf	EscreverDWINram@valor& (0+255),b
  3549  00041C  ECCD  F016         	call	_EscreverDWINram	;wreg free
  3550                           
  3551                           ;brassagem.c: 154: CCPR2L = 0;
  3552  000420  0E00               	movlw	0
  3553  000422  6EBB               	movwf	4027,c	;volatile
  3554                           
  3555                           ;brassagem.c: 155: EscreverDWINram(0x39,0);
  3556  000424  0E00               	movlw	0
  3557  000426  0101               	movlb	1	; () banked
  3558  000428  6F60               	movwf	(EscreverDWINram@endereco+1)& (0+255),b
  3559  00042A  0E39               	movlw	57
  3560  00042C  6F5F               	movwf	EscreverDWINram@endereco& (0+255),b
  3561  00042E  0E00               	movlw	0
  3562  000430  0101               	movlb	1	; () banked
  3563  000432  6F62               	movwf	(EscreverDWINram@valor+1)& (0+255),b
  3564  000434  0E00               	movlw	0
  3565  000436  6F61               	movwf	EscreverDWINram@valor& (0+255),b
  3566  000438  ECCD  F016         	call	_EscreverDWINram	;wreg free
  3567                           
  3568                           ;brassagem.c: 156: AcionaValvulaMotorizada(1,0b00010000);
  3569  00043C  0E10               	movlw	16
  3570  00043E  0101               	movlb	1	; () banked
  3571  000440  6F54               	movwf	AcionaValvulaMotorizada@valvula& (0+255),b
  3572  000442  0E01               	movlw	1
  3573  000444  EC6A  F015         	call	_AcionaValvulaMotorizada
  3574                           
  3575                           ;brassagem.c: 157: AcionaValvulaMotorizada(1,0b00000100);
  3576  000448  0E04               	movlw	4
  3577  00044A  0101               	movlb	1	; () banked
  3578  00044C  6F54               	movwf	AcionaValvulaMotorizada@valvula& (0+255),b
  3579  00044E  0E01               	movlw	1
  3580  000450  EC6A  F015         	call	_AcionaValvulaMotorizada
  3581                           
  3582                           ;brassagem.c: 158: EstadoBrassagem = CICLABOMBA;
  3583  000454  0E04               	movlw	4
  3584  000456  0100               	movlb	0	; () banked
  3585  000458  6F96               	movwf	ExecutaBrassagem@EstadoBrassagem& (0+255),b
  3586  00045A  D000               	goto	l6021
  3587  00045C                     l6021:
  3588                           
  3589                           ;brassagem.c: 159: }
  3590                           ;brassagem.c: 160: if(temp == 0b00001000){
  3591  00045C  0E08               	movlw	8
  3592  00045E  0101               	movlb	1	; () banked
  3593  000460  197A               	xorwf	ExecutaBrassagem@temp& (0+255),w,b
  3594  000462  0101               	movlb	1	; () banked
  3595  000464  117B               	iorwf	(ExecutaBrassagem@temp+1)& (0+255),w,b
  3596  000466  A4D8               	btfss	status,2,c
  3597  000468  EFA0  F00A         	goto	l690
  3598                           
  3599                           ; BSR set to: 1
  3600                           ;brassagem.c: 161: EscreverDWINreg(3,6);
  3601  00046C  0E00               	movlw	0
  3602  00046E  0101               	movlb	1	; () banked
  3603  000470  6F53               	movwf	(EscreverDWINreg@valor+1)& (0+255),b
  3604  000472  0E06               	movlw	6
  3605  000474  6F52               	movwf	EscreverDWINreg@valor& (0+255),b
  3606  000476  0E03               	movlw	3
  3607  000478  EC03  F017         	call	_EscreverDWINreg
  3608                           
  3609                           ;brassagem.c: 162: EscreverDWINram(0x31,1);
  3610  00047C  0E00               	movlw	0
  3611  00047E  0101               	movlb	1	; () banked
  3612  000480  6F60               	movwf	(EscreverDWINram@endereco+1)& (0+255),b
  3613  000482  0E31               	movlw	49
  3614  000484  6F5F               	movwf	EscreverDWINram@endereco& (0+255),b
  3615  000486  0E00               	movlw	0
  3616  000488  0101               	movlb	1	; () banked
  3617  00048A  6F62               	movwf	(EscreverDWINram@valor+1)& (0+255),b
  3618  00048C  0E01               	movlw	1
  3619  00048E  6F61               	movwf	EscreverDWINram@valor& (0+255),b
  3620  000490  ECCD  F016         	call	_EscreverDWINram	;wreg free
  3621                           
  3622                           ;brassagem.c: 163: EscreverDWINram(0x26,0);
  3623  000494  0E00               	movlw	0
  3624  000496  0101               	movlb	1	; () banked
  3625  000498  6F60               	movwf	(EscreverDWINram@endereco+1)& (0+255),b
  3626  00049A  0E26               	movlw	38
  3627  00049C  6F5F               	movwf	EscreverDWINram@endereco& (0+255),b
  3628  00049E  0E00               	movlw	0
  3629  0004A0  0101               	movlb	1	; () banked
  3630  0004A2  6F62               	movwf	(EscreverDWINram@valor+1)& (0+255),b
  3631  0004A4  0E00               	movlw	0
  3632  0004A6  6F61               	movwf	EscreverDWINram@valor& (0+255),b
  3633  0004A8  ECCD  F016         	call	_EscreverDWINram	;wreg free
  3634                           
  3635                           ;brassagem.c: 164: AcionaValvulaMotorizada(1,0b00010000);
  3636  0004AC  0E10               	movlw	16
  3637  0004AE  0101               	movlb	1	; () banked
  3638  0004B0  6F54               	movwf	AcionaValvulaMotorizada@valvula& (0+255),b
  3639  0004B2  0E01               	movlw	1
  3640  0004B4  EC6A  F015         	call	_AcionaValvulaMotorizada
  3641                           
  3642                           ;brassagem.c: 165: TempoEncherVessel = 0;
  3643  0004B8  0E00               	movlw	0
  3644  0004BA  0100               	movlb	0	; () banked
  3645  0004BC  6F92               	movwf	(_TempoEncherVessel+1)& (0+255),b
  3646  0004BE  0E00               	movlw	0
  3647  0004C0  6F91               	movwf	_TempoEncherVessel& (0+255),b
  3648                           
  3649                           ; BSR set to: 0
  3650                           ;brassagem.c: 166: FreeRunSegundos = 0;
  3651  0004C2  0E00               	movlw	0
  3652  0004C4  0100               	movlb	0	; () banked
  3653  0004C6  6F8C               	movwf	(_FreeRunSegundos+1)& (0+255),b
  3654  0004C8  0E00               	movlw	0
  3655  0004CA  6F8B               	movwf	_FreeRunSegundos& (0+255),b
  3656  0004CC  D094               	goto	l6065
  3657                           
  3658                           ; BSR set to: 0
  3659                           ;brassagem.c: 168: }
  3660                           ;brassagem.c: 169: break;
  3661                           
  3662                           ; BSR set to: 0
  3663                           ;brassagem.c: 167: EstadoBrassagem = ENCHERBOILERAGUAPRIMARIA;
  3664  0004CE  EFA0  F00A         	goto	l690
  3665  0004D2                     l596:
  3666                           
  3667                           ; BSR set to: 0
  3668                           ;brassagem.c: 171: if(PORTBbits.RB4){
  3669  0004D2  A881               	btfss	3969,4,c	;volatile
  3670  0004D4  D01C               	goto	l597
  3671                           
  3672                           ; BSR set to: 0
  3673                           ;brassagem.c: 172: PORTDbits.RD0 = 0;
  3674  0004D6  9083               	bcf	3971,0,c	;volatile
  3675                           
  3676                           ; BSR set to: 0
  3677                           ;brassagem.c: 173: FreeRunSegundos = 0;
  3678  0004D8  0E00               	movlw	0
  3679  0004DA  0100               	movlb	0	; () banked
  3680  0004DC  6F8C               	movwf	(_FreeRunSegundos+1)& (0+255),b
  3681  0004DE  0E00               	movlw	0
  3682  0004E0  6F8B               	movwf	_FreeRunSegundos& (0+255),b
  3683                           
  3684                           ;brassagem.c: 174: CCPR2L = 127;
  3685  0004E2  0E7F               	movlw	127
  3686  0004E4  6EBB               	movwf	4027,c	;volatile
  3687                           
  3688                           ; BSR set to: 0
  3689                           ;brassagem.c: 175: EscreverDWINram(0x39,50);
  3690  0004E6  0E00               	movlw	0
  3691  0004E8  0101               	movlb	1	; () banked
  3692  0004EA  6F60               	movwf	(EscreverDWINram@endereco+1)& (0+255),b
  3693  0004EC  0E39               	movlw	57
  3694  0004EE  6F5F               	movwf	EscreverDWINram@endereco& (0+255),b
  3695  0004F0  0E00               	movlw	0
  3696  0004F2  0101               	movlb	1	; () banked
  3697  0004F4  6F62               	movwf	(EscreverDWINram@valor+1)& (0+255),b
  3698  0004F6  0E32               	movlw	50
  3699  0004F8  6F61               	movwf	EscreverDWINram@valor& (0+255),b
  3700  0004FA  ECCD  F016         	call	_EscreverDWINram	;wreg free
  3701                           
  3702                           ;brassagem.c: 176: AcionaValvulaMotorizada(1,0b00000010);
  3703  0004FE  0E02               	movlw	2
  3704  000500  0101               	movlb	1	; () banked
  3705  000502  6F54               	movwf	AcionaValvulaMotorizada@valvula& (0+255),b
  3706  000504  0E01               	movlw	1
  3707  000506  EC6A  F015         	call	_AcionaValvulaMotorizada
  3708                           
  3709                           ;brassagem.c: 177: EstadoBrassagem = DOSARAGUAPRIMARIA;
  3710  00050A  0E03               	movlw	3
  3711  00050C  D3BE               	goto	L30
  3712  00050E                     l597:
  3713                           
  3714                           ; BSR set to: 0
  3715                           ;brassagem.c: 179: else
  3716                           ;brassagem.c: 180: PORTDbits.RD0 = 1;
  3717  00050E  8083               	bsf	3971,0,c	;volatile
  3718                           
  3719                           ; BSR set to: 0
  3720                           ;brassagem.c: 181: break;
  3721  000510  EFA0  F00A         	goto	l690
  3722  000514                     l6043:
  3723                           
  3724                           ; BSR set to: 0
  3725                           ;brassagem.c: 183: if((TempoEncherVessel + FreeRunSegundos) >= ReceitaAtual.VolumeInicia
      +                          l*1.5)
  3726  000514  0100               	movlb	0	; () banked
  3727  000516  518B               	movf	_FreeRunSegundos& (0+255),w,b
  3728  000518  0100               	movlb	0	; () banked
  3729  00051A  2591               	addwf	_TempoEncherVessel& (0+255),w,b
  3730  00051C  0101               	movlb	1	; () banked
  3731  00051E  6F58               	movwf	___lwtoft@c& (0+255),b
  3732  000520  0100               	movlb	0	; () banked
  3733  000522  518C               	movf	(_FreeRunSegundos+1)& (0+255),w,b
  3734  000524  0100               	movlb	0	; () banked
  3735  000526  2192               	addwfc	(_TempoEncherVessel+1)& (0+255),w,b
  3736  000528  0101               	movlb	1	; () banked
  3737  00052A  6F59               	movwf	(___lwtoft@c+1)& (0+255),b
  3738  00052C  EC40  F018         	call	___lwtoft	;wreg free
  3739  000530  C158  F16B         	movff	?___lwtoft,___ftge@ff1
  3740  000534  C159  F16C         	movff	?___lwtoft+1,___ftge@ff1+1
  3741  000538  C15A  F16D         	movff	?___lwtoft+2,___ftge@ff1+2
  3742  00053C  0E00               	movlw	0
  3743  00053E  0101               	movlb	1	; () banked
  3744  000540  6F5F               	movwf	___ftmul@f2& (0+255),b
  3745  000542  0EC0               	movlw	192
  3746  000544  0101               	movlb	1	; () banked
  3747  000546  6F60               	movwf	(___ftmul@f2+1)& (0+255),b
  3748  000548  0E3F               	movlw	63
  3749  00054A  0101               	movlb	1	; () banked
  3750  00054C  6F61               	movwf	(___ftmul@f2+2)& (0+255),b
  3751  00054E  0100               	movlb	0	; () banked
  3752  000550  51B4               	movf	(_ReceitaAtual+19)& (0+255),w,b
  3753  000552  EC28  F018         	call	___lbtoft
  3754  000556  C158  F15C         	movff	?___lbtoft,___ftmul@f1
  3755  00055A  C159  F15D         	movff	?___lbtoft+1,___ftmul@f1+1
  3756  00055E  C15A  F15E         	movff	?___lbtoft+2,___ftmul@f1+2
  3757  000562  EC89  F011         	call	___ftmul	;wreg free
  3758  000566  C15C  F16E         	movff	?___ftmul,___ftge@ff2
  3759  00056A  C15D  F16F         	movff	?___ftmul+1,___ftge@ff2+1
  3760  00056E  C15E  F170         	movff	?___ftmul+2,___ftge@ff2+2
  3761  000572  EC4D  F014         	call	___ftge	;wreg free
  3762  000576  0101               	movlb	1	; () banked
  3763  000578  A0D8               	btfss	status,0,c
  3764  00057A  D01E               	goto	l6055
  3765                           
  3766                           ; BSR set to: 1
  3767                           ;brassagem.c: 184: {
  3768                           ;brassagem.c: 185: AcionaValvulaMotorizada(0,0b00000010);
  3769  00057C  0E02               	movlw	2
  3770  00057E  0101               	movlb	1	; () banked
  3771  000580  6F54               	movwf	AcionaValvulaMotorizada@valvula& (0+255),b
  3772  000582  0E00               	movlw	0
  3773  000584  EC6A  F015         	call	_AcionaValvulaMotorizada
  3774                           
  3775                           ;brassagem.c: 186: CCPR2L = 0;
  3776  000588  0E00               	movlw	0
  3777  00058A  6EBB               	movwf	4027,c	;volatile
  3778                           
  3779                           ;brassagem.c: 187: EscreverDWINram(0x39,0);
  3780  00058C  0E00               	movlw	0
  3781  00058E  0101               	movlb	1	; () banked
  3782  000590  6F60               	movwf	(EscreverDWINram@endereco+1)& (0+255),b
  3783  000592  0E39               	movlw	57
  3784  000594  6F5F               	movwf	EscreverDWINram@endereco& (0+255),b
  3785  000596  0E00               	movlw	0
  3786  000598  0101               	movlb	1	; () banked
  3787  00059A  6F62               	movwf	(EscreverDWINram@valor+1)& (0+255),b
  3788  00059C  0E00               	movlw	0
  3789  00059E  6F61               	movwf	EscreverDWINram@valor& (0+255),b
  3790  0005A0  ECCD  F016         	call	_EscreverDWINram	;wreg free
  3791                           
  3792                           ;brassagem.c: 188: AcionaValvulaMotorizada(1,0b00000100);
  3793  0005A4  0E04               	movlw	4
  3794  0005A6  0101               	movlb	1	; () banked
  3795  0005A8  6F54               	movwf	AcionaValvulaMotorizada@valvula& (0+255),b
  3796  0005AA  0E01               	movlw	1
  3797  0005AC  EC6A  F015         	call	_AcionaValvulaMotorizada
  3798                           
  3799                           ;brassagem.c: 189: EstadoBrassagem = CICLABOMBA;
  3800  0005B0  0E04               	movlw	4
  3801  0005B2  0100               	movlb	0	; () banked
  3802  0005B4  6F96               	movwf	ExecutaBrassagem@EstadoBrassagem& (0+255),b
  3803  0005B6  D000               	goto	l6055
  3804  0005B8                     l6055:
  3805                           
  3806                           ;brassagem.c: 190: }
  3807                           ;brassagem.c: 191: if(PORTBbits.RB2){
  3808  0005B8  A481               	btfss	3969,2,c	;volatile
  3809  0005BA  EFA0  F00A         	goto	l690
  3810                           
  3811                           ;brassagem.c: 192: TempoEncherVessel += FreeRunSegundos;
  3812  0005BE  0100               	movlb	0	; () banked
  3813  0005C0  518B               	movf	_FreeRunSegundos& (0+255),w,b
  3814  0005C2  0100               	movlb	0	; () banked
  3815  0005C4  2791               	addwf	_TempoEncherVessel& (0+255),f,b
  3816  0005C6  0100               	movlb	0	; () banked
  3817  0005C8  518C               	movf	(_FreeRunSegundos+1)& (0+255),w,b
  3818  0005CA  0100               	movlb	0	; () banked
  3819  0005CC  2392               	addwfc	(_TempoEncherVessel+1)& (0+255),f,b
  3820                           
  3821                           ; BSR set to: 0
  3822                           ;brassagem.c: 193: AcionaValvulaMotorizada(0,0b00000010);
  3823  0005CE  0E02               	movlw	2
  3824  0005D0  0101               	movlb	1	; () banked
  3825  0005D2  6F54               	movwf	AcionaValvulaMotorizada@valvula& (0+255),b
  3826  0005D4  0E00               	movlw	0
  3827  0005D6  EC6A  F015         	call	_AcionaValvulaMotorizada
  3828                           
  3829                           ;brassagem.c: 194: CCPR2L = 0;
  3830  0005DA  0E00               	movlw	0
  3831  0005DC  6EBB               	movwf	4027,c	;volatile
  3832                           
  3833                           ;brassagem.c: 195: EscreverDWINram(0x39,0);
  3834  0005DE  0E00               	movlw	0
  3835  0005E0  0101               	movlb	1	; () banked
  3836  0005E2  6F60               	movwf	(EscreverDWINram@endereco+1)& (0+255),b
  3837  0005E4  0E39               	movlw	57
  3838  0005E6  6F5F               	movwf	EscreverDWINram@endereco& (0+255),b
  3839  0005E8  0E00               	movlw	0
  3840  0005EA  0101               	movlb	1	; () banked
  3841  0005EC  6F62               	movwf	(EscreverDWINram@valor+1)& (0+255),b
  3842  0005EE  0E00               	movlw	0
  3843  0005F0  6F61               	movwf	EscreverDWINram@valor& (0+255),b
  3844  0005F2  ECCD  F016         	call	_EscreverDWINram	;wreg free
  3845  0005F6                     l6065:
  3846                           
  3847                           ;brassagem.c: 196: EstadoBrassagem = ENCHERBOILERAGUAPRIMARIA;
  3848  0005F6  0E02               	movlw	2
  3849  0005F8  D348               	goto	L30
  3850                           
  3851                           ; BSR set to: 0
  3852                           ;brassagem.c: 197: }
  3853                           ;brassagem.c: 198: break;
  3854  0005FA  EFA0  F00A         	goto	l690
  3855  0005FE                     l6067:
  3856                           
  3857                           ; BSR set to: 0
  3858                           ;brassagem.c: 200: for(temp=0;temp<5;temp++){
  3859  0005FE  0E00               	movlw	0
  3860  000600  0101               	movlb	1	; () banked
  3861  000602  6F7B               	movwf	(ExecutaBrassagem@temp+1)& (0+255),b
  3862  000604  0E00               	movlw	0
  3863  000606  6F7A               	movwf	ExecutaBrassagem@temp& (0+255),b
  3864  000608                     l6069:
  3865                           
  3866                           ; BSR set to: 1
  3867  000608  0101               	movlb	1	; () banked
  3868  00060A  517B               	movf	(ExecutaBrassagem@temp+1)& (0+255),w,b
  3869  00060C  E12D               	bnz	l6087
  3870  00060E  0E05               	movlw	5
  3871  000610  0101               	movlb	1	; () banked
  3872  000612  5D7A               	subwf	ExecutaBrassagem@temp& (0+255),w,b
  3873  000614  B0D8               	btfsc	status,0,c
  3874  000616  D028               	goto	l6087
  3875  000618  D001               	goto	l603
  3876                           
  3877                           ; BSR set to: 1
  3878  00061A  D026               	goto	l6087
  3879  00061C                     l603:
  3880                           
  3881                           ; BSR set to: 1
  3882                           ;brassagem.c: 201: CCPR2L = 255;
  3883  00061C  68BB               	setf	4027,c	;volatile
  3884                           
  3885                           ; BSR set to: 1
  3886                           ;brassagem.c: 202: EscreverDWINram(0x39,100);
  3887  00061E  0E00               	movlw	0
  3888  000620  0101               	movlb	1	; () banked
  3889  000622  6F60               	movwf	(EscreverDWINram@endereco+1)& (0+255),b
  3890  000624  0E39               	movlw	57
  3891  000626  6F5F               	movwf	EscreverDWINram@endereco& (0+255),b
  3892  000628  0E00               	movlw	0
  3893  00062A  0101               	movlb	1	; () banked
  3894  00062C  6F62               	movwf	(EscreverDWINram@valor+1)& (0+255),b
  3895  00062E  0E64               	movlw	100
  3896  000630  6F61               	movwf	EscreverDWINram@valor& (0+255),b
  3897  000632  ECCD  F016         	call	_EscreverDWINram	;wreg free
  3898                           
  3899                           ;brassagem.c: 203: DelaySeg(2);
  3900  000636  0E02               	movlw	2
  3901  000638  ECCC  F017         	call	_DelaySeg
  3902                           
  3903                           ;brassagem.c: 204: CCPR2L = 25;
  3904  00063C  0E19               	movlw	25
  3905  00063E  6EBB               	movwf	4027,c	;volatile
  3906                           
  3907                           ;brassagem.c: 205: EscreverDWINram(0x39,10);
  3908  000640  0E00               	movlw	0
  3909  000642  0101               	movlb	1	; () banked
  3910  000644  6F60               	movwf	(EscreverDWINram@endereco+1)& (0+255),b
  3911  000646  0E39               	movlw	57
  3912  000648  6F5F               	movwf	EscreverDWINram@endereco& (0+255),b
  3913  00064A  0E00               	movlw	0
  3914  00064C  0101               	movlb	1	; () banked
  3915  00064E  6F62               	movwf	(EscreverDWINram@valor+1)& (0+255),b
  3916  000650  0E0A               	movlw	10
  3917  000652  6F61               	movwf	EscreverDWINram@valor& (0+255),b
  3918  000654  ECCD  F016         	call	_EscreverDWINram	;wreg free
  3919                           
  3920                           ;brassagem.c: 206: DelaySeg(2);
  3921  000658  0E02               	movlw	2
  3922  00065A  ECCC  F017         	call	_DelaySeg
  3923  00065E  0101               	movlb	1	; () banked
  3924  000660  4B7A               	infsnz	ExecutaBrassagem@temp& (0+255),f,b
  3925  000662  2B7B               	incf	(ExecutaBrassagem@temp+1)& (0+255),f,b
  3926  000664  D7D1               	goto	l6069
  3927                           
  3928                           ; BSR set to: 1
  3929  000666  D000               	goto	l6087
  3930  000668                     l6087:
  3931                           
  3932                           ; BSR set to: 1
  3933                           ;brassagem.c: 207: }
  3934                           ;brassagem.c: 208: EscreverDWINram(0x31,2);
  3935  000668  0E00               	movlw	0
  3936  00066A  0101               	movlb	1	; () banked
  3937  00066C  6F60               	movwf	(EscreverDWINram@endereco+1)& (0+255),b
  3938  00066E  0E31               	movlw	49
  3939  000670  6F5F               	movwf	EscreverDWINram@endereco& (0+255),b
  3940  000672  0E00               	movlw	0
  3941  000674  0101               	movlb	1	; () banked
  3942  000676  6F62               	movwf	(EscreverDWINram@valor+1)& (0+255),b
  3943  000678  0E02               	movlw	2
  3944  00067A  6F61               	movwf	EscreverDWINram@valor& (0+255),b
  3945  00067C  ECCD  F016         	call	_EscreverDWINram	;wreg free
  3946                           
  3947                           ;brassagem.c: 209: CCPR2L = 85;
  3948  000680  0E55               	movlw	85
  3949  000682  6EBB               	movwf	4027,c	;volatile
  3950                           
  3951                           ;brassagem.c: 210: EscreverDWINram(0x39,33);
  3952  000684  0E00               	movlw	0
  3953  000686  0101               	movlb	1	; () banked
  3954  000688  6F60               	movwf	(EscreverDWINram@endereco+1)& (0+255),b
  3955  00068A  0E39               	movlw	57
  3956  00068C  6F5F               	movwf	EscreverDWINram@endereco& (0+255),b
  3957  00068E  0E00               	movlw	0
  3958  000690  0101               	movlb	1	; () banked
  3959  000692  6F62               	movwf	(EscreverDWINram@valor+1)& (0+255),b
  3960  000694  0E21               	movlw	33
  3961  000696  6F61               	movwf	EscreverDWINram@valor& (0+255),b
  3962  000698  ECCD  F016         	call	_EscreverDWINram	;wreg free
  3963                           
  3964                           ;brassagem.c: 211: PORTDbits.RD3 = 0;
  3965  00069C  9683               	bcf	3971,3,c	;volatile
  3966                           
  3967                           ;brassagem.c: 212: PORTDbits.RD2 = 1;
  3968  00069E  8483               	bsf	3971,2,c	;volatile
  3969                           
  3970                           ;brassagem.c: 213: OnOffControleTemp = 1;
  3971  0006A0  8E44               	bsf	_OnOffControleTemp/(0+8),_OnOffControleTemp& (0+7),c
  3972                           
  3973                           ;brassagem.c: 214: Minutos = 0;
  3974  0006A2  0E00               	movlw	0
  3975  0006A4  0100               	movlb	0	; () banked
  3976  0006A6  6F98               	movwf	_Minutos& (0+255),b
  3977                           
  3978                           ;brassagem.c: 215: Segundos = 0;
  3979  0006A8  0E00               	movlw	0
  3980  0006AA  6E1E               	movwf	_Segundos,c
  3981                           
  3982                           ; BSR set to: 0
  3983                           ;brassagem.c: 216: SetPointTempPanela = ReceitaAtual.TemperaturaMashIn;
  3984  0006AC  C0A1  F01F         	movff	_ReceitaAtual,_SetPointTempPanela
  3985                           
  3986                           ; BSR set to: 0
  3987                           ;brassagem.c: 217: TempPanelaOK = 0;
  3988  0006B0  9C45               	bcf	_TempPanelaOK/(0+8),_TempPanelaOK& (0+7),c
  3989                           
  3990                           ;brassagem.c: 218: Segundos = 0;
  3991  0006B2  0E00               	movlw	0
  3992  0006B4  6E1E               	movwf	_Segundos,c
  3993                           
  3994                           ;brassagem.c: 219: Minutos = 0;
  3995  0006B6  0E00               	movlw	0
  3996  0006B8  0100               	movlb	0	; () banked
  3997  0006BA  6F98               	movwf	_Minutos& (0+255),b
  3998                           
  3999                           ;brassagem.c: 220: TotalHoras = 0;
  4000  0006BC  0E00               	movlw	0
  4001  0006BE  0100               	movlb	0	; () banked
  4002  0006C0  6FA0               	movwf	_TotalHoras& (0+255),b
  4003                           
  4004                           ;brassagem.c: 221: TotalSegundos = 0;
  4005  0006C2  0E00               	movlw	0
  4006  0006C4  6E23               	movwf	_TotalSegundos,c
  4007                           
  4008                           ;brassagem.c: 222: TotalMinutos = 0;
  4009  0006C6  0E00               	movlw	0
  4010  0006C8  6E22               	movwf	_TotalMinutos,c
  4011                           
  4012                           ;brassagem.c: 223: EstadoBrassagem = MASHIN;
  4013  0006CA  0E05               	movlw	5
  4014  0006CC  D2DE               	goto	L30
  4015  0006CE                     l605:
  4016                           
  4017                           ; BSR set to: 0
  4018                           ;brassagem.c: 226: __nop();
  4019  0006CE  F000               	nop	
  4020                           
  4021                           ;brassagem.c: 227: if(TempPanelaOK){
  4022  0006D0  AC45               	btfss	_TempPanelaOK/(0+8),_TempPanelaOK& (0+7),c
  4023  0006D2  EFA0  F00A         	goto	l690
  4024                           
  4025                           ;brassagem.c: 228: Bipar();
  4026  0006D6  EC7F  F018         	call	_Bipar	;wreg free
  4027                           
  4028                           ;brassagem.c: 229: Minutos = 0;
  4029  0006DA  0E00               	movlw	0
  4030  0006DC  0100               	movlb	0	; () banked
  4031  0006DE  6F98               	movwf	_Minutos& (0+255),b
  4032                           
  4033                           ; BSR set to: 0
  4034                           ;brassagem.c: 230: Segundos = 0;
  4035  0006E0  0E00               	movlw	0
  4036  0006E2  6E1E               	movwf	_Segundos,c
  4037                           
  4038                           ; BSR set to: 0
  4039                           ;brassagem.c: 231: EscreverDWINram(0x31,3);
  4040  0006E4  0E00               	movlw	0
  4041  0006E6  0101               	movlb	1	; () banked
  4042  0006E8  6F60               	movwf	(EscreverDWINram@endereco+1)& (0+255),b
  4043  0006EA  0E31               	movlw	49
  4044  0006EC  6F5F               	movwf	EscreverDWINram@endereco& (0+255),b
  4045  0006EE  0E00               	movlw	0
  4046  0006F0  0101               	movlb	1	; () banked
  4047  0006F2  6F62               	movwf	(EscreverDWINram@valor+1)& (0+255),b
  4048  0006F4  0E03               	movlw	3
  4049  0006F6  6F61               	movwf	EscreverDWINram@valor& (0+255),b
  4050  0006F8  ECCD  F016         	call	_EscreverDWINram	;wreg free
  4051                           
  4052                           ;brassagem.c: 232: EstadoBrassagem = ADICIONARMALTE;
  4053  0006FC  0E06               	movlw	6
  4054  0006FE  0100               	movlb	0	; () banked
  4055  000700  6F96               	movwf	ExecutaBrassagem@EstadoBrassagem& (0+255),b
  4056                           
  4057                           ; BSR set to: 0
  4058                           ;brassagem.c: 233: EscreverDWINram(0x39,0);
  4059  000702  0E00               	movlw	0
  4060  000704  0101               	movlb	1	; () banked
  4061  000706  6F60               	movwf	(EscreverDWINram@endereco+1)& (0+255),b
  4062  000708  0E39               	movlw	57
  4063  00070A  6F5F               	movwf	EscreverDWINram@endereco& (0+255),b
  4064  00070C  0E00               	movlw	0
  4065  00070E  0101               	movlb	1	; () banked
  4066  000710  6F62               	movwf	(EscreverDWINram@valor+1)& (0+255),b
  4067  000712  0E00               	movlw	0
  4068  000714  6F61               	movwf	EscreverDWINram@valor& (0+255),b
  4069  000716  ECCD  F016         	call	_EscreverDWINram	;wreg free
  4070                           
  4071                           ;brassagem.c: 234: EscreverDWINreg(3,7);
  4072  00071A  0E00               	movlw	0
  4073  00071C  0101               	movlb	1	; () banked
  4074  00071E  6F53               	movwf	(EscreverDWINreg@valor+1)& (0+255),b
  4075  000720  0E07               	movlw	7
  4076  000722  6F52               	movwf	EscreverDWINreg@valor& (0+255),b
  4077  000724  0E03               	movlw	3
  4078  000726  EC03  F017         	call	_EscreverDWINreg
  4079                           
  4080                           ;brassagem.c: 235: PORTDbits.RD4 = 1;
  4081  00072A  8883               	bsf	3971,4,c	;volatile
  4082                           
  4083                           ;brassagem.c: 237: }
  4084                           ;brassagem.c: 238: break;
  4085  00072C  EFA0  F00A         	goto	l690
  4086  000730                     l6119:
  4087                           
  4088                           ;brassagem.c: 240: if(LerDWINreg(3) == 6){
  4089  000730  0E03               	movlw	3
  4090  000732  EC12  F015         	call	_LerDWINreg
  4091  000736  0E06               	movlw	6
  4092  000738  0101               	movlb	1	; () banked
  4093  00073A  1952               	xorwf	?_LerDWINreg& (0+255),w,b
  4094  00073C  0101               	movlb	1	; () banked
  4095  00073E  1153               	iorwf	(?_LerDWINreg+1)& (0+255),w,b
  4096  000740  A4D8               	btfss	status,2,c
  4097  000742  D00E               	goto	l6131
  4098                           
  4099                           ; BSR set to: 1
  4100                           ;brassagem.c: 241: CCPR2L = 0;
  4101  000744  0E00               	movlw	0
  4102  000746  6EBB               	movwf	4027,c	;volatile
  4103                           
  4104                           ; BSR set to: 1
  4105                           ;brassagem.c: 242: OnOffControleTemp = 0;
  4106  000748  9E44               	bcf	_OnOffControleTemp/(0+8),_OnOffControleTemp& (0+7),c
  4107                           
  4108                           ; BSR set to: 1
  4109                           ;brassagem.c: 243: PORTDbits.RD2 = 0;
  4110  00074A  9483               	bcf	3971,2,c	;volatile
  4111                           
  4112                           ; BSR set to: 1
  4113                           ;brassagem.c: 244: EscreverDWINreg(3,13);
  4114  00074C  0E00               	movlw	0
  4115  00074E  0101               	movlb	1	; () banked
  4116  000750  6F53               	movwf	(EscreverDWINreg@valor+1)& (0+255),b
  4117  000752  0E0D               	movlw	13
  4118  000754  6F52               	movwf	EscreverDWINreg@valor& (0+255),b
  4119  000756  0E03               	movlw	3
  4120  000758  EC03  F017         	call	_EscreverDWINreg
  4121                           
  4122                           ;brassagem.c: 245: PORTDbits.RD4 = 0;
  4123  00075C  9883               	bcf	3971,4,c	;volatile
  4124  00075E  D000               	goto	l6131
  4125  000760                     l6131:
  4126                           
  4127                           ;brassagem.c: 246: }
  4128                           ;brassagem.c: 248: if( (PORTCbits.RC2) && (PORTDbits.RD4 == 0) ){
  4129  000760  B482               	btfsc	3970,2,c	;volatile
  4130  000762  B883               	btfsc	3971,4,c	;volatile
  4131  000764  EFA0  F00A         	goto	l690
  4132                           
  4133                           ;brassagem.c: 249: EscreverDWINreg(3,6);
  4134  000768  0E00               	movlw	0
  4135  00076A  0101               	movlb	1	; () banked
  4136  00076C  6F53               	movwf	(EscreverDWINreg@valor+1)& (0+255),b
  4137  00076E  0E06               	movlw	6
  4138  000770  6F52               	movwf	EscreverDWINreg@valor& (0+255),b
  4139  000772  0E03               	movlw	3
  4140  000774  EC03  F017         	call	_EscreverDWINreg
  4141                           
  4142                           ;brassagem.c: 250: EscreverDWINram(0x26,0);
  4143  000778  0E00               	movlw	0
  4144  00077A  0101               	movlb	1	; () banked
  4145  00077C  6F60               	movwf	(EscreverDWINram@endereco+1)& (0+255),b
  4146  00077E  0E26               	movlw	38
  4147  000780  6F5F               	movwf	EscreverDWINram@endereco& (0+255),b
  4148  000782  0E00               	movlw	0
  4149  000784  0101               	movlb	1	; () banked
  4150  000786  6F62               	movwf	(EscreverDWINram@valor+1)& (0+255),b
  4151  000788  0E00               	movlw	0
  4152  00078A  6F61               	movwf	EscreverDWINram@valor& (0+255),b
  4153  00078C  ECCD  F016         	call	_EscreverDWINram	;wreg free
  4154                           
  4155                           ;brassagem.c: 251: Minutos = 0;
  4156  000790  0E00               	movlw	0
  4157  000792  0100               	movlb	0	; () banked
  4158  000794  6F98               	movwf	_Minutos& (0+255),b
  4159                           
  4160                           ; BSR set to: 0
  4161                           ;brassagem.c: 252: Segundos = 0;
  4162  000796  0E00               	movlw	0
  4163  000798  6E1E               	movwf	_Segundos,c
  4164                           
  4165                           ; BSR set to: 0
  4166                           ;brassagem.c: 253: MinutosEtapa = ReceitaAtual.TempoMashIn;
  4167  00079A  C0B6  F17C         	movff	_ReceitaAtual+21,ExecutaBrassagem@MinutosEtapa
  4168                           
  4169                           ; BSR set to: 0
  4170                           ;brassagem.c: 254: PORTDbits.RD2 = 1;
  4171  00079E  8483               	bsf	3971,2,c	;volatile
  4172                           
  4173                           ; BSR set to: 0
  4174                           ;brassagem.c: 255: OnOffControleTemp = 1;
  4175  0007A0  8E44               	bsf	_OnOffControleTemp/(0+8),_OnOffControleTemp& (0+7),c
  4176                           
  4177                           ; BSR set to: 0
  4178                           ;brassagem.c: 256: TempPanelaOK = 0;
  4179  0007A2  9C45               	bcf	_TempPanelaOK/(0+8),_TempPanelaOK& (0+7),c
  4180                           
  4181                           ; BSR set to: 0
  4182                           ;brassagem.c: 257: CCPR2L = 64;
  4183  0007A4  0E40               	movlw	64
  4184  0007A6  6EBB               	movwf	4027,c	;volatile
  4185                           
  4186                           ; BSR set to: 0
  4187                           ;brassagem.c: 258: EscreverDWINram(0x39,25);
  4188  0007A8  0E00               	movlw	0
  4189  0007AA  0101               	movlb	1	; () banked
  4190  0007AC  6F60               	movwf	(EscreverDWINram@endereco+1)& (0+255),b
  4191  0007AE  0E39               	movlw	57
  4192  0007B0  6F5F               	movwf	EscreverDWINram@endereco& (0+255),b
  4193  0007B2  0E00               	movlw	0
  4194  0007B4  0101               	movlb	1	; () banked
  4195  0007B6  6F62               	movwf	(EscreverDWINram@valor+1)& (0+255),b
  4196  0007B8  0E19               	movlw	25
  4197  0007BA  6F61               	movwf	EscreverDWINram@valor& (0+255),b
  4198  0007BC  ECCD  F016         	call	_EscreverDWINram	;wreg free
  4199                           
  4200                           ;brassagem.c: 259: EscreverDWINram(0x31,4);
  4201  0007C0  0E00               	movlw	0
  4202  0007C2  0101               	movlb	1	; () banked
  4203  0007C4  6F60               	movwf	(EscreverDWINram@endereco+1)& (0+255),b
  4204  0007C6  0E31               	movlw	49
  4205  0007C8  6F5F               	movwf	EscreverDWINram@endereco& (0+255),b
  4206  0007CA  0E00               	movlw	0
  4207  0007CC  0101               	movlb	1	; () banked
  4208  0007CE  6F62               	movwf	(EscreverDWINram@valor+1)& (0+255),b
  4209  0007D0  0E04               	movlw	4
  4210  0007D2  6F61               	movwf	EscreverDWINram@valor& (0+255),b
  4211  0007D4  ECCD  F016         	call	_EscreverDWINram	;wreg free
  4212                           
  4213                           ;brassagem.c: 260: EstadoBrassagem = DESCANSOMASHIN;
  4214  0007D8  0E07               	movlw	7
  4215  0007DA  D257               	goto	L30
  4216                           
  4217                           ; BSR set to: 0
  4218                           ;brassagem.c: 262: }
  4219                           ;brassagem.c: 263: break;
  4220  0007DC  EFA0  F00A         	goto	l690
  4221  0007E0                     l6157:
  4222                           
  4223                           ; BSR set to: 0
  4224                           ;brassagem.c: 265: if(Minutos>=MinutosEtapa){
  4225  0007E0  0101               	movlb	1	; () banked
  4226  0007E2  517C               	movf	ExecutaBrassagem@MinutosEtapa& (0+255),w,b
  4227  0007E4  0100               	movlb	0	; () banked
  4228  0007E6  5D98               	subwf	_Minutos& (0+255),w,b
  4229  0007E8  A0D8               	btfss	status,0,c
  4230  0007EA  EFA0  F00A         	goto	l690
  4231                           
  4232                           ; BSR set to: 0
  4233                           ;brassagem.c: 266: Bipar();
  4234  0007EE  EC7F  F018         	call	_Bipar	;wreg free
  4235                           
  4236                           ;brassagem.c: 267: Minutos = 0;
  4237  0007F2  0E00               	movlw	0
  4238  0007F4  0100               	movlb	0	; () banked
  4239  0007F6  6F98               	movwf	_Minutos& (0+255),b
  4240                           
  4241                           ; BSR set to: 0
  4242                           ;brassagem.c: 268: Segundos = 0;
  4243  0007F8  0E00               	movlw	0
  4244  0007FA  6E1E               	movwf	_Segundos,c
  4245                           
  4246                           ; BSR set to: 0
  4247                           ;brassagem.c: 269: SetPointTempPanela = ReceitaAtual.TemperaturaFase1;
  4248  0007FC  C0A2  F01F         	movff	_ReceitaAtual+1,_SetPointTempPanela
  4249                           
  4250                           ; BSR set to: 0
  4251                           ;brassagem.c: 270: TempPanelaOK = 0;
  4252  000800  9C45               	bcf	_TempPanelaOK/(0+8),_TempPanelaOK& (0+7),c
  4253                           
  4254                           ; BSR set to: 0
  4255                           ;brassagem.c: 271: MinutosBomba = 0;
  4256  000802  0E00               	movlw	0
  4257  000804  0100               	movlb	0	; () banked
  4258  000806  6F99               	movwf	_MinutosBomba& (0+255),b
  4259                           
  4260                           ; BSR set to: 0
  4261                           ;brassagem.c: 272: EstadoBrassagem = PREFASE1;
  4262  000808  0E08               	movlw	8
  4263  00080A  D23F               	goto	L30
  4264                           
  4265                           ; BSR set to: 0
  4266                           ;brassagem.c: 273: }
  4267                           ;brassagem.c: 274: break;
  4268  00080C  EFA0  F00A         	goto	l690
  4269  000810                     l6173:
  4270                           
  4271                           ; BSR set to: 0
  4272                           ;brassagem.c: 276: if(ReceitaAtual.TempoFase1 == 0){
  4273  000810  0100               	movlb	0	; () banked
  4274  000812  51A3               	movf	(_ReceitaAtual+2)& (0+255),w,b
  4275  000814  A4D8               	btfss	status,2,c
  4276  000816  D005               	goto	l613
  4277  000818                     
  4278                           ; BSR set to: 0
  4279                           ;brassagem.c: 277: SetPointTempPanela = ReceitaAtual.TemperaturaFase2;
  4280  000818  C0A4  F01F         	movff	_ReceitaAtual+3,_SetPointTempPanela
  4281  00081C  D021               	goto	l6199
  4282  00081E                     l6177:
  4283                           
  4284                           ; BSR set to: 0
  4285                           ;brassagem.c: 279: EstadoBrassagem = PREFASE2;
  4286  00081E  0E0A               	movlw	10
  4287  000820  D234               	goto	L30
  4288  000822                     l613:
  4289                           
  4290                           ; BSR set to: 0
  4291                           ;brassagem.c: 281: }
  4292                           ;brassagem.c: 282: if(TempPanelaOK){
  4293  000822  AC45               	btfss	_TempPanelaOK/(0+8),_TempPanelaOK& (0+7),c
  4294  000824  EFA0  F00A         	goto	l690
  4295                           
  4296                           ; BSR set to: 0
  4297                           ;brassagem.c: 283: Bipar();
  4298  000828  EC7F  F018         	call	_Bipar	;wreg free
  4299                           
  4300                           ;brassagem.c: 284: Minutos = 0;
  4301  00082C  0E00               	movlw	0
  4302  00082E  0100               	movlb	0	; () banked
  4303  000830  6F98               	movwf	_Minutos& (0+255),b
  4304                           
  4305                           ; BSR set to: 0
  4306                           ;brassagem.c: 285: Segundos = 0;
  4307  000832  0E00               	movlw	0
  4308  000834  6E1E               	movwf	_Segundos,c
  4309                           
  4310                           ; BSR set to: 0
  4311                           ;brassagem.c: 286: MinutosEtapa = ReceitaAtual.TempoFase1;
  4312  000836  C0A3  F17C         	movff	_ReceitaAtual+2,ExecutaBrassagem@MinutosEtapa
  4313                           
  4314                           ; BSR set to: 0
  4315                           ;brassagem.c: 287: EstadoBrassagem = FASE1;
  4316  00083A  0E09               	movlw	9
  4317  00083C  D226               	goto	L30
  4318                           
  4319                           ; BSR set to: 0
  4320                           ;brassagem.c: 288: }
  4321                           ;brassagem.c: 289: break;
  4322  00083E  EFA0  F00A         	goto	l690
  4323  000842                     l6189:
  4324                           
  4325                           ; BSR set to: 0
  4326                           ;brassagem.c: 291: if(Minutos>=MinutosEtapa){
  4327  000842  0101               	movlb	1	; () banked
  4328  000844  517C               	movf	ExecutaBrassagem@MinutosEtapa& (0+255),w,b
  4329  000846  0100               	movlb	0	; () banked
  4330  000848  5D98               	subwf	_Minutos& (0+255),w,b
  4331  00084A  A0D8               	btfss	status,0,c
  4332  00084C  EFA0  F00A         	goto	l690
  4333                           
  4334                           ; BSR set to: 0
  4335                           ;brassagem.c: 292: Bipar();
  4336  000850  EC7F  F018         	call	_Bipar	;wreg free
  4337                           
  4338                           ;brassagem.c: 293: Minutos = 0;
  4339  000854  0E00               	movlw	0
  4340  000856  0100               	movlb	0	; () banked
  4341  000858  6F98               	movwf	_Minutos& (0+255),b
  4342                           
  4343                           ; BSR set to: 0
  4344                           ;brassagem.c: 294: Segundos = 0;
  4345  00085A  0E00               	movlw	0
  4346  00085C  6E1E               	movwf	_Segundos,c
  4347  00085E  D7DC               	goto	L33
  4348  000860                     l6199:
  4349                           
  4350                           ; BSR set to: 0
  4351                           ;brassagem.c: 296: TempPanelaOK = 0;
  4352  000860  9C45               	bcf	_TempPanelaOK/(0+8),_TempPanelaOK& (0+7),c
  4353  000862  D7DD               	goto	l6177
  4354                           
  4355                           ; BSR set to: 0
  4356                           ;brassagem.c: 298: }
  4357                           ;brassagem.c: 299: break;
  4358                           
  4359                           ; BSR set to: 0
  4360                           ;brassagem.c: 297: EstadoBrassagem = PREFASE2;
  4361  000864  EFA0  F00A         	goto	l690
  4362  000868                     l6203:
  4363                           
  4364                           ; BSR set to: 0
  4365                           ;brassagem.c: 301: if(ReceitaAtual.TempoFase2 == 0){
  4366  000868  0100               	movlb	0	; () banked
  4367  00086A  51A5               	movf	(_ReceitaAtual+4)& (0+255),w,b
  4368  00086C  A4D8               	btfss	status,2,c
  4369  00086E  D003               	goto	l618
  4370  000870  D020               	goto	l6227
  4371  000872                     l6207:
  4372                           
  4373                           ; BSR set to: 0
  4374                           ;brassagem.c: 304: EstadoBrassagem = PREFASE3;
  4375  000872  0E0C               	movlw	12
  4376  000874  D20A               	goto	L30
  4377  000876                     l618:
  4378                           
  4379                           ; BSR set to: 0
  4380                           ;brassagem.c: 306: }
  4381                           ;brassagem.c: 307: if(TempPanelaOK){
  4382  000876  AC45               	btfss	_TempPanelaOK/(0+8),_TempPanelaOK& (0+7),c
  4383  000878  EFA0  F00A         	goto	l690
  4384                           
  4385                           ; BSR set to: 0
  4386                           ;brassagem.c: 308: Bipar();
  4387  00087C  EC7F  F018         	call	_Bipar	;wreg free
  4388                           
  4389                           ;brassagem.c: 309: Minutos = 0;
  4390  000880  0E00               	movlw	0
  4391  000882  0100               	movlb	0	; () banked
  4392  000884  6F98               	movwf	_Minutos& (0+255),b
  4393                           
  4394                           ; BSR set to: 0
  4395                           ;brassagem.c: 310: Segundos = 0;
  4396  000886  0E00               	movlw	0
  4397  000888  6E1E               	movwf	_Segundos,c
  4398                           
  4399                           ; BSR set to: 0
  4400                           ;brassagem.c: 311: MinutosEtapa = ReceitaAtual.TempoFase2;
  4401  00088A  C0A5  F17C         	movff	_ReceitaAtual+4,ExecutaBrassagem@MinutosEtapa
  4402                           
  4403                           ; BSR set to: 0
  4404                           ;brassagem.c: 312: EstadoBrassagem = FASE2;
  4405  00088E  0E0B               	movlw	11
  4406  000890  D1FC               	goto	L30
  4407                           
  4408                           ; BSR set to: 0
  4409                           ;brassagem.c: 313: }
  4410                           ;brassagem.c: 314: break;
  4411  000892  EFA0  F00A         	goto	l690
  4412  000896                     l6219:
  4413                           
  4414                           ; BSR set to: 0
  4415                           ;brassagem.c: 316: if(Minutos>=MinutosEtapa){
  4416  000896  0101               	movlb	1	; () banked
  4417  000898  517C               	movf	ExecutaBrassagem@MinutosEtapa& (0+255),w,b
  4418  00089A  0100               	movlb	0	; () banked
  4419  00089C  5D98               	subwf	_Minutos& (0+255),w,b
  4420  00089E  A0D8               	btfss	status,0,c
  4421  0008A0  EFA0  F00A         	goto	l690
  4422                           
  4423                           ; BSR set to: 0
  4424                           ;brassagem.c: 317: Bipar();
  4425  0008A4  EC7F  F018         	call	_Bipar	;wreg free
  4426                           
  4427                           ;brassagem.c: 318: Minutos = 0;
  4428  0008A8  0E00               	movlw	0
  4429  0008AA  0100               	movlb	0	; () banked
  4430  0008AC  6F98               	movwf	_Minutos& (0+255),b
  4431                           
  4432                           ; BSR set to: 0
  4433                           ;brassagem.c: 319: Segundos = 0;
  4434  0008AE  0E00               	movlw	0
  4435  0008B0  6E1E               	movwf	_Segundos,c
  4436  0008B2                     l6227:
  4437                           
  4438                           ; BSR set to: 0
  4439                           ;brassagem.c: 320: SetPointTempPanela = ReceitaAtual.TemperaturaFase3;
  4440  0008B2  C0A6  F01F         	movff	_ReceitaAtual+5,_SetPointTempPanela
  4441                           
  4442                           ; BSR set to: 0
  4443                           ;brassagem.c: 321: TempPanelaOK = 0;
  4444  0008B6  9C45               	bcf	_TempPanelaOK/(0+8),_TempPanelaOK& (0+7),c
  4445  0008B8  D7DC               	goto	l6207
  4446                           
  4447                           ; BSR set to: 0
  4448                           ;brassagem.c: 323: }
  4449                           ;brassagem.c: 324: break;
  4450                           
  4451                           ; BSR set to: 0
  4452                           ;brassagem.c: 322: EstadoBrassagem = PREFASE3;
  4453  0008BA  EFA0  F00A         	goto	l690
  4454  0008BE                     l6233:
  4455                           
  4456                           ; BSR set to: 0
  4457                           ;brassagem.c: 326: if(ReceitaAtual.TempoFase3 == 0){
  4458  0008BE  0100               	movlb	0	; () banked
  4459  0008C0  51A7               	movf	(_ReceitaAtual+6)& (0+255),w,b
  4460  0008C2  A4D8               	btfss	status,2,c
  4461  0008C4  D008               	goto	l623
  4462                           
  4463                           ; BSR set to: 0
  4464                           ;brassagem.c: 327: EstadoBrassagem = PREFASE4;
  4465  0008C6  0E0E               	movlw	14
  4466  0008C8  0100               	movlb	0	; () banked
  4467  0008CA  6F96               	movwf	ExecutaBrassagem@EstadoBrassagem& (0+255),b
  4468                           
  4469                           ; BSR set to: 0
  4470                           ;brassagem.c: 328: SetPointTempPanela = ReceitaAtual.TemperaturaFase4;
  4471  0008CC  C0A8  F01F         	movff	_ReceitaAtual+7,_SetPointTempPanela
  4472                           
  4473                           ; BSR set to: 0
  4474                           ;brassagem.c: 329: TempPanelaOK = 0;
  4475  0008D0  9C45               	bcf	_TempPanelaOK/(0+8),_TempPanelaOK& (0+7),c
  4476                           
  4477                           ;brassagem.c: 330: break;
  4478  0008D2  EFA0  F00A         	goto	l690
  4479  0008D6                     l623:
  4480                           
  4481                           ; BSR set to: 0
  4482                           ;brassagem.c: 331: }
  4483                           ;brassagem.c: 332: if(TempPanelaOK){
  4484  0008D6  AC45               	btfss	_TempPanelaOK/(0+8),_TempPanelaOK& (0+7),c
  4485  0008D8  EFA0  F00A         	goto	l690
  4486                           
  4487                           ; BSR set to: 0
  4488                           ;brassagem.c: 333: Bipar();
  4489  0008DC  EC7F  F018         	call	_Bipar	;wreg free
  4490                           
  4491                           ;brassagem.c: 334: Minutos = 0;
  4492  0008E0  0E00               	movlw	0
  4493  0008E2  0100               	movlb	0	; () banked
  4494  0008E4  6F98               	movwf	_Minutos& (0+255),b
  4495                           
  4496                           ; BSR set to: 0
  4497                           ;brassagem.c: 335: Segundos = 0;
  4498  0008E6  0E00               	movlw	0
  4499  0008E8  6E1E               	movwf	_Segundos,c
  4500                           
  4501                           ; BSR set to: 0
  4502                           ;brassagem.c: 336: MinutosEtapa = ReceitaAtual.TempoFase3;
  4503  0008EA  C0A7  F17C         	movff	_ReceitaAtual+6,ExecutaBrassagem@MinutosEtapa
  4504                           
  4505                           ; BSR set to: 0
  4506                           ;brassagem.c: 337: EstadoBrassagem = FASE3;
  4507  0008EE  0E0D               	movlw	13
  4508  0008F0  D1CC               	goto	L30
  4509                           
  4510                           ; BSR set to: 0
  4511                           ;brassagem.c: 338: }
  4512                           ;brassagem.c: 339: break;
  4513  0008F2  EFA0  F00A         	goto	l690
  4514  0008F6                     l6251:
  4515                           
  4516                           ; BSR set to: 0
  4517                           ;brassagem.c: 341: if(Minutos>=MinutosEtapa){
  4518  0008F6  0101               	movlb	1	; () banked
  4519  0008F8  517C               	movf	ExecutaBrassagem@MinutosEtapa& (0+255),w,b
  4520  0008FA  0100               	movlb	0	; () banked
  4521  0008FC  5D98               	subwf	_Minutos& (0+255),w,b
  4522  0008FE  A0D8               	btfss	status,0,c
  4523  000900  EFA0  F00A         	goto	l690
  4524                           
  4525                           ; BSR set to: 0
  4526                           ;brassagem.c: 342: Bipar();
  4527  000904  EC7F  F018         	call	_Bipar	;wreg free
  4528                           
  4529                           ;brassagem.c: 343: Minutos = 0;
  4530  000908  0E00               	movlw	0
  4531  00090A  0100               	movlb	0	; () banked
  4532  00090C  6F98               	movwf	_Minutos& (0+255),b
  4533                           
  4534                           ; BSR set to: 0
  4535                           ;brassagem.c: 344: Segundos = 0;
  4536  00090E  0E00               	movlw	0
  4537  000910  6E1E               	movwf	_Segundos,c
  4538                           
  4539                           ; BSR set to: 0
  4540                           ;brassagem.c: 345: SetPointTempPanela = ReceitaAtual.TemperaturaFase4;
  4541  000912  C0A8  F01F         	movff	_ReceitaAtual+7,_SetPointTempPanela
  4542                           
  4543                           ; BSR set to: 0
  4544                           ;brassagem.c: 346: TempPanelaOK = 0;
  4545  000916  9C45               	bcf	_TempPanelaOK/(0+8),_TempPanelaOK& (0+7),c
  4546                           
  4547                           ; BSR set to: 0
  4548                           ;brassagem.c: 347: EstadoBrassagem = PREFASE4;
  4549  000918  0E0E               	movlw	14
  4550  00091A  D1B7               	goto	L30
  4551                           
  4552                           ; BSR set to: 0
  4553                           ;brassagem.c: 348: }
  4554                           ;brassagem.c: 349: break;
  4555  00091C  EFA0  F00A         	goto	l690
  4556  000920                     l6265:
  4557                           
  4558                           ; BSR set to: 0
  4559                           ;brassagem.c: 351: if(ReceitaAtual.TempoFase4 == 0){
  4560  000920  0100               	movlb	0	; () banked
  4561  000922  51A9               	movf	(_ReceitaAtual+8)& (0+255),w,b
  4562  000924  A4D8               	btfss	status,2,c
  4563  000926  D005               	goto	l628
  4564  000928                     
  4565                           ; BSR set to: 0
  4566                           ;brassagem.c: 352: SetPointTempPanela = ReceitaAtual.TemperaturaFase5;
  4567  000928  C0AA  F01F         	movff	_ReceitaAtual+9,_SetPointTempPanela
  4568  00092C  D021               	goto	l6291
  4569  00092E                     l6269:
  4570                           
  4571                           ; BSR set to: 0
  4572                           ;brassagem.c: 354: EstadoBrassagem = PREFASE5;
  4573  00092E  0E10               	movlw	16
  4574  000930  D1AC               	goto	L30
  4575  000932                     l628:
  4576                           
  4577                           ; BSR set to: 0
  4578                           ;brassagem.c: 356: }
  4579                           ;brassagem.c: 357: if(TempPanelaOK){
  4580  000932  AC45               	btfss	_TempPanelaOK/(0+8),_TempPanelaOK& (0+7),c
  4581  000934  EFA0  F00A         	goto	l690
  4582                           
  4583                           ; BSR set to: 0
  4584                           ;brassagem.c: 358: Bipar();
  4585  000938  EC7F  F018         	call	_Bipar	;wreg free
  4586                           
  4587                           ;brassagem.c: 359: Minutos = 0;
  4588  00093C  0E00               	movlw	0
  4589  00093E  0100               	movlb	0	; () banked
  4590  000940  6F98               	movwf	_Minutos& (0+255),b
  4591                           
  4592                           ; BSR set to: 0
  4593                           ;brassagem.c: 360: Segundos = 0;
  4594  000942  0E00               	movlw	0
  4595  000944  6E1E               	movwf	_Segundos,c
  4596                           
  4597                           ; BSR set to: 0
  4598                           ;brassagem.c: 361: MinutosEtapa = ReceitaAtual.TempoFase4;
  4599  000946  C0A9  F17C         	movff	_ReceitaAtual+8,ExecutaBrassagem@MinutosEtapa
  4600                           
  4601                           ; BSR set to: 0
  4602                           ;brassagem.c: 362: EstadoBrassagem = FASE4;
  4603  00094A  0E0F               	movlw	15
  4604  00094C  D19E               	goto	L30
  4605                           
  4606                           ; BSR set to: 0
  4607                           ;brassagem.c: 363: }
  4608                           ;brassagem.c: 364: break;
  4609  00094E  EFA0  F00A         	goto	l690
  4610  000952                     l6281:
  4611                           
  4612                           ; BSR set to: 0
  4613                           ;brassagem.c: 366: if(Minutos>=MinutosEtapa){
  4614  000952  0101               	movlb	1	; () banked
  4615  000954  517C               	movf	ExecutaBrassagem@MinutosEtapa& (0+255),w,b
  4616  000956  0100               	movlb	0	; () banked
  4617  000958  5D98               	subwf	_Minutos& (0+255),w,b
  4618  00095A  A0D8               	btfss	status,0,c
  4619  00095C  EFA0  F00A         	goto	l690
  4620                           
  4621                           ; BSR set to: 0
  4622                           ;brassagem.c: 367: Bipar();
  4623  000960  EC7F  F018         	call	_Bipar	;wreg free
  4624                           
  4625                           ;brassagem.c: 368: Minutos = 0;
  4626  000964  0E00               	movlw	0
  4627  000966  0100               	movlb	0	; () banked
  4628  000968  6F98               	movwf	_Minutos& (0+255),b
  4629                           
  4630                           ; BSR set to: 0
  4631                           ;brassagem.c: 369: Segundos = 0;
  4632  00096A  0E00               	movlw	0
  4633  00096C  6E1E               	movwf	_Segundos,c
  4634  00096E  D7DC               	goto	L32
  4635  000970                     l6291:
  4636                           
  4637                           ; BSR set to: 0
  4638                           ;brassagem.c: 371: TempPanelaOK = 0;
  4639  000970  9C45               	bcf	_TempPanelaOK/(0+8),_TempPanelaOK& (0+7),c
  4640  000972  D7DD               	goto	l6269
  4641                           
  4642                           ; BSR set to: 0
  4643                           ;brassagem.c: 373: }
  4644                           ;brassagem.c: 374: break;
  4645                           
  4646                           ; BSR set to: 0
  4647                           ;brassagem.c: 372: EstadoBrassagem = PREFASE5;
  4648  000974  EFA0  F00A         	goto	l690
  4649  000978                     l6295:
  4650                           
  4651                           ; BSR set to: 0
  4652                           ;brassagem.c: 376: if(ReceitaAtual.TempoFase5 == 0){
  4653  000978  0100               	movlb	0	; () banked
  4654  00097A  51AB               	movf	(_ReceitaAtual+10)& (0+255),w,b
  4655  00097C  A4D8               	btfss	status,2,c
  4656  00097E  D00A               	goto	l633
  4657                           
  4658                           ; BSR set to: 0
  4659                           ;brassagem.c: 377: PORTDbits.RD4 = 1;
  4660  000980  8883               	bsf	3971,4,c	;volatile
  4661                           
  4662                           ; BSR set to: 0
  4663                           ;brassagem.c: 378: EscreverDWINreg(3,16);
  4664  000982  0E00               	movlw	0
  4665  000984  0101               	movlb	1	; () banked
  4666  000986  6F53               	movwf	(EscreverDWINreg@valor+1)& (0+255),b
  4667  000988  0E10               	movlw	16
  4668  00098A  6F52               	movwf	EscreverDWINreg@valor& (0+255),b
  4669  00098C  0E03               	movlw	3
  4670  00098E  EC03  F017         	call	_EscreverDWINreg
  4671  000992  D020               	goto	l6319
  4672  000994                     l633:
  4673                           
  4674                           ; BSR set to: 0
  4675                           ;brassagem.c: 381: }
  4676                           ;brassagem.c: 382: if(TempPanelaOK){
  4677  000994  AC45               	btfss	_TempPanelaOK/(0+8),_TempPanelaOK& (0+7),c
  4678  000996  EFA0  F00A         	goto	l690
  4679                           
  4680                           ; BSR set to: 0
  4681                           ;brassagem.c: 383: Bipar();
  4682  00099A  EC7F  F018         	call	_Bipar	;wreg free
  4683                           
  4684                           ;brassagem.c: 384: Minutos = 0;
  4685  00099E  0E00               	movlw	0
  4686  0009A0  0100               	movlb	0	; () banked
  4687  0009A2  6F98               	movwf	_Minutos& (0+255),b
  4688                           
  4689                           ; BSR set to: 0
  4690                           ;brassagem.c: 385: Segundos = 0;
  4691  0009A4  0E00               	movlw	0
  4692  0009A6  6E1E               	movwf	_Segundos,c
  4693                           
  4694                           ; BSR set to: 0
  4695                           ;brassagem.c: 386: MinutosEtapa = ReceitaAtual.TempoFase5;
  4696  0009A8  C0AB  F17C         	movff	_ReceitaAtual+10,ExecutaBrassagem@MinutosEtapa
  4697                           
  4698                           ; BSR set to: 0
  4699                           ;brassagem.c: 387: EstadoBrassagem = FASE5;
  4700  0009AC  0E11               	movlw	17
  4701  0009AE  D16D               	goto	L30
  4702                           
  4703                           ; BSR set to: 0
  4704                           ;brassagem.c: 388: }
  4705                           ;brassagem.c: 389: break;
  4706  0009B0  EFA0  F00A         	goto	l690
  4707  0009B4                     l6313:
  4708                           
  4709                           ; BSR set to: 0
  4710                           ;brassagem.c: 391: if(Minutos>=MinutosEtapa){
  4711  0009B4  0101               	movlb	1	; () banked
  4712  0009B6  517C               	movf	ExecutaBrassagem@MinutosEtapa& (0+255),w,b
  4713  0009B8  0100               	movlb	0	; () banked
  4714  0009BA  5D98               	subwf	_Minutos& (0+255),w,b
  4715  0009BC  A0D8               	btfss	status,0,c
  4716  0009BE  EFA0  F00A         	goto	l690
  4717                           
  4718                           ; BSR set to: 0
  4719                           ;brassagem.c: 392: PORTDbits.RD4 = 1;
  4720  0009C2  8883               	bsf	3971,4,c	;volatile
  4721                           
  4722                           ; BSR set to: 0
  4723                           ;brassagem.c: 393: EscreverDWINreg(3,16);
  4724  0009C4  0E00               	movlw	0
  4725  0009C6  0101               	movlb	1	; () banked
  4726  0009C8  6F53               	movwf	(EscreverDWINreg@valor+1)& (0+255),b
  4727  0009CA  0E10               	movlw	16
  4728  0009CC  6F52               	movwf	EscreverDWINreg@valor& (0+255),b
  4729  0009CE  0E03               	movlw	3
  4730  0009D0  EC03  F017         	call	_EscreverDWINreg
  4731  0009D4                     l6319:
  4732                           
  4733                           ;brassagem.c: 394: EstadoBrassagem = TESTEIODO;
  4734  0009D4  0E12               	movlw	18
  4735  0009D6  D159               	goto	L30
  4736                           
  4737                           ; BSR set to: 0
  4738                           ;brassagem.c: 395: }
  4739                           ;brassagem.c: 396: break;
  4740  0009D8  EFA0  F00A         	goto	l690
  4741  0009DC                     l6321:
  4742                           
  4743                           ; BSR set to: 0
  4744                           ;brassagem.c: 398: if(LerDWINreg(3) == 6){
  4745  0009DC  0E03               	movlw	3
  4746  0009DE  EC12  F015         	call	_LerDWINreg
  4747  0009E2  0E06               	movlw	6
  4748  0009E4  0101               	movlb	1	; () banked
  4749  0009E6  1952               	xorwf	?_LerDWINreg& (0+255),w,b
  4750  0009E8  0101               	movlb	1	; () banked
  4751  0009EA  1153               	iorwf	(?_LerDWINreg+1)& (0+255),w,b
  4752  0009EC  A4D8               	btfss	status,2,c
  4753  0009EE  D00A               	goto	l6327
  4754                           
  4755                           ; BSR set to: 1
  4756                           ;brassagem.c: 399: EscreverDWINreg(3,17);
  4757  0009F0  0E00               	movlw	0
  4758  0009F2  0101               	movlb	1	; () banked
  4759  0009F4  6F53               	movwf	(EscreverDWINreg@valor+1)& (0+255),b
  4760  0009F6  0E11               	movlw	17
  4761  0009F8  6F52               	movwf	EscreverDWINreg@valor& (0+255),b
  4762  0009FA  0E03               	movlw	3
  4763  0009FC  EC03  F017         	call	_EscreverDWINreg
  4764                           
  4765                           ;brassagem.c: 400: PORTDbits.RD4 = 0;
  4766  000A00  9883               	bcf	3971,4,c	;volatile
  4767  000A02  D000               	goto	l6327
  4768  000A04                     l6327:
  4769                           
  4770                           ;brassagem.c: 401: }
  4771                           ;brassagem.c: 402: if(PORTCbits.RC2){
  4772  000A04  A482               	btfss	3970,2,c	;volatile
  4773  000A06  EFA0  F00A         	goto	l690
  4774                           
  4775                           ;brassagem.c: 403: EscreverDWINreg(3,6);
  4776  000A0A  0E00               	movlw	0
  4777  000A0C  0101               	movlb	1	; () banked
  4778  000A0E  6F53               	movwf	(EscreverDWINreg@valor+1)& (0+255),b
  4779  000A10  0E06               	movlw	6
  4780  000A12  6F52               	movwf	EscreverDWINreg@valor& (0+255),b
  4781  000A14  0E03               	movlw	3
  4782  000A16  EC03  F017         	call	_EscreverDWINreg
  4783                           
  4784                           ;brassagem.c: 404: SetPointTempPanela = ReceitaAtual.TemperaturaMashOut;
  4785  000A1A  C0AC  F01F         	movff	_ReceitaAtual+11,_SetPointTempPanela
  4786                           
  4787                           ;brassagem.c: 405: Minutos = 0;
  4788  000A1E  0E00               	movlw	0
  4789  000A20  0100               	movlb	0	; () banked
  4790  000A22  6F98               	movwf	_Minutos& (0+255),b
  4791                           
  4792                           ; BSR set to: 0
  4793                           ;brassagem.c: 406: Segundos = 0;
  4794  000A24  0E00               	movlw	0
  4795  000A26  6E1E               	movwf	_Segundos,c
  4796                           
  4797                           ; BSR set to: 0
  4798                           ;brassagem.c: 407: TempPanelaOK = 0;
  4799  000A28  9C45               	bcf	_TempPanelaOK/(0+8),_TempPanelaOK& (0+7),c
  4800                           
  4801                           ; BSR set to: 0
  4802                           ;brassagem.c: 408: EstadoBrassagem = PREMASHOUT;
  4803  000A2A  0E13               	movlw	19
  4804  000A2C  D12E               	goto	L30
  4805                           
  4806                           ; BSR set to: 0
  4807                           ;brassagem.c: 409: }
  4808                           ;brassagem.c: 410: break;
  4809  000A2E  EFA0  F00A         	goto	l690
  4810  000A32                     l640:
  4811                           
  4812                           ; BSR set to: 0
  4813                           ;brassagem.c: 412: if(TempPanelaOK){
  4814  000A32  AC45               	btfss	_TempPanelaOK/(0+8),_TempPanelaOK& (0+7),c
  4815  000A34  EFA0  F00A         	goto	l690
  4816                           
  4817                           ; BSR set to: 0
  4818                           ;brassagem.c: 413: Bipar();
  4819  000A38  EC7F  F018         	call	_Bipar	;wreg free
  4820                           
  4821                           ;brassagem.c: 414: Minutos = 0;
  4822  000A3C  0E00               	movlw	0
  4823  000A3E  0100               	movlb	0	; () banked
  4824  000A40  6F98               	movwf	_Minutos& (0+255),b
  4825                           
  4826                           ; BSR set to: 0
  4827                           ;brassagem.c: 415: Segundos = 0;
  4828  000A42  0E00               	movlw	0
  4829  000A44  6E1E               	movwf	_Segundos,c
  4830                           
  4831                           ; BSR set to: 0
  4832                           ;brassagem.c: 416: MinutosEtapa = ReceitaAtual.TempoMashOut;
  4833  000A46  C0AD  F17C         	movff	_ReceitaAtual+12,ExecutaBrassagem@MinutosEtapa
  4834                           
  4835                           ; BSR set to: 0
  4836                           ;brassagem.c: 417: EstadoBrassagem = MASHOUT;
  4837  000A4A  0E14               	movlw	20
  4838  000A4C  D11E               	goto	L30
  4839                           
  4840                           ; BSR set to: 0
  4841                           ;brassagem.c: 418: }
  4842                           ;brassagem.c: 419: break;
  4843  000A4E  EFA0  F00A         	goto	l690
  4844  000A52                     l6351:
  4845                           
  4846                           ; BSR set to: 0
  4847                           ;brassagem.c: 421: if(Minutos>=MinutosEtapa){
  4848  000A52  0101               	movlb	1	; () banked
  4849  000A54  517C               	movf	ExecutaBrassagem@MinutosEtapa& (0+255),w,b
  4850  000A56  0100               	movlb	0	; () banked
  4851  000A58  5D98               	subwf	_Minutos& (0+255),w,b
  4852  000A5A  A0D8               	btfss	status,0,c
  4853  000A5C  EFA0  F00A         	goto	l690
  4854                           
  4855                           ; BSR set to: 0
  4856                           ;brassagem.c: 422: Minutos = 0;
  4857  000A60  0E00               	movlw	0
  4858  000A62  0100               	movlb	0	; () banked
  4859  000A64  6F98               	movwf	_Minutos& (0+255),b
  4860                           
  4861                           ;brassagem.c: 423: Segundos = 0;
  4862  000A66  0E00               	movlw	0
  4863  000A68  6E1E               	movwf	_Segundos,c
  4864                           
  4865                           ; BSR set to: 0
  4866                           ;brassagem.c: 424: EscreverDWINram(0x39,0);
  4867  000A6A  0E00               	movlw	0
  4868  000A6C  0101               	movlb	1	; () banked
  4869  000A6E  6F60               	movwf	(EscreverDWINram@endereco+1)& (0+255),b
  4870  000A70  0E39               	movlw	57
  4871  000A72  6F5F               	movwf	EscreverDWINram@endereco& (0+255),b
  4872  000A74  0E00               	movlw	0
  4873  000A76  0101               	movlb	1	; () banked
  4874  000A78  6F62               	movwf	(EscreverDWINram@valor+1)& (0+255),b
  4875  000A7A  0E00               	movlw	0
  4876  000A7C  6F61               	movwf	EscreverDWINram@valor& (0+255),b
  4877  000A7E  ECCD  F016         	call	_EscreverDWINram	;wreg free
  4878                           
  4879                           ;brassagem.c: 425: EscreverDWINram(0x31,5);
  4880  000A82  0E00               	movlw	0
  4881  000A84  0101               	movlb	1	; () banked
  4882  000A86  6F60               	movwf	(EscreverDWINram@endereco+1)& (0+255),b
  4883  000A88  0E31               	movlw	49
  4884  000A8A  6F5F               	movwf	EscreverDWINram@endereco& (0+255),b
  4885  000A8C  0E00               	movlw	0
  4886  000A8E  0101               	movlb	1	; () banked
  4887  000A90  6F62               	movwf	(EscreverDWINram@valor+1)& (0+255),b
  4888  000A92  0E05               	movlw	5
  4889  000A94  6F61               	movwf	EscreverDWINram@valor& (0+255),b
  4890  000A96  ECCD  F016         	call	_EscreverDWINram	;wreg free
  4891                           
  4892                           ;brassagem.c: 426: EscreverDWINreg(3,9);
  4893  000A9A  0E00               	movlw	0
  4894  000A9C  0101               	movlb	1	; () banked
  4895  000A9E  6F53               	movwf	(EscreverDWINreg@valor+1)& (0+255),b
  4896  000AA0  0E09               	movlw	9
  4897  000AA2  6F52               	movwf	EscreverDWINreg@valor& (0+255),b
  4898  000AA4  0E03               	movlw	3
  4899  000AA6  EC03  F017         	call	_EscreverDWINreg
  4900                           
  4901                           ;brassagem.c: 427: CCPR2L = 0;
  4902  000AAA  0E00               	movlw	0
  4903  000AAC  6EBB               	movwf	4027,c	;volatile
  4904                           
  4905                           ;brassagem.c: 428: AcionaValvulaMotorizada(1,0b00000100);
  4906  000AAE  0E04               	movlw	4
  4907  000AB0  0101               	movlb	1	; () banked
  4908  000AB2  6F54               	movwf	AcionaValvulaMotorizada@valvula& (0+255),b
  4909  000AB4  0E01               	movlw	1
  4910  000AB6  EC6A  F015         	call	_AcionaValvulaMotorizada
  4911                           
  4912                           ;brassagem.c: 429: AcionaValvulaMotorizada(1,0b00010000);
  4913  000ABA  0E10               	movlw	16
  4914  000ABC  0101               	movlb	1	; () banked
  4915  000ABE  6F54               	movwf	AcionaValvulaMotorizada@valvula& (0+255),b
  4916  000AC0  0E01               	movlw	1
  4917  000AC2  EC6A  F015         	call	_AcionaValvulaMotorizada
  4918                           
  4919                           ;brassagem.c: 430: AcionaValvulaMotorizada(0,0b00100000);
  4920  000AC6  0E20               	movlw	32
  4921  000AC8  0101               	movlb	1	; () banked
  4922  000ACA  6F54               	movwf	AcionaValvulaMotorizada@valvula& (0+255),b
  4923  000ACC  0E00               	movlw	0
  4924  000ACE  EC6A  F015         	call	_AcionaValvulaMotorizada
  4925                           
  4926                           ;brassagem.c: 431: OnOffControleTemp = 0;
  4927  000AD2  9E44               	bcf	_OnOffControleTemp/(0+8),_OnOffControleTemp& (0+7),c
  4928                           
  4929                           ;brassagem.c: 432: PORTDbits.RD2 = 0;
  4930  000AD4  9483               	bcf	3971,2,c	;volatile
  4931                           
  4932                           ;brassagem.c: 433: PORTDbits.RD3 = 0;
  4933  000AD6  9683               	bcf	3971,3,c	;volatile
  4934                           
  4935                           ;brassagem.c: 434: PORTBbits.RB1 = 0;
  4936  000AD8  9281               	bcf	3969,1,c	;volatile
  4937                           
  4938                           ;brassagem.c: 435: PORTDbits.RD4 = 1;
  4939  000ADA  8883               	bsf	3971,4,c	;volatile
  4940                           
  4941                           ;brassagem.c: 436: EstadoBrassagem = RETIRARCESTO;
  4942  000ADC  0E15               	movlw	21
  4943  000ADE  D0D5               	goto	L30
  4944                           
  4945                           ; BSR set to: 0
  4946                           ;brassagem.c: 437: }
  4947                           ;brassagem.c: 438: break;
  4948  000AE0  EFA0  F00A         	goto	l690
  4949  000AE4                     l6381:
  4950                           
  4951                           ; BSR set to: 0
  4952                           ;brassagem.c: 440: if(LerDWINreg(3) == 6){
  4953  000AE4  0E03               	movlw	3
  4954  000AE6  EC12  F015         	call	_LerDWINreg
  4955  000AEA  0E06               	movlw	6
  4956  000AEC  0101               	movlb	1	; () banked
  4957  000AEE  1952               	xorwf	?_LerDWINreg& (0+255),w,b
  4958  000AF0  0101               	movlb	1	; () banked
  4959  000AF2  1153               	iorwf	(?_LerDWINreg+1)& (0+255),w,b
  4960  000AF4  A4D8               	btfss	status,2,c
  4961  000AF6  D00A               	goto	l6387
  4962                           
  4963                           ; BSR set to: 1
  4964                           ;brassagem.c: 441: EscreverDWINreg(3,14);
  4965  000AF8  0E00               	movlw	0
  4966  000AFA  0101               	movlb	1	; () banked
  4967  000AFC  6F53               	movwf	(EscreverDWINreg@valor+1)& (0+255),b
  4968  000AFE  0E0E               	movlw	14
  4969  000B00  6F52               	movwf	EscreverDWINreg@valor& (0+255),b
  4970  000B02  0E03               	movlw	3
  4971  000B04  EC03  F017         	call	_EscreverDWINreg
  4972                           
  4973                           ;brassagem.c: 442: PORTDbits.RD4 = 0;
  4974  000B08  9883               	bcf	3971,4,c	;volatile
  4975  000B0A  D000               	goto	l6387
  4976  000B0C                     l6387:
  4977                           
  4978                           ;brassagem.c: 443: }
  4979                           ;brassagem.c: 445: if( (PORTCbits.RC2) && (PORTDbits.RD4 == 0) ){
  4980  000B0C  B482               	btfsc	3970,2,c	;volatile
  4981  000B0E  B883               	btfsc	3971,4,c	;volatile
  4982  000B10  EFA0  F00A         	goto	l690
  4983                           
  4984                           ;brassagem.c: 446: EscreverDWINreg(3,6);
  4985  000B14  0E00               	movlw	0
  4986  000B16  0101               	movlb	1	; () banked
  4987  000B18  6F53               	movwf	(EscreverDWINreg@valor+1)& (0+255),b
  4988  000B1A  0E06               	movlw	6
  4989  000B1C  6F52               	movwf	EscreverDWINreg@valor& (0+255),b
  4990  000B1E  0E03               	movlw	3
  4991  000B20  EC03  F017         	call	_EscreverDWINreg
  4992                           
  4993                           ;brassagem.c: 447: EscreverDWINram(0x26,0);
  4994  000B24  0E00               	movlw	0
  4995  000B26  0101               	movlb	1	; () banked
  4996  000B28  6F60               	movwf	(EscreverDWINram@endereco+1)& (0+255),b
  4997  000B2A  0E26               	movlw	38
  4998  000B2C  6F5F               	movwf	EscreverDWINram@endereco& (0+255),b
  4999  000B2E  0E00               	movlw	0
  5000  000B30  0101               	movlb	1	; () banked
  5001  000B32  6F62               	movwf	(EscreverDWINram@valor+1)& (0+255),b
  5002  000B34  0E00               	movlw	0
  5003  000B36  6F61               	movwf	EscreverDWINram@valor& (0+255),b
  5004  000B38  ECCD  F016         	call	_EscreverDWINram	;wreg free
  5005                           
  5006                           ;brassagem.c: 448: EscreverDWINram(0x31,7);
  5007  000B3C  0E00               	movlw	0
  5008  000B3E  0101               	movlb	1	; () banked
  5009  000B40  6F60               	movwf	(EscreverDWINram@endereco+1)& (0+255),b
  5010  000B42  0E31               	movlw	49
  5011  000B44  6F5F               	movwf	EscreverDWINram@endereco& (0+255),b
  5012  000B46  0E00               	movlw	0
  5013  000B48  0101               	movlb	1	; () banked
  5014  000B4A  6F62               	movwf	(EscreverDWINram@valor+1)& (0+255),b
  5015  000B4C  0E07               	movlw	7
  5016  000B4E  6F61               	movwf	EscreverDWINram@valor& (0+255),b
  5017  000B50  ECCD  F016         	call	_EscreverDWINram	;wreg free
  5018                           
  5019                           ;brassagem.c: 449: while(PORTCbits.RC2);
  5020  000B54  D000               	goto	l647
  5021  000B56                     l647:
  5022  000B56  B482               	btfsc	3970,2,c	;volatile
  5023  000B58  D7FE               	goto	l647
  5024                           
  5025                           ;brassagem.c: 450: MinutosEtapa = TempoAdicionarAguaSparging;
  5026  000B5A  C09C  F17C         	movff	_TempoAdicionarAguaSparging,ExecutaBrassagem@MinutosEtapa
  5027                           
  5028                           ;brassagem.c: 451: Segundos = 0;
  5029  000B5E  0E00               	movlw	0
  5030  000B60  6E1E               	movwf	_Segundos,c
  5031                           
  5032                           ;brassagem.c: 452: EscreverDWINreg(3,18);
  5033  000B62  0E00               	movlw	0
  5034  000B64  0101               	movlb	1	; () banked
  5035  000B66  6F53               	movwf	(EscreverDWINreg@valor+1)& (0+255),b
  5036  000B68  0E12               	movlw	18
  5037  000B6A  6F52               	movwf	EscreverDWINreg@valor& (0+255),b
  5038  000B6C  0E03               	movlw	3
  5039  000B6E  EC03  F017         	call	_EscreverDWINreg
  5040                           
  5041                           ;brassagem.c: 453: AcionaValvulaMotorizada(0,0b00000100);
  5042  000B72  0E04               	movlw	4
  5043  000B74  0101               	movlb	1	; () banked
  5044  000B76  6F54               	movwf	AcionaValvulaMotorizada@valvula& (0+255),b
  5045  000B78  0E00               	movlw	0
  5046  000B7A  EC6A  F015         	call	_AcionaValvulaMotorizada
  5047                           
  5048                           ;brassagem.c: 454: AcionaValvulaMotorizada(0,0b00010000);
  5049  000B7E  0E10               	movlw	16
  5050  000B80  0101               	movlb	1	; () banked
  5051  000B82  6F54               	movwf	AcionaValvulaMotorizada@valvula& (0+255),b
  5052  000B84  0E00               	movlw	0
  5053  000B86  EC6A  F015         	call	_AcionaValvulaMotorizada
  5054                           
  5055                           ;brassagem.c: 455: AcionaValvulaMotorizada(1,0b00001000);
  5056  000B8A  0E08               	movlw	8
  5057  000B8C  0101               	movlb	1	; () banked
  5058  000B8E  6F54               	movwf	AcionaValvulaMotorizada@valvula& (0+255),b
  5059  000B90  0E01               	movlw	1
  5060  000B92  EC6A  F015         	call	_AcionaValvulaMotorizada
  5061                           
  5062                           ;brassagem.c: 456: AcionaValvulaMotorizada(1,0b00000010);
  5063  000B96  0E02               	movlw	2
  5064  000B98  0101               	movlb	1	; () banked
  5065  000B9A  6F54               	movwf	AcionaValvulaMotorizada@valvula& (0+255),b
  5066  000B9C  0E01               	movlw	1
  5067  000B9E  EC6A  F015         	call	_AcionaValvulaMotorizada
  5068                           
  5069                           ;brassagem.c: 457: EstadoBrassagem = ENCHENDOBOILER;
  5070  000BA2  0E16               	movlw	22
  5071  000BA4  D072               	goto	L30
  5072                           
  5073                           ; BSR set to: 0
  5074                           ;brassagem.c: 458: }
  5075                           ;brassagem.c: 459: break;
  5076  000BA6  EFA0  F00A         	goto	l690
  5077  000BAA                     l6407:
  5078                           
  5079                           ; BSR set to: 0
  5080                           ;brassagem.c: 461: EscreverDWINram(0x37,ValoresAD[1]);
  5081  000BAA  0E00               	movlw	0
  5082  000BAC  0101               	movlb	1	; () banked
  5083  000BAE  6F60               	movwf	(EscreverDWINram@endereco+1)& (0+255),b
  5084  000BB0  0E37               	movlw	55
  5085  000BB2  6F5F               	movwf	EscreverDWINram@endereco& (0+255),b
  5086  000BB4  C003  F161         	movff	_ValoresAD+2,EscreverDWINram@valor
  5087  000BB8  C004  F162         	movff	_ValoresAD+3,EscreverDWINram@valor+1
  5088  000BBC  ECCD  F016         	call	_EscreverDWINram	;wreg free
  5089                           
  5090                           ;brassagem.c: 462: if(PORTBbits.RB4){
  5091  000BC0  A881               	btfss	3969,4,c	;volatile
  5092  000BC2  D008               	goto	l651
  5093                           
  5094                           ;brassagem.c: 463: PORTDbits.RD0 = 0;
  5095  000BC4  9083               	bcf	3971,0,c	;volatile
  5096                           
  5097                           ;brassagem.c: 464: PORTDbits.RD2 = 0;
  5098  000BC6  9483               	bcf	3971,2,c	;volatile
  5099                           
  5100                           ;brassagem.c: 465: PORTDbits.RD3 = 1;
  5101  000BC8  8683               	bsf	3971,3,c	;volatile
  5102                           
  5103                           ;brassagem.c: 466: PORTBbits.RB1 = 1;
  5104  000BCA  8281               	bsf	3969,1,c	;volatile
  5105                           
  5106                           ;brassagem.c: 467: EstadoBrassagem = AQUECENDOBOILER;
  5107  000BCC  0E17               	movlw	23
  5108  000BCE  0100               	movlb	0	; () banked
  5109  000BD0  6F96               	movwf	ExecutaBrassagem@EstadoBrassagem& (0+255),b
  5110                           
  5111                           ;brassagem.c: 468: }
  5112  000BD2  D004               	goto	l652
  5113  000BD4                     l651:
  5114                           
  5115                           ;brassagem.c: 469: else{
  5116                           ;brassagem.c: 470: PORTDbits.RD2 = 1;
  5117  000BD4  8483               	bsf	3971,2,c	;volatile
  5118                           
  5119                           ;brassagem.c: 471: PORTDbits.RD3 = 0;
  5120  000BD6  9683               	bcf	3971,3,c	;volatile
  5121                           
  5122                           ;brassagem.c: 472: PORTBbits.RB1 = 1;
  5123  000BD8  8281               	bsf	3969,1,c	;volatile
  5124                           
  5125                           ;brassagem.c: 473: PORTDbits.RD0 = 1;
  5126  000BDA  8083               	bsf	3971,0,c	;volatile
  5127  000BDC                     l652:
  5128                           
  5129                           ;brassagem.c: 474: }
  5130                           ;brassagem.c: 475: if(PORTCbits.RC2){
  5131  000BDC  A482               	btfss	3970,2,c	;volatile
  5132  000BDE  EFA0  F00A         	goto	l690
  5133                           
  5134                           ;brassagem.c: 476: PORTDbits.RD0 = 0;
  5135  000BE2  9083               	bcf	3971,0,c	;volatile
  5136                           
  5137                           ;brassagem.c: 477: EscreverDWINreg(3,6);
  5138  000BE4  0E00               	movlw	0
  5139  000BE6  0101               	movlb	1	; () banked
  5140  000BE8  6F53               	movwf	(EscreverDWINreg@valor+1)& (0+255),b
  5141  000BEA  0E06               	movlw	6
  5142  000BEC  6F52               	movwf	EscreverDWINreg@valor& (0+255),b
  5143  000BEE  0E03               	movlw	3
  5144  000BF0  EC03  F017         	call	_EscreverDWINreg
  5145                           
  5146                           ;brassagem.c: 478: AcionaValvulaMotorizada(0,0b00001000);
  5147  000BF4  0E08               	movlw	8
  5148  000BF6  0101               	movlb	1	; () banked
  5149  000BF8  6F54               	movwf	AcionaValvulaMotorizada@valvula& (0+255),b
  5150  000BFA  0E00               	movlw	0
  5151  000BFC  EC6A  F015         	call	_AcionaValvulaMotorizada
  5152                           
  5153                           ;brassagem.c: 479: AcionaValvulaMotorizada(0,0b00000010);
  5154  000C00  0E02               	movlw	2
  5155  000C02  0101               	movlb	1	; () banked
  5156  000C04  6F54               	movwf	AcionaValvulaMotorizada@valvula& (0+255),b
  5157  000C06  0E00               	movlw	0
  5158  000C08  EC6A  F015         	call	_AcionaValvulaMotorizada
  5159                           
  5160                           ;brassagem.c: 480: AcionaValvulaMotorizada(1,0b00000100);
  5161  000C0C  0E04               	movlw	4
  5162  000C0E  0101               	movlb	1	; () banked
  5163  000C10  6F54               	movwf	AcionaValvulaMotorizada@valvula& (0+255),b
  5164  000C12  0E01               	movlw	1
  5165  000C14  EC6A  F015         	call	_AcionaValvulaMotorizada
  5166                           
  5167                           ;brassagem.c: 481: AcionaValvulaMotorizada(1,0b00010000);
  5168  000C18  0E10               	movlw	16
  5169  000C1A  0101               	movlb	1	; () banked
  5170  000C1C  6F54               	movwf	AcionaValvulaMotorizada@valvula& (0+255),b
  5171  000C1E  0E01               	movlw	1
  5172  000C20  EC6A  F015         	call	_AcionaValvulaMotorizada
  5173                           
  5174                           ;brassagem.c: 482: Minutos = 0;
  5175  000C24  0E00               	movlw	0
  5176  000C26  0100               	movlb	0	; () banked
  5177  000C28  6F98               	movwf	_Minutos& (0+255),b
  5178                           
  5179                           ; BSR set to: 0
  5180                           ;brassagem.c: 483: Segundos = 0;
  5181  000C2A  0E00               	movlw	0
  5182  000C2C  6E1E               	movwf	_Segundos,c
  5183                           
  5184                           ; BSR set to: 0
  5185                           ;brassagem.c: 484: SetPointTempPanela = ReceitaAtual.TemperaturaFervura;
  5186  000C2E  C0AE  F01F         	movff	_ReceitaAtual+13,_SetPointTempPanela
  5187                           
  5188                           ; BSR set to: 0
  5189                           ;brassagem.c: 485: TempPanelaOK = 0;
  5190  000C32  9C45               	bcf	_TempPanelaOK/(0+8),_TempPanelaOK& (0+7),c
  5191                           
  5192                           ;brassagem.c: 486: EscreverDWINram(0x31,8);
  5193  000C34  0E00               	movlw	0
  5194  000C36  0101               	movlb	1	; () banked
  5195  000C38  6F60               	movwf	(EscreverDWINram@endereco+1)& (0+255),b
  5196  000C3A  0E31               	movlw	49
  5197  000C3C  6F5F               	movwf	EscreverDWINram@endereco& (0+255),b
  5198  000C3E  0E00               	movlw	0
  5199  000C40  0101               	movlb	1	; () banked
  5200  000C42  6F62               	movwf	(EscreverDWINram@valor+1)& (0+255),b
  5201  000C44  0E08               	movlw	8
  5202  000C46  6F61               	movwf	EscreverDWINram@valor& (0+255),b
  5203  000C48  ECCD  F016         	call	_EscreverDWINram	;wreg free
  5204                           
  5205                           ;brassagem.c: 487: OnOffControleTemp = 0;
  5206  000C4C  9E44               	bcf	_OnOffControleTemp/(0+8),_OnOffControleTemp& (0+7),c
  5207                           
  5208                           ;brassagem.c: 488: PORTDbits.RD2 = 1;
  5209  000C4E  8483               	bsf	3971,2,c	;volatile
  5210                           
  5211                           ;brassagem.c: 489: PORTDbits.RD3 = 0;
  5212  000C50  9683               	bcf	3971,3,c	;volatile
  5213                           
  5214                           ;brassagem.c: 490: PORTBbits.RB1 = 1;
  5215  000C52  8281               	bsf	3969,1,c	;volatile
  5216                           
  5217                           ;brassagem.c: 491: CCPR2L = 0;
  5218  000C54  0E00               	movlw	0
  5219  000C56  6EBB               	movwf	4027,c	;volatile
  5220                           
  5221                           ;brassagem.c: 492: EscreverDWINram(0x39,0);
  5222  000C58  0E00               	movlw	0
  5223  000C5A  0101               	movlb	1	; () banked
  5224  000C5C  6F60               	movwf	(EscreverDWINram@endereco+1)& (0+255),b
  5225  000C5E  0E39               	movlw	57
  5226  000C60  6F5F               	movwf	EscreverDWINram@endereco& (0+255),b
  5227  000C62  0E00               	movlw	0
  5228  000C64  0101               	movlb	1	; () banked
  5229  000C66  6F62               	movwf	(EscreverDWINram@valor+1)& (0+255),b
  5230  000C68  0E00               	movlw	0
  5231  000C6A  6F61               	movwf	EscreverDWINram@valor& (0+255),b
  5232  000C6C  ECCD  F016         	call	_EscreverDWINram	;wreg free
  5233                           
  5234                           ;brassagem.c: 493: EscreverDWINram(0x2B,100);
  5235  000C70  0E00               	movlw	0
  5236  000C72  0101               	movlb	1	; () banked
  5237  000C74  6F60               	movwf	(EscreverDWINram@endereco+1)& (0+255),b
  5238  000C76  0E2B               	movlw	43
  5239  000C78  6F5F               	movwf	EscreverDWINram@endereco& (0+255),b
  5240  000C7A  0E00               	movlw	0
  5241  000C7C  0101               	movlb	1	; () banked
  5242  000C7E  6F62               	movwf	(EscreverDWINram@valor+1)& (0+255),b
  5243  000C80  0E64               	movlw	100
  5244  000C82  6F61               	movwf	EscreverDWINram@valor& (0+255),b
  5245  000C84  ECCD  F016         	call	_EscreverDWINram	;wreg free
  5246  000C88  D131               	goto	l6553
  5247  000C8A                     L30:
  5248  000C8A  0100               	movlb	0	; () banked
  5249  000C8C  6F96               	movwf	ExecutaBrassagem@EstadoBrassagem& (0+255),b
  5250                           
  5251                           ; BSR set to: 0
  5252                           ;brassagem.c: 495: }
  5253                           ;brassagem.c: 496: break;
  5254  000C8E  EFA0  F00A         	goto	l690
  5255  000C92                     l6451:
  5256                           
  5257                           ; BSR set to: 0
  5258                           ;brassagem.c: 498: EscreverDWINram(0x37,ValoresAD[1]);
  5259  000C92  0E00               	movlw	0
  5260  000C94  0101               	movlb	1	; () banked
  5261  000C96  6F60               	movwf	(EscreverDWINram@endereco+1)& (0+255),b
  5262  000C98  0E37               	movlw	55
  5263  000C9A  6F5F               	movwf	EscreverDWINram@endereco& (0+255),b
  5264  000C9C  C003  F161         	movff	_ValoresAD+2,EscreverDWINram@valor
  5265  000CA0  C004  F162         	movff	_ValoresAD+3,EscreverDWINram@valor+1
  5266  000CA4  ECCD  F016         	call	_EscreverDWINram	;wreg free
  5267                           
  5268                           ;brassagem.c: 499: if(ValoresAD[1] < ((TemperaturaSparging*10)-30)){
  5269  000CA8  0EE2               	movlw	226
  5270  000CAA  0101               	movlb	1	; () banked
  5271  000CAC  6F74               	movwf	??_ExecutaBrassagem& (0+255),b
  5272  000CAE  0EFF               	movlw	255
  5273  000CB0  0101               	movlb	1	; () banked
  5274  000CB2  6F75               	movwf	(??_ExecutaBrassagem+1)& (0+255),b
  5275  000CB4  0100               	movlb	0	; () banked
  5276  000CB6  519B               	movf	_TemperaturaSparging& (0+255),w,b
  5277  000CB8  0D0A               	mullw	10
  5278  000CBA  0101               	movlb	1	; () banked
  5279  000CBC  5174               	movf	??_ExecutaBrassagem& (0+255),w,b
  5280  000CBE  26F3               	addwf	prodl,f,c
  5281  000CC0  0101               	movlb	1	; () banked
  5282  000CC2  5175               	movf	(??_ExecutaBrassagem+1)& (0+255),w,b
  5283  000CC4  22F4               	addwfc	prodh,f,c
  5284  000CC6  50F3               	movf	prodl,w,c
  5285  000CC8  5C03               	subwf	_ValoresAD+2,w,c
  5286  000CCA  50F4               	movf	prodh,w,c
  5287  000CCC  5804               	subwfb	_ValoresAD+3,w,c
  5288  000CCE  B0D8               	btfsc	status,0,c
  5289  000CD0  D004               	goto	l655
  5290                           
  5291                           ; BSR set to: 1
  5292                           ;brassagem.c: 500: PORTDbits.RD2 = 0;
  5293  000CD2  9483               	bcf	3971,2,c	;volatile
  5294                           
  5295                           ;brassagem.c: 501: PORTDbits.RD3 = 1;
  5296  000CD4  8683               	bsf	3971,3,c	;volatile
  5297                           
  5298                           ;brassagem.c: 502: PORTBbits.RB1 = 1;
  5299  000CD6  8281               	bsf	3969,1,c	;volatile
  5300                           
  5301                           ;brassagem.c: 503: }
  5302  000CD8  D009               	goto	l6461
  5303  000CDA                     l655:
  5304                           
  5305                           ; BSR set to: 1
  5306                           ;brassagem.c: 504: else{
  5307                           ;brassagem.c: 505: PORTDbits.RD2 = 1;
  5308  000CDA  8483               	bsf	3971,2,c	;volatile
  5309                           
  5310                           ;brassagem.c: 506: PORTDbits.RD3 = 0;
  5311  000CDC  9683               	bcf	3971,3,c	;volatile
  5312                           
  5313                           ;brassagem.c: 507: PORTBbits.RB1 = 1;
  5314  000CDE  8281               	bsf	3969,1,c	;volatile
  5315                           
  5316                           ; BSR set to: 1
  5317                           ;brassagem.c: 508: Bipar();
  5318  000CE0  EC7F  F018         	call	_Bipar	;wreg free
  5319                           
  5320                           ;brassagem.c: 509: EstadoBrassagem = SPARGING;
  5321  000CE4  0E18               	movlw	24
  5322  000CE6  0100               	movlb	0	; () banked
  5323  000CE8  6F96               	movwf	ExecutaBrassagem@EstadoBrassagem& (0+255),b
  5324  000CEA  D000               	goto	l6461
  5325  000CEC                     l6461:
  5326                           
  5327                           ;brassagem.c: 510: }
  5328                           ;brassagem.c: 511: if(PORTCbits.RC2){
  5329  000CEC  A482               	btfss	3970,2,c	;volatile
  5330  000CEE  EFA0  F00A         	goto	l690
  5331                           
  5332                           ;brassagem.c: 512: PORTDbits.RD0 = 0;
  5333  000CF2  9083               	bcf	3971,0,c	;volatile
  5334                           
  5335                           ;brassagem.c: 513: EscreverDWINreg(3,6);
  5336  000CF4  0E00               	movlw	0
  5337  000CF6  0101               	movlb	1	; () banked
  5338  000CF8  6F53               	movwf	(EscreverDWINreg@valor+1)& (0+255),b
  5339  000CFA  0E06               	movlw	6
  5340  000CFC  6F52               	movwf	EscreverDWINreg@valor& (0+255),b
  5341  000CFE  0E03               	movlw	3
  5342  000D00  EC03  F017         	call	_EscreverDWINreg
  5343                           
  5344                           ;brassagem.c: 514: AcionaValvulaMotorizada(0,0b00001000);
  5345  000D04  0E08               	movlw	8
  5346  000D06  0101               	movlb	1	; () banked
  5347  000D08  6F54               	movwf	AcionaValvulaMotorizada@valvula& (0+255),b
  5348  000D0A  0E00               	movlw	0
  5349  000D0C  EC6A  F015         	call	_AcionaValvulaMotorizada
  5350                           
  5351                           ;brassagem.c: 515: AcionaValvulaMotorizada(0,0b00000010);
  5352  000D10  0E02               	movlw	2
  5353  000D12  0101               	movlb	1	; () banked
  5354  000D14  6F54               	movwf	AcionaValvulaMotorizada@valvula& (0+255),b
  5355  000D16  0E00               	movlw	0
  5356  000D18  EC6A  F015         	call	_AcionaValvulaMotorizada
  5357                           
  5358                           ;brassagem.c: 516: AcionaValvulaMotorizada(1,0b00000100);
  5359  000D1C  0E04               	movlw	4
  5360  000D1E  0101               	movlb	1	; () banked
  5361  000D20  6F54               	movwf	AcionaValvulaMotorizada@valvula& (0+255),b
  5362  000D22  0E01               	movlw	1
  5363  000D24  EC6A  F015         	call	_AcionaValvulaMotorizada
  5364                           
  5365                           ;brassagem.c: 517: AcionaValvulaMotorizada(1,0b00010000);
  5366  000D28  0E10               	movlw	16
  5367  000D2A  0101               	movlb	1	; () banked
  5368  000D2C  6F54               	movwf	AcionaValvulaMotorizada@valvula& (0+255),b
  5369  000D2E  0E01               	movlw	1
  5370  000D30  EC6A  F015         	call	_AcionaValvulaMotorizada
  5371                           
  5372                           ;brassagem.c: 518: Minutos = 0;
  5373  000D34  0E00               	movlw	0
  5374  000D36  0100               	movlb	0	; () banked
  5375  000D38  6F98               	movwf	_Minutos& (0+255),b
  5376                           
  5377                           ; BSR set to: 0
  5378                           ;brassagem.c: 519: Segundos = 0;
  5379  000D3A  0E00               	movlw	0
  5380  000D3C  6E1E               	movwf	_Segundos,c
  5381                           
  5382                           ; BSR set to: 0
  5383                           ;brassagem.c: 520: SetPointTempPanela = ReceitaAtual.TemperaturaFervura;
  5384  000D3E  C0AE  F01F         	movff	_ReceitaAtual+13,_SetPointTempPanela
  5385                           
  5386                           ; BSR set to: 0
  5387                           ;brassagem.c: 521: TempPanelaOK = 0;
  5388  000D42  9C45               	bcf	_TempPanelaOK/(0+8),_TempPanelaOK& (0+7),c
  5389                           
  5390                           ;brassagem.c: 522: EscreverDWINram(0x31,8);
  5391  000D44  0E00               	movlw	0
  5392  000D46  0101               	movlb	1	; () banked
  5393  000D48  6F60               	movwf	(EscreverDWINram@endereco+1)& (0+255),b
  5394  000D4A  0E31               	movlw	49
  5395  000D4C  6F5F               	movwf	EscreverDWINram@endereco& (0+255),b
  5396  000D4E  0E00               	movlw	0
  5397  000D50  0101               	movlb	1	; () banked
  5398  000D52  6F62               	movwf	(EscreverDWINram@valor+1)& (0+255),b
  5399  000D54  0E08               	movlw	8
  5400  000D56  6F61               	movwf	EscreverDWINram@valor& (0+255),b
  5401  000D58  ECCD  F016         	call	_EscreverDWINram	;wreg free
  5402                           
  5403                           ;brassagem.c: 523: OnOffControleTemp = 0;
  5404  000D5C  9E44               	bcf	_OnOffControleTemp/(0+8),_OnOffControleTemp& (0+7),c
  5405                           
  5406                           ;brassagem.c: 524: PORTDbits.RD2 = 1;
  5407  000D5E  8483               	bsf	3971,2,c	;volatile
  5408                           
  5409                           ;brassagem.c: 525: PORTDbits.RD3 = 0;
  5410  000D60  9683               	bcf	3971,3,c	;volatile
  5411                           
  5412                           ;brassagem.c: 526: PORTBbits.RB1 = 1;
  5413  000D62  8281               	bsf	3969,1,c	;volatile
  5414                           
  5415                           ;brassagem.c: 527: CCPR2L = 0;
  5416  000D64  0E00               	movlw	0
  5417  000D66  6EBB               	movwf	4027,c	;volatile
  5418                           
  5419                           ;brassagem.c: 528: EscreverDWINram(0x39,0);
  5420  000D68  0E00               	movlw	0
  5421  000D6A  0101               	movlb	1	; () banked
  5422  000D6C  6F60               	movwf	(EscreverDWINram@endereco+1)& (0+255),b
  5423  000D6E  0E39               	movlw	57
  5424  000D70  6F5F               	movwf	EscreverDWINram@endereco& (0+255),b
  5425  000D72  0E00               	movlw	0
  5426  000D74  0101               	movlb	1	; () banked
  5427  000D76  6F62               	movwf	(EscreverDWINram@valor+1)& (0+255),b
  5428  000D78  0E00               	movlw	0
  5429  000D7A  6F61               	movwf	EscreverDWINram@valor& (0+255),b
  5430  000D7C  ECCD  F016         	call	_EscreverDWINram	;wreg free
  5431                           
  5432                           ;brassagem.c: 529: EscreverDWINram(0x2B,100);
  5433  000D80  0E00               	movlw	0
  5434  000D82  0101               	movlb	1	; () banked
  5435  000D84  6F60               	movwf	(EscreverDWINram@endereco+1)& (0+255),b
  5436  000D86  0E2B               	movlw	43
  5437  000D88  6F5F               	movwf	EscreverDWINram@endereco& (0+255),b
  5438  000D8A  0E00               	movlw	0
  5439  000D8C  0101               	movlb	1	; () banked
  5440  000D8E  6F62               	movwf	(EscreverDWINram@valor+1)& (0+255),b
  5441  000D90  0E64               	movlw	100
  5442  000D92  6F61               	movwf	EscreverDWINram@valor& (0+255),b
  5443  000D94  ECCD  F016         	call	_EscreverDWINram	;wreg free
  5444  000D98  D0A9               	goto	l6553
  5445                           
  5446                           ; BSR set to: 0
  5447                           ;brassagem.c: 531: }
  5448                           ;brassagem.c: 532: break;
  5449                           
  5450                           ;brassagem.c: 530: EstadoBrassagem = PREFERVURA;
  5451  000D9A  D3D2               	goto	l690
  5452  000D9C                     l6499:
  5453                           
  5454                           ; BSR set to: 0
  5455                           ;brassagem.c: 534: EscreverDWINram(0x37,ValoresAD[1]);
  5456  000D9C  0E00               	movlw	0
  5457  000D9E  0101               	movlb	1	; () banked
  5458  000DA0  6F60               	movwf	(EscreverDWINram@endereco+1)& (0+255),b
  5459  000DA2  0E37               	movlw	55
  5460  000DA4  6F5F               	movwf	EscreverDWINram@endereco& (0+255),b
  5461  000DA6  C003  F161         	movff	_ValoresAD+2,EscreverDWINram@valor
  5462  000DAA  C004  F162         	movff	_ValoresAD+3,EscreverDWINram@valor+1
  5463  000DAE  ECCD  F016         	call	_EscreverDWINram	;wreg free
  5464                           
  5465                           ;brassagem.c: 535: temp = LerDWINram(0x39) * 255;
  5466  000DB2  0E00               	movlw	0
  5467  000DB4  0101               	movlb	1	; () banked
  5468  000DB6  6F53               	movwf	(LerDWINram@endereco+1)& (0+255),b
  5469  000DB8  0E39               	movlw	57
  5470  000DBA  6F52               	movwf	LerDWINram@endereco& (0+255),b
  5471  000DBC  ECB4  F014         	call	_LerDWINram	;wreg free
  5472  000DC0  C152  F157         	movff	?_LerDWINram,___wmul@multiplier
  5473  000DC4  C153  F158         	movff	?_LerDWINram+1,___wmul@multiplier+1
  5474  000DC8  0E00               	movlw	0
  5475  000DCA  0101               	movlb	1	; () banked
  5476  000DCC  6F5A               	movwf	(___wmul@multiplicand+1)& (0+255),b
  5477  000DCE  6959               	setf	___wmul@multiplicand& (0+255),b
  5478  000DD0  ECF2  F017         	call	___wmul	;wreg free
  5479  000DD4  C157  F17A         	movff	?___wmul,ExecutaBrassagem@temp
  5480  000DD8  C158  F17B         	movff	?___wmul+1,ExecutaBrassagem@temp+1
  5481                           
  5482                           ;brassagem.c: 536: CCPR2L = temp / 100;
  5483  000DDC  C17A  F150         	movff	ExecutaBrassagem@temp,___lwdiv@dividend
  5484  000DE0  C17B  F151         	movff	ExecutaBrassagem@temp+1,___lwdiv@dividend+1
  5485  000DE4  0E00               	movlw	0
  5486  000DE6  0101               	movlb	1	; () banked
  5487  000DE8  6F53               	movwf	(___lwdiv@divisor+1)& (0+255),b
  5488  000DEA  0E64               	movlw	100
  5489  000DEC  6F52               	movwf	___lwdiv@divisor& (0+255),b
  5490  000DEE  EC0B  F016         	call	___lwdiv	;wreg free
  5491  000DF2  0101               	movlb	1	; () banked
  5492  000DF4  5150               	movf	?___lwdiv& (0+255),w,b
  5493  000DF6  6EBB               	movwf	4027,c	;volatile
  5494                           
  5495                           ; BSR set to: 1
  5496                           ;brassagem.c: 537: if(PORTBbits.RB2){
  5497  000DF8  A481               	btfss	3969,2,c	;volatile
  5498  000DFA  D006               	goto	l6507
  5499                           
  5500                           ; BSR set to: 1
  5501                           ;brassagem.c: 538: CCPR2L = 0;
  5502  000DFC  0E00               	movlw	0
  5503  000DFE  6EBB               	movwf	4027,c	;volatile
  5504                           
  5505                           ;brassagem.c: 539: EstadoBrassagem = ENCHENDOBOILER;
  5506  000E00  0E16               	movlw	22
  5507  000E02  0100               	movlb	0	; () banked
  5508  000E04  6F96               	movwf	ExecutaBrassagem@EstadoBrassagem& (0+255),b
  5509  000E06  D000               	goto	l6507
  5510  000E08                     l6507:
  5511                           
  5512                           ;brassagem.c: 540: }
  5513                           ;brassagem.c: 541: if(PORTCbits.RC2){
  5514  000E08  A482               	btfss	3970,2,c	;volatile
  5515  000E0A  D39A               	goto	l690
  5516                           
  5517                           ;brassagem.c: 542: EscreverDWINreg(3,6);
  5518  000E0C  0E00               	movlw	0
  5519  000E0E  0101               	movlb	1	; () banked
  5520  000E10  6F53               	movwf	(EscreverDWINreg@valor+1)& (0+255),b
  5521  000E12  0E06               	movlw	6
  5522  000E14  6F52               	movwf	EscreverDWINreg@valor& (0+255),b
  5523  000E16  0E03               	movlw	3
  5524  000E18  EC03  F017         	call	_EscreverDWINreg
  5525                           
  5526                           ;brassagem.c: 543: CCPR2L = 0;
  5527  000E1C  0E00               	movlw	0
  5528  000E1E  6EBB               	movwf	4027,c	;volatile
  5529                           
  5530                           ;brassagem.c: 544: AcionaValvulaMotorizada(0,0b00001000);
  5531  000E20  0E08               	movlw	8
  5532  000E22  0101               	movlb	1	; () banked
  5533  000E24  6F54               	movwf	AcionaValvulaMotorizada@valvula& (0+255),b
  5534  000E26  0E00               	movlw	0
  5535  000E28  EC6A  F015         	call	_AcionaValvulaMotorizada
  5536                           
  5537                           ;brassagem.c: 545: AcionaValvulaMotorizada(0,0b00000010);
  5538  000E2C  0E02               	movlw	2
  5539  000E2E  0101               	movlb	1	; () banked
  5540  000E30  6F54               	movwf	AcionaValvulaMotorizada@valvula& (0+255),b
  5541  000E32  0E00               	movlw	0
  5542  000E34  EC6A  F015         	call	_AcionaValvulaMotorizada
  5543                           
  5544                           ;brassagem.c: 546: AcionaValvulaMotorizada(1,0b00000100);
  5545  000E38  0E04               	movlw	4
  5546  000E3A  0101               	movlb	1	; () banked
  5547  000E3C  6F54               	movwf	AcionaValvulaMotorizada@valvula& (0+255),b
  5548  000E3E  0E01               	movlw	1
  5549  000E40  EC6A  F015         	call	_AcionaValvulaMotorizada
  5550                           
  5551                           ;brassagem.c: 547: AcionaValvulaMotorizada(1,0b00010000);
  5552  000E44  0E10               	movlw	16
  5553  000E46  0101               	movlb	1	; () banked
  5554  000E48  6F54               	movwf	AcionaValvulaMotorizada@valvula& (0+255),b
  5555  000E4A  0E01               	movlw	1
  5556  000E4C  EC6A  F015         	call	_AcionaValvulaMotorizada
  5557                           
  5558                           ;brassagem.c: 548: Minutos = 0;
  5559  000E50  0E00               	movlw	0
  5560  000E52  0100               	movlb	0	; () banked
  5561  000E54  6F98               	movwf	_Minutos& (0+255),b
  5562                           
  5563                           ; BSR set to: 0
  5564                           ;brassagem.c: 549: Segundos = 0;
  5565  000E56  0E00               	movlw	0
  5566  000E58  6E1E               	movwf	_Segundos,c
  5567                           
  5568                           ; BSR set to: 0
  5569                           ;brassagem.c: 550: SetPointTempPanela = ReceitaAtual.TemperaturaFervura;
  5570  000E5A  C0AE  F01F         	movff	_ReceitaAtual+13,_SetPointTempPanela
  5571                           
  5572                           ; BSR set to: 0
  5573                           ;brassagem.c: 551: TempPanelaOK = 0;
  5574  000E5E  9C45               	bcf	_TempPanelaOK/(0+8),_TempPanelaOK& (0+7),c
  5575                           
  5576                           ; BSR set to: 0
  5577                           ;brassagem.c: 552: EscreverDWINram(0x31,8);
  5578  000E60  0E00               	movlw	0
  5579  000E62  0101               	movlb	1	; () banked
  5580  000E64  6F60               	movwf	(EscreverDWINram@endereco+1)& (0+255),b
  5581  000E66  0E31               	movlw	49
  5582  000E68  6F5F               	movwf	EscreverDWINram@endereco& (0+255),b
  5583  000E6A  0E00               	movlw	0
  5584  000E6C  0101               	movlb	1	; () banked
  5585  000E6E  6F62               	movwf	(EscreverDWINram@valor+1)& (0+255),b
  5586  000E70  0E08               	movlw	8
  5587  000E72  6F61               	movwf	EscreverDWINram@valor& (0+255),b
  5588  000E74  ECCD  F016         	call	_EscreverDWINram	;wreg free
  5589                           
  5590                           ;brassagem.c: 553: OnOffControleTemp = 0;
  5591  000E78  9E44               	bcf	_OnOffControleTemp/(0+8),_OnOffControleTemp& (0+7),c
  5592                           
  5593                           ;brassagem.c: 554: PORTDbits.RD2 = 1;
  5594  000E7A  8483               	bsf	3971,2,c	;volatile
  5595                           
  5596                           ;brassagem.c: 555: PORTDbits.RD3 = 0;
  5597  000E7C  9683               	bcf	3971,3,c	;volatile
  5598                           
  5599                           ;brassagem.c: 556: PORTBbits.RB1 = 1;
  5600  000E7E  8281               	bsf	3969,1,c	;volatile
  5601                           
  5602                           ;brassagem.c: 557: CCPR2L = 0;
  5603  000E80  0E00               	movlw	0
  5604  000E82  6EBB               	movwf	4027,c	;volatile
  5605                           
  5606                           ;brassagem.c: 558: EscreverDWINram(0x39,0);
  5607  000E84  0E00               	movlw	0
  5608  000E86  0101               	movlb	1	; () banked
  5609  000E88  6F60               	movwf	(EscreverDWINram@endereco+1)& (0+255),b
  5610  000E8A  0E39               	movlw	57
  5611  000E8C  6F5F               	movwf	EscreverDWINram@endereco& (0+255),b
  5612  000E8E  0E00               	movlw	0
  5613  000E90  0101               	movlb	1	; () banked
  5614  000E92  6F62               	movwf	(EscreverDWINram@valor+1)& (0+255),b
  5615  000E94  0E00               	movlw	0
  5616  000E96  6F61               	movwf	EscreverDWINram@valor& (0+255),b
  5617  000E98  ECCD  F016         	call	_EscreverDWINram	;wreg free
  5618                           
  5619                           ;brassagem.c: 559: EscreverDWINram(0x2B,100);
  5620  000E9C  0E00               	movlw	0
  5621  000E9E  0101               	movlb	1	; () banked
  5622  000EA0  6F60               	movwf	(EscreverDWINram@endereco+1)& (0+255),b
  5623  000EA2  0E2B               	movlw	43
  5624  000EA4  6F5F               	movwf	EscreverDWINram@endereco& (0+255),b
  5625  000EA6  0E00               	movlw	0
  5626  000EA8  0101               	movlb	1	; () banked
  5627  000EAA  6F62               	movwf	(EscreverDWINram@valor+1)& (0+255),b
  5628  000EAC  0E64               	movlw	100
  5629  000EAE  6F61               	movwf	EscreverDWINram@valor& (0+255),b
  5630  000EB0  ECCD  F016         	call	_EscreverDWINram	;wreg free
  5631  000EB4  D01B               	goto	l6553
  5632                           
  5633                           ; BSR set to: 0
  5634                           ;brassagem.c: 561: }
  5635                           ;brassagem.c: 570: break;
  5636                           
  5637                           ;brassagem.c: 560: EstadoBrassagem = PREFERVURA;
  5638  000EB6  D344               	goto	l690
  5639  000EB8                     l6543:
  5640                           
  5641                           ; BSR set to: 0
  5642                           ;brassagem.c: 572: if(Minutos>=MinutosEtapa){
  5643  000EB8  0101               	movlb	1	; () banked
  5644  000EBA  517C               	movf	ExecutaBrassagem@MinutosEtapa& (0+255),w,b
  5645  000EBC  0100               	movlb	0	; () banked
  5646  000EBE  5D98               	subwf	_Minutos& (0+255),w,b
  5647  000EC0  A0D8               	btfss	status,0,c
  5648  000EC2  D33E               	goto	l690
  5649                           
  5650                           ; BSR set to: 0
  5651                           ;brassagem.c: 573: Minutos = 0;
  5652  000EC4  0E00               	movlw	0
  5653  000EC6  0100               	movlb	0	; () banked
  5654  000EC8  6F98               	movwf	_Minutos& (0+255),b
  5655                           
  5656                           ;brassagem.c: 574: Segundos = 0;
  5657  000ECA  0E00               	movlw	0
  5658  000ECC  6E1E               	movwf	_Segundos,c
  5659                           
  5660                           ; BSR set to: 0
  5661                           ;brassagem.c: 575: SetPointTempPanela = ReceitaAtual.TemperaturaFervura;
  5662  000ECE  C0AE  F01F         	movff	_ReceitaAtual+13,_SetPointTempPanela
  5663                           
  5664                           ; BSR set to: 0
  5665                           ;brassagem.c: 576: TempPanelaOK = 0;
  5666  000ED2  9C45               	bcf	_TempPanelaOK/(0+8),_TempPanelaOK& (0+7),c
  5667                           
  5668                           ; BSR set to: 0
  5669                           ;brassagem.c: 577: EscreverDWINram(0x31,8);
  5670  000ED4  0E00               	movlw	0
  5671  000ED6  0101               	movlb	1	; () banked
  5672  000ED8  6F60               	movwf	(EscreverDWINram@endereco+1)& (0+255),b
  5673  000EDA  0E31               	movlw	49
  5674  000EDC  6F5F               	movwf	EscreverDWINram@endereco& (0+255),b
  5675  000EDE  0E00               	movlw	0
  5676  000EE0  0101               	movlb	1	; () banked
  5677  000EE2  6F62               	movwf	(EscreverDWINram@valor+1)& (0+255),b
  5678  000EE4  0E08               	movlw	8
  5679  000EE6  6F61               	movwf	EscreverDWINram@valor& (0+255),b
  5680  000EE8  ECCD  F016         	call	_EscreverDWINram	;wreg free
  5681  000EEC                     l6553:
  5682                           
  5683                           ;brassagem.c: 578: EstadoBrassagem = PREFERVURA;
  5684  000EEC  0E1A               	movlw	26
  5685  000EEE  D6CD               	goto	L30
  5686                           
  5687                           ; BSR set to: 0
  5688                           ;brassagem.c: 579: }
  5689                           ;brassagem.c: 580: break;
  5690  000EF0  D327               	goto	l690
  5691  000EF2                     l6555:
  5692                           
  5693                           ; BSR set to: 0
  5694                           ;brassagem.c: 582: PWMpanela = 200;
  5695  000EF2  0EC8               	movlw	200
  5696  000EF4  0100               	movlb	0	; () banked
  5697  000EF6  6FE4               	movwf	_PWMpanela& (0+255),b
  5698                           
  5699                           ; BSR set to: 0
  5700                           ;brassagem.c: 583: EscreverDWINram(0x2B,100);
  5701  000EF8  0E00               	movlw	0
  5702  000EFA  0101               	movlb	1	; () banked
  5703  000EFC  6F60               	movwf	(EscreverDWINram@endereco+1)& (0+255),b
  5704  000EFE  0E2B               	movlw	43
  5705  000F00  6F5F               	movwf	EscreverDWINram@endereco& (0+255),b
  5706  000F02  0E00               	movlw	0
  5707  000F04  0101               	movlb	1	; () banked
  5708  000F06  6F62               	movwf	(EscreverDWINram@valor+1)& (0+255),b
  5709  000F08  0E64               	movlw	100
  5710  000F0A  6F61               	movwf	EscreverDWINram@valor& (0+255),b
  5711  000F0C  ECCD  F016         	call	_EscreverDWINram	;wreg free
  5712                           
  5713                           ;brassagem.c: 584: if(ValoresAD[0] >= SetPointTempPanela*10){
  5714  000F10  501F               	movf	_SetPointTempPanela,w,c
  5715  000F12  0D0A               	mullw	10
  5716  000F14  50F3               	movf	prodl,w,c
  5717  000F16  5C01               	subwf	_ValoresAD,w,c
  5718  000F18  50F4               	movf	prodh,w,c
  5719  000F1A  5802               	subwfb	_ValoresAD+1,w,c
  5720  000F1C  A0D8               	btfss	status,0,c
  5721  000F1E  D310               	goto	l690
  5722                           
  5723                           ;brassagem.c: 585: Bipar();
  5724  000F20  EC7F  F018         	call	_Bipar	;wreg free
  5725                           
  5726                           ;brassagem.c: 586: Minutos = 0;
  5727  000F24  0E00               	movlw	0
  5728  000F26  0100               	movlb	0	; () banked
  5729  000F28  6F98               	movwf	_Minutos& (0+255),b
  5730                           
  5731                           ; BSR set to: 0
  5732                           ;brassagem.c: 587: Segundos = 0;
  5733  000F2A  0E00               	movlw	0
  5734  000F2C  6E1E               	movwf	_Segundos,c
  5735                           
  5736                           ; BSR set to: 0
  5737                           ;brassagem.c: 588: MinutosEtapa = ReceitaAtual.TempoFervura;
  5738  000F2E  C0AF  F17C         	movff	_ReceitaAtual+14,ExecutaBrassagem@MinutosEtapa
  5739                           
  5740                           ; BSR set to: 0
  5741                           ;brassagem.c: 589: EstadoBrassagem = FERVURA;
  5742  000F32  0E1B               	movlw	27
  5743  000F34  0100               	movlb	0	; () banked
  5744  000F36  6F96               	movwf	ExecutaBrassagem@EstadoBrassagem& (0+255),b
  5745                           
  5746                           ; BSR set to: 0
  5747                           ;brassagem.c: 590: PWMpanela = 199;
  5748  000F38  0EC7               	movlw	199
  5749  000F3A  0100               	movlb	0	; () banked
  5750  000F3C  6FE4               	movwf	_PWMpanela& (0+255),b
  5751                           
  5752                           ; BSR set to: 0
  5753                           ;brassagem.c: 591: EscreverDWINram(0x2B,100);
  5754  000F3E  0E00               	movlw	0
  5755  000F40  0101               	movlb	1	; () banked
  5756  000F42  6F60               	movwf	(EscreverDWINram@endereco+1)& (0+255),b
  5757  000F44  0E2B               	movlw	43
  5758  000F46  6F5F               	movwf	EscreverDWINram@endereco& (0+255),b
  5759  000F48  0E00               	movlw	0
  5760  000F4A  0101               	movlb	1	; () banked
  5761  000F4C  6F62               	movwf	(EscreverDWINram@valor+1)& (0+255),b
  5762  000F4E  0E64               	movlw	100
  5763  000F50  6F61               	movwf	EscreverDWINram@valor& (0+255),b
  5764  000F52  ECCD  F016         	call	_EscreverDWINram	;wreg free
  5765                           
  5766                           ;brassagem.c: 592: ControlePotenciaFervura = 1;
  5767  000F56  8044               	bsf	_ControlePotenciaFervura/(0+8),_ControlePotenciaFervura& (0+7),c
  5768                           
  5769                           ;brassagem.c: 593: OnOffControleTemp = 0;
  5770  000F58  9E44               	bcf	_OnOffControleTemp/(0+8),_OnOffControleTemp& (0+7),c
  5771                           
  5772                           ;brassagem.c: 594: }
  5773                           ;brassagem.c: 595: break;
  5774  000F5A  D2F2               	goto	l690
  5775  000F5C                     l6579:
  5776                           
  5777                           ;brassagem.c: 597: if(ReceitaAtual.TempoLupulo1 != 0){
  5778  000F5C  0100               	movlb	0	; () banked
  5779  000F5E  51B0               	movf	(_ReceitaAtual+15)& (0+255),w,b
  5780  000F60  B4D8               	btfsc	status,2,c
  5781  000F62  D043               	goto	l666
  5782                           
  5783                           ; BSR set to: 0
  5784                           ;brassagem.c: 598: if((MinutosEtapa-Minutos) == ReceitaAtual.TempoLupulo1){
  5785  000F64  0100               	movlb	0	; () banked
  5786  000F66  51B0               	movf	(_ReceitaAtual+15)& (0+255),w,b
  5787  000F68  0101               	movlb	1	; () banked
  5788  000F6A  6F74               	movwf	??_ExecutaBrassagem& (0+255),b
  5789  000F6C  6B75               	clrf	(??_ExecutaBrassagem+1)& (0+255),b
  5790  000F6E  0100               	movlb	0	; () banked
  5791  000F70  5198               	movf	_Minutos& (0+255),w,b
  5792  000F72  0101               	movlb	1	; () banked
  5793  000F74  6F76               	movwf	(??_ExecutaBrassagem+2)& (0+255),b
  5794  000F76  6B77               	clrf	(??_ExecutaBrassagem+3)& (0+255),b
  5795  000F78  0101               	movlb	1	; () banked
  5796  000F7A  1F76               	comf	(??_ExecutaBrassagem+2)& (0+255),f,b
  5797  000F7C  1F77               	comf	(??_ExecutaBrassagem+3)& (0+255),f,b
  5798  000F7E  4B76               	infsnz	(??_ExecutaBrassagem+2)& (0+255),f,b
  5799  000F80  2B77               	incf	(??_ExecutaBrassagem+3)& (0+255),f,b
  5800  000F82  0101               	movlb	1	; () banked
  5801  000F84  517C               	movf	ExecutaBrassagem@MinutosEtapa& (0+255),w,b
  5802  000F86  0101               	movlb	1	; () banked
  5803  000F88  6F78               	movwf	(??_ExecutaBrassagem+4)& (0+255),b
  5804  000F8A  6B79               	clrf	(??_ExecutaBrassagem+5)& (0+255),b
  5805  000F8C  0101               	movlb	1	; () banked
  5806  000F8E  5176               	movf	(??_ExecutaBrassagem+2)& (0+255),w,b
  5807  000F90  0101               	movlb	1	; () banked
  5808  000F92  2778               	addwf	(??_ExecutaBrassagem+4)& (0+255),f,b
  5809  000F94  0101               	movlb	1	; () banked
  5810  000F96  5177               	movf	(??_ExecutaBrassagem+3)& (0+255),w,b
  5811  000F98  0101               	movlb	1	; () banked
  5812  000F9A  2379               	addwfc	(??_ExecutaBrassagem+5)& (0+255),f,b
  5813  000F9C  0101               	movlb	1	; () banked
  5814  000F9E  5174               	movf	??_ExecutaBrassagem& (0+255),w,b
  5815  000FA0  0101               	movlb	1	; () banked
  5816  000FA2  1978               	xorwf	(??_ExecutaBrassagem+4)& (0+255),w,b
  5817  000FA4  E122               	bnz	l666
  5818  000FA6  0101               	movlb	1	; () banked
  5819  000FA8  5175               	movf	(??_ExecutaBrassagem+1)& (0+255),w,b
  5820  000FAA  0101               	movlb	1	; () banked
  5821  000FAC  1979               	xorwf	(??_ExecutaBrassagem+5)& (0+255),w,b
  5822  000FAE  A4D8               	btfss	status,2,c
  5823  000FB0  D01C               	goto	l666
  5824                           
  5825                           ; BSR set to: 1
  5826                           ;brassagem.c: 599: ReceitaAtual.TempoLupulo1 = 0;
  5827  000FB2  0E00               	movlw	0
  5828  000FB4  0100               	movlb	0	; () banked
  5829  000FB6  6FB0               	movwf	(_ReceitaAtual+15)& (0+255),b
  5830                           
  5831                           ; BSR set to: 0
  5832                           ;brassagem.c: 600: EscreverDWINram(0x31,9);
  5833  000FB8  0E00               	movlw	0
  5834  000FBA  0101               	movlb	1	; () banked
  5835  000FBC  6F60               	movwf	(EscreverDWINram@endereco+1)& (0+255),b
  5836  000FBE  0E31               	movlw	49
  5837  000FC0  6F5F               	movwf	EscreverDWINram@endereco& (0+255),b
  5838  000FC2  0E00               	movlw	0
  5839  000FC4  0101               	movlb	1	; () banked
  5840  000FC6  6F62               	movwf	(EscreverDWINram@valor+1)& (0+255),b
  5841  000FC8  0E09               	movlw	9
  5842  000FCA  6F61               	movwf	EscreverDWINram@valor& (0+255),b
  5843  000FCC  ECCD  F016         	call	_EscreverDWINram	;wreg free
  5844                           
  5845                           ;brassagem.c: 601: EscreverDWINreg(3,8);
  5846  000FD0  0E00               	movlw	0
  5847  000FD2  0101               	movlb	1	; () banked
  5848  000FD4  6F53               	movwf	(EscreverDWINreg@valor+1)& (0+255),b
  5849  000FD6  0E08               	movlw	8
  5850  000FD8  6F52               	movwf	EscreverDWINreg@valor& (0+255),b
  5851  000FDA  0E03               	movlw	3
  5852  000FDC  EC03  F017         	call	_EscreverDWINreg
  5853                           
  5854                           ;brassagem.c: 602: PORTDbits.RD4 = 1;
  5855  000FE0  8883               	bsf	3971,4,c	;volatile
  5856                           
  5857                           ;brassagem.c: 603: EstadoBrassagem = ADICAOLUPULO;
  5858  000FE2  0E1C               	movlw	28
  5859  000FE4  0100               	movlb	0	; () banked
  5860  000FE6  6F96               	movwf	ExecutaBrassagem@EstadoBrassagem& (0+255),b
  5861  000FE8  D000               	goto	l666
  5862  000FEA                     l666:
  5863                           
  5864                           ;brassagem.c: 604: }
  5865                           ;brassagem.c: 605: }
  5866                           ;brassagem.c: 606: if(ReceitaAtual.TempoLupulo2 != 0){
  5867  000FEA  0100               	movlb	0	; () banked
  5868  000FEC  51B1               	movf	(_ReceitaAtual+16)& (0+255),w,b
  5869  000FEE  B4D8               	btfsc	status,2,c
  5870  000FF0  D043               	goto	l668
  5871                           
  5872                           ; BSR set to: 0
  5873                           ;brassagem.c: 607: if((MinutosEtapa-Minutos) == ReceitaAtual.TempoLupulo2){
  5874  000FF2  0100               	movlb	0	; () banked
  5875  000FF4  51B1               	movf	(_ReceitaAtual+16)& (0+255),w,b
  5876  000FF6  0101               	movlb	1	; () banked
  5877  000FF8  6F74               	movwf	??_ExecutaBrassagem& (0+255),b
  5878  000FFA  6B75               	clrf	(??_ExecutaBrassagem+1)& (0+255),b
  5879  000FFC  0100               	movlb	0	; () banked
  5880  000FFE  5198               	movf	_Minutos& (0+255),w,b
  5881  001000  0101               	movlb	1	; () banked
  5882  001002  6F76               	movwf	(??_ExecutaBrassagem+2)& (0+255),b
  5883  001004  6B77               	clrf	(??_ExecutaBrassagem+3)& (0+255),b
  5884  001006  0101               	movlb	1	; () banked
  5885  001008  1F76               	comf	(??_ExecutaBrassagem+2)& (0+255),f,b
  5886  00100A  1F77               	comf	(??_ExecutaBrassagem+3)& (0+255),f,b
  5887  00100C  4B76               	infsnz	(??_ExecutaBrassagem+2)& (0+255),f,b
  5888  00100E  2B77               	incf	(??_ExecutaBrassagem+3)& (0+255),f,b
  5889  001010  0101               	movlb	1	; () banked
  5890  001012  517C               	movf	ExecutaBrassagem@MinutosEtapa& (0+255),w,b
  5891  001014  0101               	movlb	1	; () banked
  5892  001016  6F78               	movwf	(??_ExecutaBrassagem+4)& (0+255),b
  5893  001018  6B79               	clrf	(??_ExecutaBrassagem+5)& (0+255),b
  5894  00101A  0101               	movlb	1	; () banked
  5895  00101C  5176               	movf	(??_ExecutaBrassagem+2)& (0+255),w,b
  5896  00101E  0101               	movlb	1	; () banked
  5897  001020  2778               	addwf	(??_ExecutaBrassagem+4)& (0+255),f,b
  5898  001022  0101               	movlb	1	; () banked
  5899  001024  5177               	movf	(??_ExecutaBrassagem+3)& (0+255),w,b
  5900  001026  0101               	movlb	1	; () banked
  5901  001028  2379               	addwfc	(??_ExecutaBrassagem+5)& (0+255),f,b
  5902  00102A  0101               	movlb	1	; () banked
  5903  00102C  5174               	movf	??_ExecutaBrassagem& (0+255),w,b
  5904  00102E  0101               	movlb	1	; () banked
  5905  001030  1978               	xorwf	(??_ExecutaBrassagem+4)& (0+255),w,b
  5906  001032  E122               	bnz	l668
  5907  001034  0101               	movlb	1	; () banked
  5908  001036  5175               	movf	(??_ExecutaBrassagem+1)& (0+255),w,b
  5909  001038  0101               	movlb	1	; () banked
  5910  00103A  1979               	xorwf	(??_ExecutaBrassagem+5)& (0+255),w,b
  5911  00103C  A4D8               	btfss	status,2,c
  5912  00103E  D01C               	goto	l668
  5913                           
  5914                           ; BSR set to: 1
  5915                           ;brassagem.c: 608: ReceitaAtual.TempoLupulo2 = 0;
  5916  001040  0E00               	movlw	0
  5917  001042  0100               	movlb	0	; () banked
  5918  001044  6FB1               	movwf	(_ReceitaAtual+16)& (0+255),b
  5919                           
  5920                           ; BSR set to: 0
  5921                           ;brassagem.c: 609: EscreverDWINram(0x31,9);
  5922  001046  0E00               	movlw	0
  5923  001048  0101               	movlb	1	; () banked
  5924  00104A  6F60               	movwf	(EscreverDWINram@endereco+1)& (0+255),b
  5925  00104C  0E31               	movlw	49
  5926  00104E  6F5F               	movwf	EscreverDWINram@endereco& (0+255),b
  5927  001050  0E00               	movlw	0
  5928  001052  0101               	movlb	1	; () banked
  5929  001054  6F62               	movwf	(EscreverDWINram@valor+1)& (0+255),b
  5930  001056  0E09               	movlw	9
  5931  001058  6F61               	movwf	EscreverDWINram@valor& (0+255),b
  5932  00105A  ECCD  F016         	call	_EscreverDWINram	;wreg free
  5933                           
  5934                           ;brassagem.c: 610: EscreverDWINreg(3,8);
  5935  00105E  0E00               	movlw	0
  5936  001060  0101               	movlb	1	; () banked
  5937  001062  6F53               	movwf	(EscreverDWINreg@valor+1)& (0+255),b
  5938  001064  0E08               	movlw	8
  5939  001066  6F52               	movwf	EscreverDWINreg@valor& (0+255),b
  5940  001068  0E03               	movlw	3
  5941  00106A  EC03  F017         	call	_EscreverDWINreg
  5942                           
  5943                           ;brassagem.c: 611: PORTDbits.RD4 = 1;
  5944  00106E  8883               	bsf	3971,4,c	;volatile
  5945                           
  5946                           ;brassagem.c: 612: EstadoBrassagem = ADICAOLUPULO;
  5947  001070  0E1C               	movlw	28
  5948  001072  0100               	movlb	0	; () banked
  5949  001074  6F96               	movwf	ExecutaBrassagem@EstadoBrassagem& (0+255),b
  5950  001076  D000               	goto	l668
  5951  001078                     l668:
  5952                           
  5953                           ;brassagem.c: 613: }
  5954                           ;brassagem.c: 614: }
  5955                           ;brassagem.c: 615: if(ReceitaAtual.TempoLupulo3 != 0){
  5956  001078  0100               	movlb	0	; () banked
  5957  00107A  51B2               	movf	(_ReceitaAtual+17)& (0+255),w,b
  5958  00107C  B4D8               	btfsc	status,2,c
  5959  00107E  D043               	goto	l670
  5960                           
  5961                           ; BSR set to: 0
  5962                           ;brassagem.c: 616: if((MinutosEtapa-Minutos) == ReceitaAtual.TempoLupulo3){
  5963  001080  0100               	movlb	0	; () banked
  5964  001082  51B2               	movf	(_ReceitaAtual+17)& (0+255),w,b
  5965  001084  0101               	movlb	1	; () banked
  5966  001086  6F74               	movwf	??_ExecutaBrassagem& (0+255),b
  5967  001088  6B75               	clrf	(??_ExecutaBrassagem+1)& (0+255),b
  5968  00108A  0100               	movlb	0	; () banked
  5969  00108C  5198               	movf	_Minutos& (0+255),w,b
  5970  00108E  0101               	movlb	1	; () banked
  5971  001090  6F76               	movwf	(??_ExecutaBrassagem+2)& (0+255),b
  5972  001092  6B77               	clrf	(??_ExecutaBrassagem+3)& (0+255),b
  5973  001094  0101               	movlb	1	; () banked
  5974  001096  1F76               	comf	(??_ExecutaBrassagem+2)& (0+255),f,b
  5975  001098  1F77               	comf	(??_ExecutaBrassagem+3)& (0+255),f,b
  5976  00109A  4B76               	infsnz	(??_ExecutaBrassagem+2)& (0+255),f,b
  5977  00109C  2B77               	incf	(??_ExecutaBrassagem+3)& (0+255),f,b
  5978  00109E  0101               	movlb	1	; () banked
  5979  0010A0  517C               	movf	ExecutaBrassagem@MinutosEtapa& (0+255),w,b
  5980  0010A2  0101               	movlb	1	; () banked
  5981  0010A4  6F78               	movwf	(??_ExecutaBrassagem+4)& (0+255),b
  5982  0010A6  6B79               	clrf	(??_ExecutaBrassagem+5)& (0+255),b
  5983  0010A8  0101               	movlb	1	; () banked
  5984  0010AA  5176               	movf	(??_ExecutaBrassagem+2)& (0+255),w,b
  5985  0010AC  0101               	movlb	1	; () banked
  5986  0010AE  2778               	addwf	(??_ExecutaBrassagem+4)& (0+255),f,b
  5987  0010B0  0101               	movlb	1	; () banked
  5988  0010B2  5177               	movf	(??_ExecutaBrassagem+3)& (0+255),w,b
  5989  0010B4  0101               	movlb	1	; () banked
  5990  0010B6  2379               	addwfc	(??_ExecutaBrassagem+5)& (0+255),f,b
  5991  0010B8  0101               	movlb	1	; () banked
  5992  0010BA  5174               	movf	??_ExecutaBrassagem& (0+255),w,b
  5993  0010BC  0101               	movlb	1	; () banked
  5994  0010BE  1978               	xorwf	(??_ExecutaBrassagem+4)& (0+255),w,b
  5995  0010C0  E122               	bnz	l670
  5996  0010C2  0101               	movlb	1	; () banked
  5997  0010C4  5175               	movf	(??_ExecutaBrassagem+1)& (0+255),w,b
  5998  0010C6  0101               	movlb	1	; () banked
  5999  0010C8  1979               	xorwf	(??_ExecutaBrassagem+5)& (0+255),w,b
  6000  0010CA  A4D8               	btfss	status,2,c
  6001  0010CC  D01C               	goto	l670
  6002                           
  6003                           ; BSR set to: 1
  6004                           ;brassagem.c: 617: ReceitaAtual.TempoLupulo3 = 0;
  6005  0010CE  0E00               	movlw	0
  6006  0010D0  0100               	movlb	0	; () banked
  6007  0010D2  6FB2               	movwf	(_ReceitaAtual+17)& (0+255),b
  6008                           
  6009                           ; BSR set to: 0
  6010                           ;brassagem.c: 618: EscreverDWINram(0x31,9);
  6011  0010D4  0E00               	movlw	0
  6012  0010D6  0101               	movlb	1	; () banked
  6013  0010D8  6F60               	movwf	(EscreverDWINram@endereco+1)& (0+255),b
  6014  0010DA  0E31               	movlw	49
  6015  0010DC  6F5F               	movwf	EscreverDWINram@endereco& (0+255),b
  6016  0010DE  0E00               	movlw	0
  6017  0010E0  0101               	movlb	1	; () banked
  6018  0010E2  6F62               	movwf	(EscreverDWINram@valor+1)& (0+255),b
  6019  0010E4  0E09               	movlw	9
  6020  0010E6  6F61               	movwf	EscreverDWINram@valor& (0+255),b
  6021  0010E8  ECCD  F016         	call	_EscreverDWINram	;wreg free
  6022                           
  6023                           ;brassagem.c: 619: EscreverDWINreg(3,8);
  6024  0010EC  0E00               	movlw	0
  6025  0010EE  0101               	movlb	1	; () banked
  6026  0010F0  6F53               	movwf	(EscreverDWINreg@valor+1)& (0+255),b
  6027  0010F2  0E08               	movlw	8
  6028  0010F4  6F52               	movwf	EscreverDWINreg@valor& (0+255),b
  6029  0010F6  0E03               	movlw	3
  6030  0010F8  EC03  F017         	call	_EscreverDWINreg
  6031                           
  6032                           ;brassagem.c: 620: PORTDbits.RD4 = 1;
  6033  0010FC  8883               	bsf	3971,4,c	;volatile
  6034                           
  6035                           ;brassagem.c: 621: EstadoBrassagem = ADICAOLUPULO;
  6036  0010FE  0E1C               	movlw	28
  6037  001100  0100               	movlb	0	; () banked
  6038  001102  6F96               	movwf	ExecutaBrassagem@EstadoBrassagem& (0+255),b
  6039  001104  D000               	goto	l670
  6040  001106                     l670:
  6041                           
  6042                           ;brassagem.c: 622: }
  6043                           ;brassagem.c: 623: }
  6044                           ;brassagem.c: 624: if(ReceitaAtual.TempoLupulo4 != 0){
  6045  001106  0100               	movlb	0	; () banked
  6046  001108  51B3               	movf	(_ReceitaAtual+18)& (0+255),w,b
  6047  00110A  B4D8               	btfsc	status,2,c
  6048  00110C  D043               	goto	l6621
  6049                           
  6050                           ; BSR set to: 0
  6051                           ;brassagem.c: 625: if((MinutosEtapa-Minutos) == ReceitaAtual.TempoLupulo4){
  6052  00110E  0100               	movlb	0	; () banked
  6053  001110  51B3               	movf	(_ReceitaAtual+18)& (0+255),w,b
  6054  001112  0101               	movlb	1	; () banked
  6055  001114  6F74               	movwf	??_ExecutaBrassagem& (0+255),b
  6056  001116  6B75               	clrf	(??_ExecutaBrassagem+1)& (0+255),b
  6057  001118  0100               	movlb	0	; () banked
  6058  00111A  5198               	movf	_Minutos& (0+255),w,b
  6059  00111C  0101               	movlb	1	; () banked
  6060  00111E  6F76               	movwf	(??_ExecutaBrassagem+2)& (0+255),b
  6061  001120  6B77               	clrf	(??_ExecutaBrassagem+3)& (0+255),b
  6062  001122  0101               	movlb	1	; () banked
  6063  001124  1F76               	comf	(??_ExecutaBrassagem+2)& (0+255),f,b
  6064  001126  1F77               	comf	(??_ExecutaBrassagem+3)& (0+255),f,b
  6065  001128  4B76               	infsnz	(??_ExecutaBrassagem+2)& (0+255),f,b
  6066  00112A  2B77               	incf	(??_ExecutaBrassagem+3)& (0+255),f,b
  6067  00112C  0101               	movlb	1	; () banked
  6068  00112E  517C               	movf	ExecutaBrassagem@MinutosEtapa& (0+255),w,b
  6069  001130  0101               	movlb	1	; () banked
  6070  001132  6F78               	movwf	(??_ExecutaBrassagem+4)& (0+255),b
  6071  001134  6B79               	clrf	(??_ExecutaBrassagem+5)& (0+255),b
  6072  001136  0101               	movlb	1	; () banked
  6073  001138  5176               	movf	(??_ExecutaBrassagem+2)& (0+255),w,b
  6074  00113A  0101               	movlb	1	; () banked
  6075  00113C  2778               	addwf	(??_ExecutaBrassagem+4)& (0+255),f,b
  6076  00113E  0101               	movlb	1	; () banked
  6077  001140  5177               	movf	(??_ExecutaBrassagem+3)& (0+255),w,b
  6078  001142  0101               	movlb	1	; () banked
  6079  001144  2379               	addwfc	(??_ExecutaBrassagem+5)& (0+255),f,b
  6080  001146  0101               	movlb	1	; () banked
  6081  001148  5174               	movf	??_ExecutaBrassagem& (0+255),w,b
  6082  00114A  0101               	movlb	1	; () banked
  6083  00114C  1978               	xorwf	(??_ExecutaBrassagem+4)& (0+255),w,b
  6084  00114E  E122               	bnz	l6621
  6085  001150  0101               	movlb	1	; () banked
  6086  001152  5175               	movf	(??_ExecutaBrassagem+1)& (0+255),w,b
  6087  001154  0101               	movlb	1	; () banked
  6088  001156  1979               	xorwf	(??_ExecutaBrassagem+5)& (0+255),w,b
  6089  001158  A4D8               	btfss	status,2,c
  6090  00115A  D01C               	goto	l6621
  6091                           
  6092                           ; BSR set to: 1
  6093                           ;brassagem.c: 626: ReceitaAtual.TempoLupulo4 = 0;
  6094  00115C  0E00               	movlw	0
  6095  00115E  0100               	movlb	0	; () banked
  6096  001160  6FB3               	movwf	(_ReceitaAtual+18)& (0+255),b
  6097                           
  6098                           ; BSR set to: 0
  6099                           ;brassagem.c: 627: EscreverDWINram(0x31,9);
  6100  001162  0E00               	movlw	0
  6101  001164  0101               	movlb	1	; () banked
  6102  001166  6F60               	movwf	(EscreverDWINram@endereco+1)& (0+255),b
  6103  001168  0E31               	movlw	49
  6104  00116A  6F5F               	movwf	EscreverDWINram@endereco& (0+255),b
  6105  00116C  0E00               	movlw	0
  6106  00116E  0101               	movlb	1	; () banked
  6107  001170  6F62               	movwf	(EscreverDWINram@valor+1)& (0+255),b
  6108  001172  0E09               	movlw	9
  6109  001174  6F61               	movwf	EscreverDWINram@valor& (0+255),b
  6110  001176  ECCD  F016         	call	_EscreverDWINram	;wreg free
  6111                           
  6112                           ;brassagem.c: 628: EscreverDWINreg(3,8);
  6113  00117A  0E00               	movlw	0
  6114  00117C  0101               	movlb	1	; () banked
  6115  00117E  6F53               	movwf	(EscreverDWINreg@valor+1)& (0+255),b
  6116  001180  0E08               	movlw	8
  6117  001182  6F52               	movwf	EscreverDWINreg@valor& (0+255),b
  6118  001184  0E03               	movlw	3
  6119  001186  EC03  F017         	call	_EscreverDWINreg
  6120                           
  6121                           ;brassagem.c: 629: PORTDbits.RD4 = 1;
  6122  00118A  8883               	bsf	3971,4,c	;volatile
  6123                           
  6124                           ;brassagem.c: 630: EstadoBrassagem = ADICAOLUPULO;
  6125  00118C  0E1C               	movlw	28
  6126  00118E  0100               	movlb	0	; () banked
  6127  001190  6F96               	movwf	ExecutaBrassagem@EstadoBrassagem& (0+255),b
  6128                           
  6129                           ; BSR set to: 0
  6130  001192  D000               	goto	l6621
  6131  001194                     l6621:
  6132                           
  6133                           ;brassagem.c: 631: }
  6134                           ;brassagem.c: 632: }
  6135                           ;brassagem.c: 633: if(Minutos>=MinutosEtapa){
  6136  001194  0101               	movlb	1	; () banked
  6137  001196  517C               	movf	ExecutaBrassagem@MinutosEtapa& (0+255),w,b
  6138  001198  0100               	movlb	0	; () banked
  6139  00119A  5D98               	subwf	_Minutos& (0+255),w,b
  6140  00119C  A0D8               	btfss	status,0,c
  6141  00119E  D1D0               	goto	l690
  6142                           
  6143                           ; BSR set to: 0
  6144                           ;brassagem.c: 634: EscreverDWINreg(3,21);
  6145  0011A0  0E00               	movlw	0
  6146  0011A2  0101               	movlb	1	; () banked
  6147  0011A4  6F53               	movwf	(EscreverDWINreg@valor+1)& (0+255),b
  6148  0011A6  0E15               	movlw	21
  6149  0011A8  6F52               	movwf	EscreverDWINreg@valor& (0+255),b
  6150  0011AA  0E03               	movlw	3
  6151  0011AC  EC03  F017         	call	_EscreverDWINreg
  6152                           
  6153                           ;brassagem.c: 635: PORTDbits.RD4 = 1;
  6154  0011B0  8883               	bsf	3971,4,c	;volatile
  6155                           
  6156                           ;brassagem.c: 636: EstadoBrassagem = FINALIZARFERVURA;
  6157  0011B2  0E1D               	movlw	29
  6158  0011B4  D56A               	goto	L30
  6159                           
  6160                           ; BSR set to: 0
  6161                           ;brassagem.c: 637: }
  6162                           ;brassagem.c: 638: break;
  6163  0011B6  D1C4               	goto	l690
  6164  0011B8                     l6629:
  6165                           
  6166                           ; BSR set to: 0
  6167                           ;brassagem.c: 640: if(LerDWINreg(3) == 6)
  6168  0011B8  0E03               	movlw	3
  6169  0011BA  EC12  F015         	call	_LerDWINreg
  6170  0011BE  0E06               	movlw	6
  6171  0011C0  0101               	movlb	1	; () banked
  6172  0011C2  1952               	xorwf	?_LerDWINreg& (0+255),w,b
  6173  0011C4  0101               	movlb	1	; () banked
  6174  0011C6  1153               	iorwf	(?_LerDWINreg+1)& (0+255),w,b
  6175  0011C8  A4D8               	btfss	status,2,c
  6176  0011CA  D00A               	goto	l6635
  6177                           
  6178                           ; BSR set to: 1
  6179                           ;brassagem.c: 641: {
  6180                           ;brassagem.c: 642: EscreverDWINreg(3,15);
  6181  0011CC  0E00               	movlw	0
  6182  0011CE  0101               	movlb	1	; () banked
  6183  0011D0  6F53               	movwf	(EscreverDWINreg@valor+1)& (0+255),b
  6184  0011D2  0E0F               	movlw	15
  6185  0011D4  6F52               	movwf	EscreverDWINreg@valor& (0+255),b
  6186  0011D6  0E03               	movlw	3
  6187  0011D8  EC03  F017         	call	_EscreverDWINreg
  6188                           
  6189                           ;brassagem.c: 643: PORTDbits.RD4 = 0;
  6190  0011DC  9883               	bcf	3971,4,c	;volatile
  6191  0011DE  D000               	goto	l6635
  6192  0011E0                     l6635:
  6193                           
  6194                           ;brassagem.c: 644: }
  6195                           ;brassagem.c: 646: if(PORTCbits.RC2){
  6196  0011E0  A482               	btfss	3970,2,c	;volatile
  6197  0011E2  D1AE               	goto	l690
  6198                           
  6199                           ;brassagem.c: 647: EscreverDWINreg(3,6);
  6200  0011E4  0E00               	movlw	0
  6201  0011E6  0101               	movlb	1	; () banked
  6202  0011E8  6F53               	movwf	(EscreverDWINreg@valor+1)& (0+255),b
  6203  0011EA  0E06               	movlw	6
  6204  0011EC  6F52               	movwf	EscreverDWINreg@valor& (0+255),b
  6205  0011EE  0E03               	movlw	3
  6206  0011F0  EC03  F017         	call	_EscreverDWINreg
  6207                           
  6208                           ;brassagem.c: 648: EscreverDWINram(0x26,0);
  6209  0011F4  0E00               	movlw	0
  6210  0011F6  0101               	movlb	1	; () banked
  6211  0011F8  6F60               	movwf	(EscreverDWINram@endereco+1)& (0+255),b
  6212  0011FA  0E26               	movlw	38
  6213  0011FC  6F5F               	movwf	EscreverDWINram@endereco& (0+255),b
  6214  0011FE  0E00               	movlw	0
  6215  001200  0101               	movlb	1	; () banked
  6216  001202  6F62               	movwf	(EscreverDWINram@valor+1)& (0+255),b
  6217  001204  0E00               	movlw	0
  6218  001206  6F61               	movwf	EscreverDWINram@valor& (0+255),b
  6219  001208  ECCD  F016         	call	_EscreverDWINram	;wreg free
  6220                           
  6221                           ;brassagem.c: 649: EscreverDWINram(0x31,8);
  6222  00120C  0E00               	movlw	0
  6223  00120E  0101               	movlb	1	; () banked
  6224  001210  6F60               	movwf	(EscreverDWINram@endereco+1)& (0+255),b
  6225  001212  0E31               	movlw	49
  6226  001214  6F5F               	movwf	EscreverDWINram@endereco& (0+255),b
  6227  001216  0E00               	movlw	0
  6228  001218  0101               	movlb	1	; () banked
  6229  00121A  6F62               	movwf	(EscreverDWINram@valor+1)& (0+255),b
  6230  00121C  0E08               	movlw	8
  6231  00121E  6F61               	movwf	EscreverDWINram@valor& (0+255),b
  6232  001220  ECCD  F016         	call	_EscreverDWINram	;wreg free
  6233                           
  6234                           ;brassagem.c: 650: EstadoBrassagem = FERVURA;
  6235  001224  0E1B               	movlw	27
  6236  001226  D531               	goto	L30
  6237                           
  6238                           ; BSR set to: 0
  6239                           ;brassagem.c: 651: }
  6240                           ;brassagem.c: 652: break;
  6241  001228  D18B               	goto	l690
  6242  00122A                     l6641:
  6243                           
  6244                           ; BSR set to: 0
  6245                           ;brassagem.c: 654: if(LerDWINreg(3) == 6){
  6246  00122A  0E03               	movlw	3
  6247  00122C  EC12  F015         	call	_LerDWINreg
  6248  001230  0E06               	movlw	6
  6249  001232  0101               	movlb	1	; () banked
  6250  001234  1952               	xorwf	?_LerDWINreg& (0+255),w,b
  6251  001236  0101               	movlb	1	; () banked
  6252  001238  1153               	iorwf	(?_LerDWINreg+1)& (0+255),w,b
  6253  00123A  A4D8               	btfss	status,2,c
  6254  00123C  D00A               	goto	l6647
  6255                           
  6256                           ; BSR set to: 1
  6257                           ;brassagem.c: 655: EscreverDWINreg(3,19);
  6258  00123E  0E00               	movlw	0
  6259  001240  0101               	movlb	1	; () banked
  6260  001242  6F53               	movwf	(EscreverDWINreg@valor+1)& (0+255),b
  6261  001244  0E13               	movlw	19
  6262  001246  6F52               	movwf	EscreverDWINreg@valor& (0+255),b
  6263  001248  0E03               	movlw	3
  6264  00124A  EC03  F017         	call	_EscreverDWINreg
  6265                           
  6266                           ;brassagem.c: 656: PORTDbits.RD4 = 0;
  6267  00124E  9883               	bcf	3971,4,c	;volatile
  6268  001250  D000               	goto	l6647
  6269  001252                     l6647:
  6270                           
  6271                           ;brassagem.c: 657: }
  6272                           ;brassagem.c: 658: if(PORTCbits.RC2){
  6273  001252  A482               	btfss	3970,2,c	;volatile
  6274  001254  D175               	goto	l690
  6275                           
  6276                           ;brassagem.c: 659: Minutos = 0;
  6277  001256  0E00               	movlw	0
  6278  001258  0100               	movlb	0	; () banked
  6279  00125A  6F98               	movwf	_Minutos& (0+255),b
  6280                           
  6281                           ;brassagem.c: 660: Segundos = 0;
  6282  00125C  0E00               	movlw	0
  6283  00125E  6E1E               	movwf	_Segundos,c
  6284                           
  6285                           ; BSR set to: 0
  6286                           ;brassagem.c: 661: OnOffControleTemp = 0;
  6287  001260  9E44               	bcf	_OnOffControleTemp/(0+8),_OnOffControleTemp& (0+7),c
  6288                           
  6289                           ; BSR set to: 0
  6290                           ;brassagem.c: 662: ControlePotenciaFervura = 0;
  6291  001262  9044               	bcf	_ControlePotenciaFervura/(0+8),_ControlePotenciaFervura& (0+7),c
  6292                           
  6293                           ; BSR set to: 0
  6294                           ;brassagem.c: 663: PORTDbits.RD2 = 0;
  6295  001264  9483               	bcf	3971,2,c	;volatile
  6296                           
  6297                           ; BSR set to: 0
  6298                           ;brassagem.c: 664: PORTDbits.RD3 = 0;
  6299  001266  9683               	bcf	3971,3,c	;volatile
  6300                           
  6301                           ; BSR set to: 0
  6302                           ;brassagem.c: 665: PORTBbits.RB1 = 0;
  6303  001268  9281               	bcf	3969,1,c	;volatile
  6304                           
  6305                           ; BSR set to: 0
  6306                           ;brassagem.c: 666: EscreverDWINram(0x2B,0);
  6307  00126A  0E00               	movlw	0
  6308  00126C  0101               	movlb	1	; () banked
  6309  00126E  6F60               	movwf	(EscreverDWINram@endereco+1)& (0+255),b
  6310  001270  0E2B               	movlw	43
  6311  001272  6F5F               	movwf	EscreverDWINram@endereco& (0+255),b
  6312  001274  0E00               	movlw	0
  6313  001276  0101               	movlb	1	; () banked
  6314  001278  6F62               	movwf	(EscreverDWINram@valor+1)& (0+255),b
  6315  00127A  0E00               	movlw	0
  6316  00127C  6F61               	movwf	EscreverDWINram@valor& (0+255),b
  6317  00127E  ECCD  F016         	call	_EscreverDWINram	;wreg free
  6318                           
  6319                           ;brassagem.c: 667: EscreverDWINreg(3,6);
  6320  001282  0E00               	movlw	0
  6321  001284  0101               	movlb	1	; () banked
  6322  001286  6F53               	movwf	(EscreverDWINreg@valor+1)& (0+255),b
  6323  001288  0E06               	movlw	6
  6324  00128A  6F52               	movwf	EscreverDWINreg@valor& (0+255),b
  6325  00128C  0E03               	movlw	3
  6326  00128E  EC03  F017         	call	_EscreverDWINreg
  6327                           
  6328                           ;brassagem.c: 668: EscreverDWINram(0x31,10);
  6329  001292  0E00               	movlw	0
  6330  001294  0101               	movlb	1	; () banked
  6331  001296  6F60               	movwf	(EscreverDWINram@endereco+1)& (0+255),b
  6332  001298  0E31               	movlw	49
  6333  00129A  6F5F               	movwf	EscreverDWINram@endereco& (0+255),b
  6334  00129C  0E00               	movlw	0
  6335  00129E  0101               	movlb	1	; () banked
  6336  0012A0  6F62               	movwf	(EscreverDWINram@valor+1)& (0+255),b
  6337  0012A2  0E0A               	movlw	10
  6338  0012A4  6F61               	movwf	EscreverDWINram@valor& (0+255),b
  6339  0012A6  ECCD  F016         	call	_EscreverDWINram	;wreg free
  6340                           
  6341                           ;brassagem.c: 669: AcionaValvulaMotorizada(1,0b00100000);
  6342  0012AA  0E20               	movlw	32
  6343  0012AC  0101               	movlb	1	; () banked
  6344  0012AE  6F54               	movwf	AcionaValvulaMotorizada@valvula& (0+255),b
  6345  0012B0  0E01               	movlw	1
  6346  0012B2  EC6A  F015         	call	_AcionaValvulaMotorizada
  6347                           
  6348                           ;brassagem.c: 670: AcionaValvulaMotorizada(0,0b00010000);
  6349  0012B6  0E10               	movlw	16
  6350  0012B8  0101               	movlb	1	; () banked
  6351  0012BA  6F54               	movwf	AcionaValvulaMotorizada@valvula& (0+255),b
  6352  0012BC  0E00               	movlw	0
  6353  0012BE  EC6A  F015         	call	_AcionaValvulaMotorizada
  6354                           
  6355                           ;brassagem.c: 671: CCPR2L = 255;
  6356  0012C2  68BB               	setf	4027,c	;volatile
  6357                           
  6358                           ;brassagem.c: 672: EscreverDWINram(0x39,100);
  6359  0012C4  0E00               	movlw	0
  6360  0012C6  0101               	movlb	1	; () banked
  6361  0012C8  6F60               	movwf	(EscreverDWINram@endereco+1)& (0+255),b
  6362  0012CA  0E39               	movlw	57
  6363  0012CC  6F5F               	movwf	EscreverDWINram@endereco& (0+255),b
  6364  0012CE  0E00               	movlw	0
  6365  0012D0  0101               	movlb	1	; () banked
  6366  0012D2  6F62               	movwf	(EscreverDWINram@valor+1)& (0+255),b
  6367  0012D4  0E64               	movlw	100
  6368  0012D6  6F61               	movwf	EscreverDWINram@valor& (0+255),b
  6369  0012D8  ECCD  F016         	call	_EscreverDWINram	;wreg free
  6370                           
  6371                           ;brassagem.c: 673: MinutosEtapa = ReceitaAtual.TempoLavagem;
  6372  0012DC  C0B5  F17C         	movff	_ReceitaAtual+20,ExecutaBrassagem@MinutosEtapa
  6373                           
  6374                           ;brassagem.c: 674: EstadoBrassagem = WHIRLPOOL;
  6375  0012E0  0E1E               	movlw	30
  6376  0012E2  D4D3               	goto	L30
  6377                           
  6378                           ; BSR set to: 0
  6379                           ;brassagem.c: 675: }
  6380                           ;brassagem.c: 676: break;
  6381  0012E4  D12D               	goto	l690
  6382  0012E6                     l6677:
  6383                           
  6384                           ; BSR set to: 0
  6385                           ;brassagem.c: 678: PWMpanela = 0;
  6386  0012E6  0E00               	movlw	0
  6387  0012E8  0100               	movlb	0	; () banked
  6388  0012EA  6FE4               	movwf	_PWMpanela& (0+255),b
  6389                           
  6390                           ; BSR set to: 0
  6391                           ;brassagem.c: 679: EscreverDWINram(0x39,100);
  6392  0012EC  0E00               	movlw	0
  6393  0012EE  0101               	movlb	1	; () banked
  6394  0012F0  6F60               	movwf	(EscreverDWINram@endereco+1)& (0+255),b
  6395  0012F2  0E39               	movlw	57
  6396  0012F4  6F5F               	movwf	EscreverDWINram@endereco& (0+255),b
  6397  0012F6  0E00               	movlw	0
  6398  0012F8  0101               	movlb	1	; () banked
  6399  0012FA  6F62               	movwf	(EscreverDWINram@valor+1)& (0+255),b
  6400  0012FC  0E64               	movlw	100
  6401  0012FE  6F61               	movwf	EscreverDWINram@valor& (0+255),b
  6402  001300  ECCD  F016         	call	_EscreverDWINram	;wreg free
  6403                           
  6404                           ;brassagem.c: 680: if(Minutos >= MinutosEtapa){
  6405  001304  0101               	movlb	1	; () banked
  6406  001306  517C               	movf	ExecutaBrassagem@MinutosEtapa& (0+255),w,b
  6407  001308  0100               	movlb	0	; () banked
  6408  00130A  5D98               	subwf	_Minutos& (0+255),w,b
  6409  00130C  A0D8               	btfss	status,0,c
  6410  00130E  D118               	goto	l690
  6411                           
  6412                           ; BSR set to: 0
  6413                           ;brassagem.c: 681: EscreverDWINreg(3,25);
  6414  001310  0E00               	movlw	0
  6415  001312  0101               	movlb	1	; () banked
  6416  001314  6F53               	movwf	(EscreverDWINreg@valor+1)& (0+255),b
  6417  001316  0E19               	movlw	25
  6418  001318  6F52               	movwf	EscreverDWINreg@valor& (0+255),b
  6419  00131A  0E03               	movlw	3
  6420  00131C  EC03  F017         	call	_EscreverDWINreg
  6421                           
  6422                           ;brassagem.c: 682: PORTDbits.RD4 = 1;
  6423  001320  8883               	bsf	3971,4,c	;volatile
  6424                           
  6425                           ;brassagem.c: 683: EstadoBrassagem = CONFIRMATRANSFERIR;
  6426  001322  0E1F               	movlw	31
  6427  001324  D4B2               	goto	L30
  6428                           
  6429                           ; BSR set to: 0
  6430                           ;brassagem.c: 684: }
  6431                           ;brassagem.c: 685: break;
  6432  001326  D10C               	goto	l690
  6433  001328                     l683:
  6434                           
  6435                           ; BSR set to: 0
  6436                           ;brassagem.c: 687: if(PORTCbits.RC2){
  6437  001328  A482               	btfss	3970,2,c	;volatile
  6438  00132A  D10A               	goto	l690
  6439                           
  6440                           ; BSR set to: 0
  6441                           ;brassagem.c: 688: PORTDbits.RD4 = 0;
  6442  00132C  9883               	bcf	3971,4,c	;volatile
  6443                           
  6444                           ; BSR set to: 0
  6445                           ;brassagem.c: 689: EscreverDWINreg(3,20);
  6446  00132E  0E00               	movlw	0
  6447  001330  0101               	movlb	1	; () banked
  6448  001332  6F53               	movwf	(EscreverDWINreg@valor+1)& (0+255),b
  6449  001334  0E14               	movlw	20
  6450  001336  6F52               	movwf	EscreverDWINreg@valor& (0+255),b
  6451  001338  0E03               	movlw	3
  6452  00133A  EC03  F017         	call	_EscreverDWINreg
  6453                           
  6454                           ;brassagem.c: 690: EscreverDWINram(0x31,11);
  6455  00133E  0E00               	movlw	0
  6456  001340  0101               	movlb	1	; () banked
  6457  001342  6F60               	movwf	(EscreverDWINram@endereco+1)& (0+255),b
  6458  001344  0E31               	movlw	49
  6459  001346  6F5F               	movwf	EscreverDWINram@endereco& (0+255),b
  6460  001348  0E00               	movlw	0
  6461  00134A  0101               	movlb	1	; () banked
  6462  00134C  6F62               	movwf	(EscreverDWINram@valor+1)& (0+255),b
  6463  00134E  0E0B               	movlw	11
  6464  001350  6F61               	movwf	EscreverDWINram@valor& (0+255),b
  6465  001352  ECCD  F016         	call	_EscreverDWINram	;wreg free
  6466                           
  6467                           ;brassagem.c: 691: EscreverDWINram(0x39,0);
  6468  001356  0E00               	movlw	0
  6469  001358  0101               	movlb	1	; () banked
  6470  00135A  6F60               	movwf	(EscreverDWINram@endereco+1)& (0+255),b
  6471  00135C  0E39               	movlw	57
  6472  00135E  6F5F               	movwf	EscreverDWINram@endereco& (0+255),b
  6473  001360  0E00               	movlw	0
  6474  001362  0101               	movlb	1	; () banked
  6475  001364  6F62               	movwf	(EscreverDWINram@valor+1)& (0+255),b
  6476  001366  0E00               	movlw	0
  6477  001368  6F61               	movwf	EscreverDWINram@valor& (0+255),b
  6478  00136A  ECCD  F016         	call	_EscreverDWINram	;wreg free
  6479                           
  6480                           ;brassagem.c: 692: CCPR2L = 0;
  6481  00136E  0E00               	movlw	0
  6482  001370  6EBB               	movwf	4027,c	;volatile
  6483                           
  6484                           ;brassagem.c: 693: AcionaValvulaMotorizada(0,0b00100000);
  6485  001372  0E20               	movlw	32
  6486  001374  0101               	movlb	1	; () banked
  6487  001376  6F54               	movwf	AcionaValvulaMotorizada@valvula& (0+255),b
  6488  001378  0E00               	movlw	0
  6489  00137A  EC6A  F015         	call	_AcionaValvulaMotorizada
  6490                           
  6491                           ;brassagem.c: 694: AcionaValvulaMotorizada(1,0b01000000);
  6492  00137E  0E40               	movlw	64
  6493  001380  0101               	movlb	1	; () banked
  6494  001382  6F54               	movwf	AcionaValvulaMotorizada@valvula& (0+255),b
  6495  001384  0E01               	movlw	1
  6496  001386  EC6A  F015         	call	_AcionaValvulaMotorizada
  6497                           
  6498                           ;brassagem.c: 695: PORTDbits.RD1 = 1;
  6499  00138A  8283               	bsf	3971,1,c	;volatile
  6500                           
  6501                           ;brassagem.c: 696: EstadoBrassagem = TRANSFERENCIA;
  6502  00138C  0E20               	movlw	32
  6503  00138E  D47D               	goto	L30
  6504                           
  6505                           ; BSR set to: 0
  6506                           ;brassagem.c: 697: }
  6507                           ;brassagem.c: 698: break;
  6508  001390  D0D7               	goto	l690
  6509  001392                     l6703:
  6510                           
  6511                           ; BSR set to: 0
  6512                           ;brassagem.c: 700: EscreverDWINram(0x38,ValoresAD[2]);
  6513  001392  0E00               	movlw	0
  6514  001394  0101               	movlb	1	; () banked
  6515  001396  6F60               	movwf	(EscreverDWINram@endereco+1)& (0+255),b
  6516  001398  0E38               	movlw	56
  6517  00139A  6F5F               	movwf	EscreverDWINram@endereco& (0+255),b
  6518  00139C  C005  F161         	movff	_ValoresAD+4,EscreverDWINram@valor
  6519  0013A0  C006  F162         	movff	_ValoresAD+5,EscreverDWINram@valor+1
  6520  0013A4  ECCD  F016         	call	_EscreverDWINram	;wreg free
  6521                           
  6522                           ;brassagem.c: 701: temp = LerDWINram(0x39) * 255;
  6523  0013A8  0E00               	movlw	0
  6524  0013AA  0101               	movlb	1	; () banked
  6525  0013AC  6F53               	movwf	(LerDWINram@endereco+1)& (0+255),b
  6526  0013AE  0E39               	movlw	57
  6527  0013B0  6F52               	movwf	LerDWINram@endereco& (0+255),b
  6528  0013B2  ECB4  F014         	call	_LerDWINram	;wreg free
  6529  0013B6  C152  F157         	movff	?_LerDWINram,___wmul@multiplier
  6530  0013BA  C153  F158         	movff	?_LerDWINram+1,___wmul@multiplier+1
  6531  0013BE  0E00               	movlw	0
  6532  0013C0  0101               	movlb	1	; () banked
  6533  0013C2  6F5A               	movwf	(___wmul@multiplicand+1)& (0+255),b
  6534  0013C4  6959               	setf	___wmul@multiplicand& (0+255),b
  6535  0013C6  ECF2  F017         	call	___wmul	;wreg free
  6536  0013CA  C157  F17A         	movff	?___wmul,ExecutaBrassagem@temp
  6537  0013CE  C158  F17B         	movff	?___wmul+1,ExecutaBrassagem@temp+1
  6538                           
  6539                           ;brassagem.c: 702: CCPR2L = temp / 100;
  6540  0013D2  C17A  F150         	movff	ExecutaBrassagem@temp,___lwdiv@dividend
  6541  0013D6  C17B  F151         	movff	ExecutaBrassagem@temp+1,___lwdiv@dividend+1
  6542  0013DA  0E00               	movlw	0
  6543  0013DC  0101               	movlb	1	; () banked
  6544  0013DE  6F53               	movwf	(___lwdiv@divisor+1)& (0+255),b
  6545  0013E0  0E64               	movlw	100
  6546  0013E2  6F52               	movwf	___lwdiv@divisor& (0+255),b
  6547  0013E4  EC0B  F016         	call	___lwdiv	;wreg free
  6548  0013E8  0101               	movlb	1	; () banked
  6549  0013EA  5150               	movf	?___lwdiv& (0+255),w,b
  6550  0013EC  6EBB               	movwf	4027,c	;volatile
  6551                           
  6552                           ; BSR set to: 1
  6553                           ;brassagem.c: 703: if(PORTCbits.RC2){
  6554  0013EE  A482               	btfss	3970,2,c	;volatile
  6555  0013F0  D0A7               	goto	l690
  6556                           
  6557                           ; BSR set to: 1
  6558                           ;brassagem.c: 704: CCPR2L = 0;
  6559  0013F2  0E00               	movlw	0
  6560  0013F4  6EBB               	movwf	4027,c	;volatile
  6561                           
  6562                           ; BSR set to: 1
  6563                           ;brassagem.c: 705: EscreverDWINram(0x39,0);
  6564  0013F6  0E00               	movlw	0
  6565  0013F8  0101               	movlb	1	; () banked
  6566  0013FA  6F60               	movwf	(EscreverDWINram@endereco+1)& (0+255),b
  6567  0013FC  0E39               	movlw	57
  6568  0013FE  6F5F               	movwf	EscreverDWINram@endereco& (0+255),b
  6569  001400  0E00               	movlw	0
  6570  001402  0101               	movlb	1	; () banked
  6571  001404  6F62               	movwf	(EscreverDWINram@valor+1)& (0+255),b
  6572  001406  0E00               	movlw	0
  6573  001408  6F61               	movwf	EscreverDWINram@valor& (0+255),b
  6574  00140A  ECCD  F016         	call	_EscreverDWINram	;wreg free
  6575                           
  6576                           ;brassagem.c: 706: PORTDbits.RD1 = 0;
  6577  00140E  9283               	bcf	3971,1,c	;volatile
  6578                           
  6579                           ;brassagem.c: 707: EscreverDWINreg(3,1);
  6580  001410  0E00               	movlw	0
  6581  001412  0101               	movlb	1	; () banked
  6582  001414  6F53               	movwf	(EscreverDWINreg@valor+1)& (0+255),b
  6583  001416  0E01               	movlw	1
  6584  001418  6F52               	movwf	EscreverDWINreg@valor& (0+255),b
  6585  00141A  0E03               	movlw	3
  6586  00141C  EC03  F017         	call	_EscreverDWINreg
  6587                           
  6588                           ;brassagem.c: 708: AcionaValvulaMotorizada(0,0b01000000);
  6589  001420  0E40               	movlw	64
  6590  001422  0101               	movlb	1	; () banked
  6591  001424  6F54               	movwf	AcionaValvulaMotorizada@valvula& (0+255),b
  6592  001426  0E00               	movlw	0
  6593  001428  EC6A  F015         	call	_AcionaValvulaMotorizada
  6594                           
  6595                           ;brassagem.c: 709: AcionaValvulaMotorizada(0,0b00000100);
  6596  00142C  0E04               	movlw	4
  6597  00142E  0101               	movlb	1	; () banked
  6598  001430  6F54               	movwf	AcionaValvulaMotorizada@valvula& (0+255),b
  6599  001432  0E00               	movlw	0
  6600  001434  EC6A  F015         	call	_AcionaValvulaMotorizada
  6601                           
  6602                           ;brassagem.c: 710: while(PORTCbits.RC2);
  6603  001438  D000               	goto	l687
  6604  00143A                     l687:
  6605  00143A  B482               	btfsc	3970,2,c	;volatile
  6606  00143C  D7FE               	goto	l687
  6607                           
  6608                           ;brassagem.c: 711: EstadoBrassagem = AGUARDASTART;
  6609  00143E  0E00               	movlw	0
  6610  001440  D424               	goto	L30
  6611                           
  6612                           ; BSR set to: 0
  6613                           ;brassagem.c: 714: }
  6614                           
  6615                           ; BSR set to: 0
  6616                           ;brassagem.c: 712: }
  6617                           ;brassagem.c: 713: break;
  6618  001442  D07E               	goto	l690
  6619  001444                     l6725:
  6620  001444  0100               	movlb	0	; () banked
  6621  001446  5196               	movf	ExecutaBrassagem@EstadoBrassagem& (0+255),w,b
  6622                           
  6623                           ; Switch size 1, requested type "space"
  6624                           ; Number of cases is 33, Range of values is 0 to 32
  6625                           ; switch strategies available:
  6626                           ; Name         Instructions Cycles
  6627                           ; simple_byte          100    51 (average)
  6628                           ;	Chosen strategy is simple_byte
  6629  001448  0A00               	xorlw	0	; case 0
  6630  00144A  B4D8               	btfsc	status,2,c
  6631  00144C  EFBA  F001         	goto	l5993
  6632  001450  0A01               	xorlw	1	; case 1
  6633  001452  B4D8               	btfsc	status,2,c
  6634  001454  EFEA  F001         	goto	l6007
  6635  001458  0A03               	xorlw	3	; case 2
  6636  00145A  B4D8               	btfsc	status,2,c
  6637  00145C  EF69  F002         	goto	l596
  6638  001460  0A01               	xorlw	1	; case 3
  6639  001462  B4D8               	btfsc	status,2,c
  6640  001464  EF8A  F002         	goto	l6043
  6641  001468  0A07               	xorlw	7	; case 4
  6642  00146A  B4D8               	btfsc	status,2,c
  6643  00146C  EFFF  F002         	goto	l6067
  6644  001470  0A01               	xorlw	1	; case 5
  6645  001472  B4D8               	btfsc	status,2,c
  6646  001474  EF67  F003         	goto	l605
  6647  001478  0A03               	xorlw	3	; case 6
  6648  00147A  B4D8               	btfsc	status,2,c
  6649  00147C  EF98  F003         	goto	l6119
  6650  001480  0A01               	xorlw	1	; case 7
  6651  001482  B4D8               	btfsc	status,2,c
  6652  001484  EFF0  F003         	goto	l6157
  6653  001488  0A0F               	xorlw	15	; case 8
  6654  00148A  B4D8               	btfsc	status,2,c
  6655  00148C  EF08  F004         	goto	l6173
  6656  001490  0A01               	xorlw	1	; case 9
  6657  001492  B4D8               	btfsc	status,2,c
  6658  001494  EF21  F004         	goto	l6189
  6659  001498  0A03               	xorlw	3	; case 10
  6660  00149A  B4D8               	btfsc	status,2,c
  6661  00149C  EF34  F004         	goto	l6203
  6662  0014A0  0A01               	xorlw	1	; case 11
  6663  0014A2  B4D8               	btfsc	status,2,c
  6664  0014A4  EF4B  F004         	goto	l6219
  6665  0014A8  0A07               	xorlw	7	; case 12
  6666  0014AA  B4D8               	btfsc	status,2,c
  6667  0014AC  EF5F  F004         	goto	l6233
  6668  0014B0  0A01               	xorlw	1	; case 13
  6669  0014B2  B4D8               	btfsc	status,2,c
  6670  0014B4  EF7B  F004         	goto	l6251
  6671  0014B8  0A03               	xorlw	3	; case 14
  6672  0014BA  B4D8               	btfsc	status,2,c
  6673  0014BC  EF90  F004         	goto	l6265
  6674  0014C0  0A01               	xorlw	1	; case 15
  6675  0014C2  B4D8               	btfsc	status,2,c
  6676  0014C4  EFA9  F004         	goto	l6281
  6677  0014C8  0A1F               	xorlw	31	; case 16
  6678  0014CA  B4D8               	btfsc	status,2,c
  6679  0014CC  EFBC  F004         	goto	l6295
  6680  0014D0  0A01               	xorlw	1	; case 17
  6681  0014D2  B4D8               	btfsc	status,2,c
  6682  0014D4  EFDA  F004         	goto	l6313
  6683  0014D8  0A03               	xorlw	3	; case 18
  6684  0014DA  B4D8               	btfsc	status,2,c
  6685  0014DC  EFEE  F004         	goto	l6321
  6686  0014E0  0A01               	xorlw	1	; case 19
  6687  0014E2  B4D8               	btfsc	status,2,c
  6688  0014E4  EF19  F005         	goto	l640
  6689  0014E8  0A07               	xorlw	7	; case 20
  6690  0014EA  B4D8               	btfsc	status,2,c
  6691  0014EC  EF29  F005         	goto	l6351
  6692  0014F0  0A01               	xorlw	1	; case 21
  6693  0014F2  B4D8               	btfsc	status,2,c
  6694  0014F4  EF72  F005         	goto	l6381
  6695  0014F8  0A03               	xorlw	3	; case 22
  6696  0014FA  B4D8               	btfsc	status,2,c
  6697  0014FC  EFD5  F005         	goto	l6407
  6698  001500  0A01               	xorlw	1	; case 23
  6699  001502  B4D8               	btfsc	status,2,c
  6700  001504  EF49  F006         	goto	l6451
  6701  001508  0A0F               	xorlw	15	; case 24
  6702  00150A  B4D8               	btfsc	status,2,c
  6703  00150C  D447               	goto	l6499
  6704  00150E  0A01               	xorlw	1	; case 25
  6705  001510  B4D8               	btfsc	status,2,c
  6706  001512  D4D2               	goto	l6543
  6707  001514  0A03               	xorlw	3	; case 26
  6708  001516  B4D8               	btfsc	status,2,c
  6709  001518  D4EC               	goto	l6555
  6710  00151A  0A01               	xorlw	1	; case 27
  6711  00151C  B4D8               	btfsc	status,2,c
  6712  00151E  D51E               	goto	l6579
  6713  001520  0A07               	xorlw	7	; case 28
  6714  001522  B4D8               	btfsc	status,2,c
  6715  001524  D649               	goto	l6629
  6716  001526  0A01               	xorlw	1	; case 29
  6717  001528  B4D8               	btfsc	status,2,c
  6718  00152A  D67F               	goto	l6641
  6719  00152C  0A03               	xorlw	3	; case 30
  6720  00152E  B4D8               	btfsc	status,2,c
  6721  001530  D6DA               	goto	l6677
  6722  001532  0A01               	xorlw	1	; case 31
  6723  001534  B4D8               	btfsc	status,2,c
  6724  001536  D6F8               	goto	l683
  6725  001538  0A3F               	xorlw	63	; case 32
  6726  00153A  B4D8               	btfsc	status,2,c
  6727  00153C  D72A               	goto	l6703
  6728  00153E  D000               	goto	l690
  6729  001540                     l690:
  6730  001540  0012               	return		;funcret
  6731  001542                     __end_of_ExecutaBrassagem:
  6732                           	opt stack 0
  6733                           tblptru	equ	0xFF8
  6734                           prodh	equ	0xFF4
  6735                           prodl	equ	0xFF3
  6736                           intcon	equ	0xFF2
  6737                           intcon2	equ	0xFF1
  6738                           postinc0	equ	0xFEE
  6739                           wreg	equ	0xFE8
  6740                           indf2	equ	0xFDF
  6741                           fsr2h	equ	0xFDA
  6742                           fsr2l	equ	0xFD9
  6743                           status	equ	0xFD8
  6744                           
  6745 ;; *************** function ___wmul *****************
  6746 ;; Defined at:
  6747 ;;		line 15 in file "C:\Program Files (x86)\Microchip\xc8\v1.34\sources\common\Umul16.c"
  6748 ;; Parameters:    Size  Location     Type
  6749 ;;  multiplier      2    7[BANK1 ] unsigned int 
  6750 ;;  multiplicand    2    9[BANK1 ] unsigned int 
  6751 ;; Auto vars:     Size  Location     Type
  6752 ;;  product         2   11[BANK1 ] unsigned int 
  6753 ;; Return value:  Size  Location     Type
  6754 ;;                  2    7[BANK1 ] unsigned int 
  6755 ;; Registers used:
  6756 ;;		wreg, status,2, status,0, prodl, prodh
  6757 ;; Tracked objects:
  6758 ;;		On entry : 0/0
  6759 ;;		On exit  : 0/0
  6760 ;;		Unchanged: 0/0
  6761 ;; Data sizes:     COMRAM   BANK0   BANK1   BANK2   BANK3   BANK4   BANK5   BANK6   BANK7
  6762 ;;      Params:         0       0       4       0       0       0       0       0       0
  6763 ;;      Locals:         0       0       2       0       0       0       0       0       0
  6764 ;;      Temps:          0       0       0       0       0       0       0       0       0
  6765 ;;      Totals:         0       0       6       0       0       0       0       0       0
  6766 ;;Total ram usage:        6 bytes
  6767 ;; Hardware stack levels used:    1
  6768 ;; Hardware stack levels required when called:    4
  6769 ;; This function calls:
  6770 ;;		Nothing
  6771 ;; This function is called by:
  6772 ;;		_ExecutaBrassagem
  6773 ;;		_ModoManual
  6774 ;; This function uses a non-reentrant model
  6775 ;;
  6776                           
  6777                           	psect	text7
  6778  002FE4                     __ptext7:
  6779                           	opt stack 0
  6780  002FE4                     ___wmul:
  6781                           	opt stack 25
  6782                           
  6783                           ;incstack = 0
  6784  002FE4  0101               	movlb	1	; () banked
  6785  002FE6  5157               	movf	___wmul@multiplier& (0+255),w,b
  6786  002FE8  0101               	movlb	1	; () banked
  6787  002FEA  0359               	mulwf	___wmul@multiplicand& (0+255),b
  6788  002FEC  CFF3 F15B          	movff	prodl,___wmul@product
  6789  002FF0  CFF4 F15C          	movff	prodh,___wmul@product+1
  6790  002FF4  0101               	movlb	1	; () banked
  6791  002FF6  5157               	movf	___wmul@multiplier& (0+255),w,b
  6792  002FF8  0101               	movlb	1	; () banked
  6793  002FFA  035A               	mulwf	(___wmul@multiplicand+1)& (0+255),b
  6794  002FFC  50F3               	movf	prodl,w,c
  6795  002FFE  0101               	movlb	1	; () banked
  6796  003000  275C               	addwf	(___wmul@product+1)& (0+255),f,b
  6797  003002  0101               	movlb	1	; () banked
  6798  003004  5158               	movf	(___wmul@multiplier+1)& (0+255),w,b
  6799  003006  0101               	movlb	1	; () banked
  6800  003008  0359               	mulwf	___wmul@multiplicand& (0+255),b
  6801  00300A  50F3               	movf	prodl,w,c
  6802  00300C  0101               	movlb	1	; () banked
  6803  00300E  275C               	addwf	(___wmul@product+1)& (0+255),f,b
  6804                           
  6805                           ; BSR set to: 1
  6806  003010  C15B  F157         	movff	___wmul@product,?___wmul
  6807  003014  C15C  F158         	movff	___wmul@product+1,?___wmul+1
  6808  003018  D000               	goto	l790
  6809  00301A                     l790:
  6810                           
  6811                           ; BSR set to: 1
  6812  00301A  0012               	return		;funcret
  6813  00301C                     __end_of___wmul:
  6814                           	opt stack 0
  6815                           tblptru	equ	0xFF8
  6816                           prodh	equ	0xFF4
  6817                           prodl	equ	0xFF3
  6818                           intcon	equ	0xFF2
  6819                           intcon2	equ	0xFF1
  6820                           postinc0	equ	0xFEE
  6821                           wreg	equ	0xFE8
  6822                           indf2	equ	0xFDF
  6823                           fsr2h	equ	0xFDA
  6824                           fsr2l	equ	0xFD9
  6825                           status	equ	0xFD8
  6826                           
  6827 ;; *************** function ___lwtoft *****************
  6828 ;; Defined at:
  6829 ;;		line 28 in file "C:\Program Files (x86)\Microchip\xc8\v1.34\sources\common\lwtoft.c"
  6830 ;; Parameters:    Size  Location     Type
  6831 ;;  c               2    8[BANK1 ] unsigned int 
  6832 ;; Auto vars:     Size  Location     Type
  6833 ;;		None
  6834 ;; Return value:  Size  Location     Type
  6835 ;;                  3    8[BANK1 ] float 
  6836 ;; Registers used:
  6837 ;;		wreg, status,2, status,0, cstack
  6838 ;; Tracked objects:
  6839 ;;		On entry : 0/0
  6840 ;;		On exit  : 0/0
  6841 ;;		Unchanged: 0/0
  6842 ;; Data sizes:     COMRAM   BANK0   BANK1   BANK2   BANK3   BANK4   BANK5   BANK6   BANK7
  6843 ;;      Params:         0       0       3       0       0       0       0       0       0
  6844 ;;      Locals:         0       0       0       0       0       0       0       0       0
  6845 ;;      Temps:          0       0       0       0       0       0       0       0       0
  6846 ;;      Totals:         0       0       3       0       0       0       0       0       0
  6847 ;;Total ram usage:        3 bytes
  6848 ;; Hardware stack levels used:    1
  6849 ;; Hardware stack levels required when called:    5
  6850 ;; This function calls:
  6851 ;;		___ftpack
  6852 ;; This function is called by:
  6853 ;;		_ExecutaBrassagem
  6854 ;; This function uses a non-reentrant model
  6855 ;;
  6856                           
  6857                           	psect	text8
  6858  003080                     __ptext8:
  6859                           	opt stack 0
  6860  003080                     ___lwtoft:
  6861                           	opt stack 24
  6862                           
  6863                           ; BSR set to: 1
  6864                           ;incstack = 0
  6865  003080  C158  F150         	movff	___lwtoft@c,___ftpack@arg
  6866  003084  C159  F151         	movff	___lwtoft@c+1,___ftpack@arg+1
  6867  003088  0101               	movlb	1	; () banked
  6868  00308A  6B52               	clrf	(___ftpack@arg+2)& (0+255),b
  6869  00308C  0E8E               	movlw	142
  6870  00308E  0101               	movlb	1	; () banked
  6871  003090  6F53               	movwf	___ftpack@exp& (0+255),b
  6872  003092  0E00               	movlw	0
  6873  003094  0101               	movlb	1	; () banked
  6874  003096  6F54               	movwf	___ftpack@sign& (0+255),b
  6875  003098  ECC7  F012         	call	___ftpack	;wreg free
  6876  00309C  C150  F158         	movff	?___ftpack,?___lwtoft
  6877  0030A0  C151  F159         	movff	?___ftpack+1,?___lwtoft+1
  6878  0030A4  C152  F15A         	movff	?___ftpack+2,?___lwtoft+2
  6879  0030A8  D000               	goto	l1335
  6880  0030AA                     l1335:
  6881  0030AA  0012               	return		;funcret
  6882  0030AC                     __end_of___lwtoft:
  6883                           	opt stack 0
  6884                           tblptru	equ	0xFF8
  6885                           prodh	equ	0xFF4
  6886                           prodl	equ	0xFF3
  6887                           intcon	equ	0xFF2
  6888                           intcon2	equ	0xFF1
  6889                           postinc0	equ	0xFEE
  6890                           wreg	equ	0xFE8
  6891                           indf2	equ	0xFDF
  6892                           fsr2h	equ	0xFDA
  6893                           fsr2l	equ	0xFD9
  6894                           status	equ	0xFD8
  6895                           
  6896 ;; *************** function ___lwdiv *****************
  6897 ;; Defined at:
  6898 ;;		line 8 in file "C:\Program Files (x86)\Microchip\xc8\v1.34\sources\common\lwdiv.c"
  6899 ;; Parameters:    Size  Location     Type
  6900 ;;  dividend        2    0[BANK1 ] unsigned int 
  6901 ;;  divisor         2    2[BANK1 ] unsigned int 
  6902 ;; Auto vars:     Size  Location     Type
  6903 ;;  quotient        2    5[BANK1 ] unsigned int 
  6904 ;;  counter         1    4[BANK1 ] unsigned char 
  6905 ;; Return value:  Size  Location     Type
  6906 ;;                  2    0[BANK1 ] unsigned int 
  6907 ;; Registers used:
  6908 ;;		wreg, status,2, status,0
  6909 ;; Tracked objects:
  6910 ;;		On entry : 0/0
  6911 ;;		On exit  : 0/0
  6912 ;;		Unchanged: 0/0
  6913 ;; Data sizes:     COMRAM   BANK0   BANK1   BANK2   BANK3   BANK4   BANK5   BANK6   BANK7
  6914 ;;      Params:         0       0       4       0       0       0       0       0       0
  6915 ;;      Locals:         0       0       3       0       0       0       0       0       0
  6916 ;;      Temps:          0       0       0       0       0       0       0       0       0
  6917 ;;      Totals:         0       0       7       0       0       0       0       0       0
  6918 ;;Total ram usage:        7 bytes
  6919 ;; Hardware stack levels used:    1
  6920 ;; Hardware stack levels required when called:    4
  6921 ;; This function calls:
  6922 ;;		Nothing
  6923 ;; This function is called by:
  6924 ;;		_ExecutaBrassagem
  6925 ;;		_ModoManual
  6926 ;; This function uses a non-reentrant model
  6927 ;;
  6928                           
  6929                           	psect	text9
  6930  002C16                     __ptext9:
  6931                           	opt stack 0
  6932  002C16                     ___lwdiv:
  6933                           	opt stack 25
  6934                           
  6935                           ;incstack = 0
  6936  002C16  0E00               	movlw	0
  6937  002C18  0101               	movlb	1	; () banked
  6938  002C1A  6F56               	movwf	(___lwdiv@quotient+1)& (0+255),b
  6939  002C1C  0E00               	movlw	0
  6940  002C1E  6F55               	movwf	___lwdiv@quotient& (0+255),b
  6941                           
  6942                           ; BSR set to: 1
  6943  002C20  0101               	movlb	1	; () banked
  6944  002C22  5152               	movf	___lwdiv@divisor& (0+255),w,b
  6945  002C24  0101               	movlb	1	; () banked
  6946  002C26  1153               	iorwf	(___lwdiv@divisor+1)& (0+255),w,b
  6947  002C28  B4D8               	btfsc	status,2,c
  6948  002C2A  D031               	goto	l1308
  6949                           
  6950                           ; BSR set to: 1
  6951  002C2C  0E01               	movlw	1
  6952  002C2E  0101               	movlb	1	; () banked
  6953  002C30  6F54               	movwf	___lwdiv@counter& (0+255),b
  6954  002C32  D007               	goto	l5759
  6955  002C34                     l5757:
  6956                           
  6957                           ; BSR set to: 1
  6958  002C34  0101               	movlb	1	; () banked
  6959  002C36  90D8               	bcf	status,0,c
  6960  002C38  3752               	rlcf	___lwdiv@divisor& (0+255),f,b
  6961  002C3A  3753               	rlcf	(___lwdiv@divisor+1)& (0+255),f,b
  6962  002C3C  0101               	movlb	1	; () banked
  6963  002C3E  2B54               	incf	___lwdiv@counter& (0+255),f,b
  6964  002C40  D000               	goto	l5759
  6965  002C42                     l5759:
  6966                           
  6967                           ; BSR set to: 1
  6968  002C42  0101               	movlb	1	; () banked
  6969  002C44  BF53               	btfsc	(___lwdiv@divisor+1)& (0+255),7,b
  6970  002C46  D002               	goto	l5761
  6971  002C48  D7F5               	goto	l5757
  6972                           
  6973                           ; BSR set to: 1
  6974  002C4A  D000               	goto	l5761
  6975  002C4C                     l5761:
  6976                           
  6977                           ; BSR set to: 1
  6978  002C4C  0101               	movlb	1	; () banked
  6979  002C4E  90D8               	bcf	status,0,c
  6980  002C50  3755               	rlcf	___lwdiv@quotient& (0+255),f,b
  6981  002C52  3756               	rlcf	(___lwdiv@quotient+1)& (0+255),f,b
  6982                           
  6983                           ; BSR set to: 1
  6984  002C54  0101               	movlb	1	; () banked
  6985  002C56  5152               	movf	___lwdiv@divisor& (0+255),w,b
  6986  002C58  0101               	movlb	1	; () banked
  6987  002C5A  5D50               	subwf	___lwdiv@dividend& (0+255),w,b
  6988  002C5C  0101               	movlb	1	; () banked
  6989  002C5E  5153               	movf	(___lwdiv@divisor+1)& (0+255),w,b
  6990  002C60  0101               	movlb	1	; () banked
  6991  002C62  5951               	subwfb	(___lwdiv@dividend+1)& (0+255),w,b
  6992  002C64  A0D8               	btfss	status,0,c
  6993  002C66  D00B               	goto	l5769
  6994                           
  6995                           ; BSR set to: 1
  6996  002C68  0101               	movlb	1	; () banked
  6997  002C6A  5152               	movf	___lwdiv@divisor& (0+255),w,b
  6998  002C6C  0101               	movlb	1	; () banked
  6999  002C6E  5F50               	subwf	___lwdiv@dividend& (0+255),f,b
  7000  002C70  0101               	movlb	1	; () banked
  7001  002C72  5153               	movf	(___lwdiv@divisor+1)& (0+255),w,b
  7002  002C74  0101               	movlb	1	; () banked
  7003  002C76  5B51               	subwfb	(___lwdiv@dividend+1)& (0+255),f,b
  7004                           
  7005                           ; BSR set to: 1
  7006  002C78  0101               	movlb	1	; () banked
  7007  002C7A  8155               	bsf	___lwdiv@quotient& (0+255),0,b
  7008  002C7C  D000               	goto	l5769
  7009  002C7E                     l5769:
  7010                           
  7011                           ; BSR set to: 1
  7012  002C7E  0101               	movlb	1	; () banked
  7013  002C80  90D8               	bcf	status,0,c
  7014  002C82  3353               	rrcf	(___lwdiv@divisor+1)& (0+255),f,b
  7015  002C84  3352               	rrcf	___lwdiv@divisor& (0+255),f,b
  7016                           
  7017                           ; BSR set to: 1
  7018  002C86  0101               	movlb	1	; () banked
  7019  002C88  2F54               	decfsz	___lwdiv@counter& (0+255),f,b
  7020  002C8A  D7E0               	goto	l5761
  7021  002C8C  D000               	goto	l1308
  7022  002C8E                     l1308:
  7023                           
  7024                           ; BSR set to: 1
  7025  002C8E  C155  F150         	movff	___lwdiv@quotient,?___lwdiv
  7026  002C92  C156  F151         	movff	___lwdiv@quotient+1,?___lwdiv+1
  7027                           
  7028                           ; BSR set to: 1
  7029  002C96  0012               	return		;funcret
  7030  002C98                     __end_of___lwdiv:
  7031                           	opt stack 0
  7032                           tblptru	equ	0xFF8
  7033                           prodh	equ	0xFF4
  7034                           prodl	equ	0xFF3
  7035                           intcon	equ	0xFF2
  7036                           intcon2	equ	0xFF1
  7037                           postinc0	equ	0xFEE
  7038                           wreg	equ	0xFE8
  7039                           indf2	equ	0xFDF
  7040                           fsr2h	equ	0xFDA
  7041                           fsr2l	equ	0xFD9
  7042                           status	equ	0xFD8
  7043                           
  7044 ;; *************** function ___lbtoft *****************
  7045 ;; Defined at:
  7046 ;;		line 27 in file "C:\Program Files (x86)\Microchip\xc8\v1.34\sources\common\lbtoft.c"
  7047 ;; Parameters:    Size  Location     Type
  7048 ;;  c               1    wreg     unsigned char 
  7049 ;; Auto vars:     Size  Location     Type
  7050 ;;  c               1   11[BANK1 ] unsigned char 
  7051 ;; Return value:  Size  Location     Type
  7052 ;;                  3    8[BANK1 ] float 
  7053 ;; Registers used:
  7054 ;;		wreg, status,2, status,0, cstack
  7055 ;; Tracked objects:
  7056 ;;		On entry : 0/0
  7057 ;;		On exit  : 0/0
  7058 ;;		Unchanged: 0/0
  7059 ;; Data sizes:     COMRAM   BANK0   BANK1   BANK2   BANK3   BANK4   BANK5   BANK6   BANK7
  7060 ;;      Params:         0       0       3       0       0       0       0       0       0
  7061 ;;      Locals:         0       0       1       0       0       0       0       0       0
  7062 ;;      Temps:          0       0       0       0       0       0       0       0       0
  7063 ;;      Totals:         0       0       4       0       0       0       0       0       0
  7064 ;;Total ram usage:        4 bytes
  7065 ;; Hardware stack levels used:    1
  7066 ;; Hardware stack levels required when called:    5
  7067 ;; This function calls:
  7068 ;;		___ftpack
  7069 ;; This function is called by:
  7070 ;;		_ExecutaBrassagem
  7071 ;; This function uses a non-reentrant model
  7072 ;;
  7073                           
  7074                           	psect	text10
  7075  003050                     __ptext10:
  7076                           	opt stack 0
  7077  003050                     ___lbtoft:
  7078                           	opt stack 24
  7079                           
  7080                           ; BSR set to: 1
  7081                           ;incstack = 0
  7082                           ;___lbtoft@c stored from wreg
  7083  003050  0101               	movlb	1	; () banked
  7084  003052  6F5B               	movwf	___lbtoft@c& (0+255),b
  7085                           
  7086                           ; BSR set to: 1
  7087  003054  0101               	movlb	1	; () banked
  7088  003056  515B               	movf	___lbtoft@c& (0+255),w,b
  7089  003058  0101               	movlb	1	; () banked
  7090  00305A  6F50               	movwf	___ftpack@arg& (0+255),b
  7091  00305C  6B51               	clrf	(___ftpack@arg+1)& (0+255),b
  7092  00305E  6B52               	clrf	(___ftpack@arg+2)& (0+255),b
  7093  003060  0E8E               	movlw	142
  7094  003062  0101               	movlb	1	; () banked
  7095  003064  6F53               	movwf	___ftpack@exp& (0+255),b
  7096  003066  0E00               	movlw	0
  7097  003068  0101               	movlb	1	; () banked
  7098  00306A  6F54               	movwf	___ftpack@sign& (0+255),b
  7099  00306C  ECC7  F012         	call	___ftpack	;wreg free
  7100  003070  C150  F158         	movff	?___ftpack,?___lbtoft
  7101  003074  C151  F159         	movff	?___ftpack+1,?___lbtoft+1
  7102  003078  C152  F15A         	movff	?___ftpack+2,?___lbtoft+2
  7103  00307C  D000               	goto	l1242
  7104  00307E                     l1242:
  7105  00307E  0012               	return		;funcret
  7106  003080                     __end_of___lbtoft:
  7107                           	opt stack 0
  7108                           tblptru	equ	0xFF8
  7109                           prodh	equ	0xFF4
  7110                           prodl	equ	0xFF3
  7111                           intcon	equ	0xFF2
  7112                           intcon2	equ	0xFF1
  7113                           postinc0	equ	0xFEE
  7114                           wreg	equ	0xFE8
  7115                           indf2	equ	0xFDF
  7116                           fsr2h	equ	0xFDA
  7117                           fsr2l	equ	0xFD9
  7118                           status	equ	0xFD8
  7119                           
  7120 ;; *************** function ___ftmul *****************
  7121 ;; Defined at:
  7122 ;;		line 62 in file "C:\Program Files (x86)\Microchip\xc8\v1.34\sources\common\ftmul.c"
  7123 ;; Parameters:    Size  Location     Type
  7124 ;;  f1              3   12[BANK1 ] float 
  7125 ;;  f2              3   15[BANK1 ] float 
  7126 ;; Auto vars:     Size  Location     Type
  7127 ;;  f3_as_produc    3   22[BANK1 ] unsigned um
  7128 ;;  sign            1   26[BANK1 ] unsigned char 
  7129 ;;  cntr            1   25[BANK1 ] unsigned char 
  7130 ;;  exp             1   21[BANK1 ] unsigned char 
  7131 ;; Return value:  Size  Location     Type
  7132 ;;                  3   12[BANK1 ] float 
  7133 ;; Registers used:
  7134 ;;		wreg, status,2, status,0, cstack
  7135 ;; Tracked objects:
  7136 ;;		On entry : 0/0
  7137 ;;		On exit  : 0/0
  7138 ;;		Unchanged: 0/0
  7139 ;; Data sizes:     COMRAM   BANK0   BANK1   BANK2   BANK3   BANK4   BANK5   BANK6   BANK7
  7140 ;;      Params:         0       0       6       0       0       0       0       0       0
  7141 ;;      Locals:         0       0       6       0       0       0       0       0       0
  7142 ;;      Temps:          0       0       3       0       0       0       0       0       0
  7143 ;;      Totals:         0       0      15       0       0       0       0       0       0
  7144 ;;Total ram usage:       15 bytes
  7145 ;; Hardware stack levels used:    1
  7146 ;; Hardware stack levels required when called:    5
  7147 ;; This function calls:
  7148 ;;		___ftpack
  7149 ;; This function is called by:
  7150 ;;		_ExecutaBrassagem
  7151 ;; This function uses a non-reentrant model
  7152 ;;
  7153                           
  7154                           	psect	text11
  7155  002312                     __ptext11:
  7156                           	opt stack 0
  7157  002312                     ___ftmul:
  7158                           	opt stack 24
  7159                           
  7160                           ;incstack = 0
  7161  002312  C15E  F162         	movff	___ftmul@f1+2,??___ftmul
  7162  002316  0101               	movlb	1	; () banked
  7163  002318  6B63               	clrf	(??___ftmul+1)& (0+255),b
  7164  00231A  6B64               	clrf	(??___ftmul+2)& (0+255),b
  7165  00231C  0101               	movlb	1	; () banked
  7166  00231E  355D               	rlcf	(___ftmul@f1+1)& (0+255),w,b
  7167  002320  0101               	movlb	1	; () banked
  7168  002322  3762               	rlcf	??___ftmul& (0+255),f,b
  7169  002324  E301               	bnc	u4611
  7170  002326  8163               	bsf	(??___ftmul+1)& (0+255),0,b
  7171  002328                     u4611:
  7172  002328  0101               	movlb	1	; () banked
  7173  00232A  5162               	movf	??___ftmul& (0+255),w,b
  7174  00232C  0101               	movlb	1	; () banked
  7175  00232E  6F65               	movwf	___ftmul@exp& (0+255),b
  7176  002330  0101               	movlb	1	; () banked
  7177  002332  5165               	movf	___ftmul@exp& (0+255),w,b
  7178  002334  A4D8               	btfss	status,2,c
  7179  002336  D002               	goto	l5643
  7180  002338  D014               	goto	l5645
  7181                           
  7182                           ; BSR set to: 1
  7183                           
  7184                           ; BSR set to: 1
  7185  00233A  D098               	goto	l1185
  7186  00233C                     l5643:
  7187                           
  7188                           ; BSR set to: 1
  7189  00233C  C161  F162         	movff	___ftmul@f2+2,??___ftmul
  7190  002340  0101               	movlb	1	; () banked
  7191  002342  6B63               	clrf	(??___ftmul+1)& (0+255),b
  7192  002344  6B64               	clrf	(??___ftmul+2)& (0+255),b
  7193  002346  0101               	movlb	1	; () banked
  7194  002348  3560               	rlcf	(___ftmul@f2+1)& (0+255),w,b
  7195  00234A  0101               	movlb	1	; () banked
  7196  00234C  3762               	rlcf	??___ftmul& (0+255),f,b
  7197  00234E  E301               	bnc	u4631
  7198  002350  8163               	bsf	(??___ftmul+1)& (0+255),0,b
  7199  002352                     u4631:
  7200  002352  0101               	movlb	1	; () banked
  7201  002354  5162               	movf	??___ftmul& (0+255),w,b
  7202  002356  0101               	movlb	1	; () banked
  7203  002358  6F6A               	movwf	___ftmul@sign& (0+255),b
  7204  00235A  0101               	movlb	1	; () banked
  7205  00235C  516A               	movf	___ftmul@sign& (0+255),w,b
  7206  00235E  A4D8               	btfss	status,2,c
  7207  002360  D00A               	goto	l5649
  7208  002362                     l5645:
  7209                           
  7210                           ; BSR set to: 1
  7211  002362  0E00               	movlw	0
  7212  002364  0101               	movlb	1	; () banked
  7213  002366  6F5C               	movwf	?___ftmul& (0+255),b
  7214  002368  0E00               	movlw	0
  7215  00236A  0101               	movlb	1	; () banked
  7216  00236C  6F5D               	movwf	(?___ftmul+1)& (0+255),b
  7217  00236E  0E00               	movlw	0
  7218  002370  0101               	movlb	1	; () banked
  7219  002372  6F5E               	movwf	(?___ftmul+2)& (0+255),b
  7220                           
  7221                           ; BSR set to: 1
  7222  002374  D07B               	goto	l1185
  7223  002376                     l5649:
  7224                           
  7225                           ; BSR set to: 1
  7226  002376  0101               	movlb	1	; () banked
  7227  002378  516A               	movf	___ftmul@sign& (0+255),w,b
  7228  00237A  0F7B               	addlw	123
  7229  00237C  0101               	movlb	1	; () banked
  7230  00237E  2765               	addwf	___ftmul@exp& (0+255),f,b
  7231                           
  7232                           ; BSR set to: 1
  7233  002380  C15E  F16A         	movff	___ftmul@f1+2,___ftmul@sign
  7234  002384  0101               	movlb	1	; () banked
  7235  002386  5161               	movf	(___ftmul@f2+2)& (0+255),w,b
  7236  002388  0101               	movlb	1	; () banked
  7237  00238A  1B6A               	xorwf	___ftmul@sign& (0+255),f,b
  7238  00238C  0E80               	movlw	128
  7239  00238E  0101               	movlb	1	; () banked
  7240  002390  176A               	andwf	___ftmul@sign& (0+255),f,b
  7241                           
  7242                           ; BSR set to: 1
  7243  002392  0101               	movlb	1	; () banked
  7244  002394  8F5D               	bsf	(___ftmul@f1+1)& (0+255),7,b
  7245                           
  7246                           ; BSR set to: 1
  7247  002396  0101               	movlb	1	; () banked
  7248  002398  8F60               	bsf	(___ftmul@f2+1)& (0+255),7,b
  7249                           
  7250                           ; BSR set to: 1
  7251  00239A  0EFF               	movlw	255
  7252  00239C  0101               	movlb	1	; () banked
  7253  00239E  175F               	andwf	___ftmul@f2& (0+255),f,b
  7254  0023A0  0EFF               	movlw	255
  7255  0023A2  0101               	movlb	1	; () banked
  7256  0023A4  1760               	andwf	(___ftmul@f2+1)& (0+255),f,b
  7257  0023A6  0E00               	movlw	0
  7258  0023A8  0101               	movlb	1	; () banked
  7259  0023AA  1761               	andwf	(___ftmul@f2+2)& (0+255),f,b
  7260                           
  7261                           ; BSR set to: 1
  7262  0023AC  0E00               	movlw	0
  7263  0023AE  0101               	movlb	1	; () banked
  7264  0023B0  6F66               	movwf	___ftmul@f3_as_product& (0+255),b
  7265  0023B2  0E00               	movlw	0
  7266  0023B4  0101               	movlb	1	; () banked
  7267  0023B6  6F67               	movwf	(___ftmul@f3_as_product+1)& (0+255),b
  7268  0023B8  0E00               	movlw	0
  7269  0023BA  0101               	movlb	1	; () banked
  7270  0023BC  6F68               	movwf	(___ftmul@f3_as_product+2)& (0+255),b
  7271                           
  7272                           ; BSR set to: 1
  7273  0023BE  0E07               	movlw	7
  7274  0023C0  0101               	movlb	1	; () banked
  7275  0023C2  6F69               	movwf	___ftmul@cntr& (0+255),b
  7276  0023C4  D000               	goto	l5663
  7277  0023C6                     l5663:
  7278                           
  7279                           ; BSR set to: 1
  7280  0023C6  0101               	movlb	1	; () banked
  7281  0023C8  A15C               	btfss	___ftmul@f1& (0+255),0,b
  7282  0023CA  D00D               	goto	l5667
  7283                           
  7284                           ; BSR set to: 1
  7285  0023CC  0101               	movlb	1	; () banked
  7286  0023CE  515F               	movf	___ftmul@f2& (0+255),w,b
  7287  0023D0  0101               	movlb	1	; () banked
  7288  0023D2  2766               	addwf	___ftmul@f3_as_product& (0+255),f,b
  7289  0023D4  0101               	movlb	1	; () banked
  7290  0023D6  5160               	movf	(___ftmul@f2+1)& (0+255),w,b
  7291  0023D8  0101               	movlb	1	; () banked
  7292  0023DA  2367               	addwfc	(___ftmul@f3_as_product+1)& (0+255),f,b
  7293  0023DC  0101               	movlb	1	; () banked
  7294  0023DE  5161               	movf	(___ftmul@f2+2)& (0+255),w,b
  7295  0023E0  0101               	movlb	1	; () banked
  7296  0023E2  2368               	addwfc	(___ftmul@f3_as_product+2)& (0+255),f,b
  7297  0023E4  D000               	goto	l5667
  7298  0023E6                     l5667:
  7299                           
  7300                           ; BSR set to: 1
  7301  0023E6  0101               	movlb	1	; () banked
  7302  0023E8  90D8               	bcf	status,0,c
  7303  0023EA  335E               	rrcf	(___ftmul@f1+2)& (0+255),f,b
  7304  0023EC  335D               	rrcf	(___ftmul@f1+1)& (0+255),f,b
  7305  0023EE  335C               	rrcf	___ftmul@f1& (0+255),f,b
  7306  0023F0  0101               	movlb	1	; () banked
  7307  0023F2  90D8               	bcf	status,0,c
  7308  0023F4  375F               	rlcf	___ftmul@f2& (0+255),f,b
  7309  0023F6  3760               	rlcf	(___ftmul@f2+1)& (0+255),f,b
  7310  0023F8  3761               	rlcf	(___ftmul@f2+2)& (0+255),f,b
  7311                           
  7312                           ; BSR set to: 1
  7313  0023FA  0101               	movlb	1	; () banked
  7314  0023FC  2F69               	decfsz	___ftmul@cntr& (0+255),f,b
  7315  0023FE  D7E3               	goto	l5663
  7316  002400  D000               	goto	l5671
  7317  002402                     l5671:
  7318                           
  7319                           ; BSR set to: 1
  7320  002402  0E09               	movlw	9
  7321  002404  0101               	movlb	1	; () banked
  7322  002406  6F69               	movwf	___ftmul@cntr& (0+255),b
  7323  002408  D000               	goto	l5673
  7324  00240A                     l5673:
  7325                           
  7326                           ; BSR set to: 1
  7327  00240A  0101               	movlb	1	; () banked
  7328  00240C  A15C               	btfss	___ftmul@f1& (0+255),0,b
  7329  00240E  D00D               	goto	l5677
  7330                           
  7331                           ; BSR set to: 1
  7332  002410  0101               	movlb	1	; () banked
  7333  002412  515F               	movf	___ftmul@f2& (0+255),w,b
  7334  002414  0101               	movlb	1	; () banked
  7335  002416  2766               	addwf	___ftmul@f3_as_product& (0+255),f,b
  7336  002418  0101               	movlb	1	; () banked
  7337  00241A  5160               	movf	(___ftmul@f2+1)& (0+255),w,b
  7338  00241C  0101               	movlb	1	; () banked
  7339  00241E  2367               	addwfc	(___ftmul@f3_as_product+1)& (0+255),f,b
  7340  002420  0101               	movlb	1	; () banked
  7341  002422  5161               	movf	(___ftmul@f2+2)& (0+255),w,b
  7342  002424  0101               	movlb	1	; () banked
  7343  002426  2368               	addwfc	(___ftmul@f3_as_product+2)& (0+255),f,b
  7344  002428  D000               	goto	l5677
  7345  00242A                     l5677:
  7346                           
  7347                           ; BSR set to: 1
  7348  00242A  0101               	movlb	1	; () banked
  7349  00242C  90D8               	bcf	status,0,c
  7350  00242E  335E               	rrcf	(___ftmul@f1+2)& (0+255),f,b
  7351  002430  335D               	rrcf	(___ftmul@f1+1)& (0+255),f,b
  7352  002432  335C               	rrcf	___ftmul@f1& (0+255),f,b
  7353  002434  0101               	movlb	1	; () banked
  7354  002436  90D8               	bcf	status,0,c
  7355  002438  3368               	rrcf	(___ftmul@f3_as_product+2)& (0+255),f,b
  7356  00243A  3367               	rrcf	(___ftmul@f3_as_product+1)& (0+255),f,b
  7357  00243C  3366               	rrcf	___ftmul@f3_as_product& (0+255),f,b
  7358                           
  7359                           ; BSR set to: 1
  7360  00243E  0101               	movlb	1	; () banked
  7361  002440  2F69               	decfsz	___ftmul@cntr& (0+255),f,b
  7362  002442  D7E3               	goto	l5673
  7363  002444  D000               	goto	l5681
  7364  002446                     l5681:
  7365                           
  7366                           ; BSR set to: 1
  7367  002446  C166  F150         	movff	___ftmul@f3_as_product,___ftpack@arg
  7368  00244A  C167  F151         	movff	___ftmul@f3_as_product+1,___ftpack@arg+1
  7369  00244E  C168  F152         	movff	___ftmul@f3_as_product+2,___ftpack@arg+2
  7370  002452  C165  F153         	movff	___ftmul@exp,___ftpack@exp
  7371  002456  C16A  F154         	movff	___ftmul@sign,___ftpack@sign
  7372  00245A  ECC7  F012         	call	___ftpack	;wreg free
  7373  00245E  C150  F15C         	movff	?___ftpack,?___ftmul
  7374  002462  C151  F15D         	movff	?___ftpack+1,?___ftmul+1
  7375  002466  C152  F15E         	movff	?___ftpack+2,?___ftmul+2
  7376  00246A  D000               	goto	l1185
  7377  00246C                     l1185:
  7378  00246C  0012               	return		;funcret
  7379  00246E                     __end_of___ftmul:
  7380                           	opt stack 0
  7381                           tblptru	equ	0xFF8
  7382                           prodh	equ	0xFF4
  7383                           prodl	equ	0xFF3
  7384                           intcon	equ	0xFF2
  7385                           intcon2	equ	0xFF1
  7386                           postinc0	equ	0xFEE
  7387                           wreg	equ	0xFE8
  7388                           indf2	equ	0xFDF
  7389                           fsr2h	equ	0xFDA
  7390                           fsr2l	equ	0xFD9
  7391                           status	equ	0xFD8
  7392                           
  7393 ;; *************** function ___ftpack *****************
  7394 ;; Defined at:
  7395 ;;		line 62 in file "C:\Program Files (x86)\Microchip\xc8\v1.34\sources\common\float.c"
  7396 ;; Parameters:    Size  Location     Type
  7397 ;;  arg             3    0[BANK1 ] unsigned um
  7398 ;;  exp             1    3[BANK1 ] unsigned char 
  7399 ;;  sign            1    4[BANK1 ] unsigned char 
  7400 ;; Auto vars:     Size  Location     Type
  7401 ;;		None
  7402 ;; Return value:  Size  Location     Type
  7403 ;;                  3    0[BANK1 ] float 
  7404 ;; Registers used:
  7405 ;;		wreg, status,2, status,0
  7406 ;; Tracked objects:
  7407 ;;		On entry : 0/0
  7408 ;;		On exit  : 0/0
  7409 ;;		Unchanged: 0/0
  7410 ;; Data sizes:     COMRAM   BANK0   BANK1   BANK2   BANK3   BANK4   BANK5   BANK6   BANK7
  7411 ;;      Params:         0       0       5       0       0       0       0       0       0
  7412 ;;      Locals:         0       0       0       0       0       0       0       0       0
  7413 ;;      Temps:          0       0       3       0       0       0       0       0       0
  7414 ;;      Totals:         0       0       8       0       0       0       0       0       0
  7415 ;;Total ram usage:        8 bytes
  7416 ;; Hardware stack levels used:    1
  7417 ;; Hardware stack levels required when called:    4
  7418 ;; This function calls:
  7419 ;;		Nothing
  7420 ;; This function is called by:
  7421 ;;		___ftmul
  7422 ;;		___lbtoft
  7423 ;;		___lwtoft
  7424 ;; This function uses a non-reentrant model
  7425 ;;
  7426                           
  7427                           	psect	text12
  7428  00258E                     __ptext12:
  7429                           	opt stack 0
  7430  00258E                     ___ftpack:
  7431                           	opt stack 24
  7432                           
  7433                           ;incstack = 0
  7434  00258E  0101               	movlb	1	; () banked
  7435  002590  5153               	movf	___ftpack@exp& (0+255),w,b
  7436  002592  0101               	movlb	1	; () banked
  7437  002594  B4D8               	btfsc	status,2,c
  7438  002596  D008               	goto	l5433
  7439                           
  7440                           ; BSR set to: 1
  7441  002598  0101               	movlb	1	; () banked
  7442  00259A  5150               	movf	___ftpack@arg& (0+255),w,b
  7443  00259C  0101               	movlb	1	; () banked
  7444  00259E  1151               	iorwf	(___ftpack@arg+1)& (0+255),w,b
  7445  0025A0  0101               	movlb	1	; () banked
  7446  0025A2  1152               	iorwf	(___ftpack@arg+2)& (0+255),w,b
  7447  0025A4  A4D8               	btfss	status,2,c
  7448  0025A6  D013               	goto	l5439
  7449  0025A8                     l5433:
  7450                           
  7451                           ; BSR set to: 1
  7452  0025A8  0E00               	movlw	0
  7453  0025AA  0101               	movlb	1	; () banked
  7454  0025AC  6F50               	movwf	?___ftpack& (0+255),b
  7455  0025AE  0E00               	movlw	0
  7456  0025B0  0101               	movlb	1	; () banked
  7457  0025B2  6F51               	movwf	(?___ftpack+1)& (0+255),b
  7458  0025B4  0E00               	movlw	0
  7459  0025B6  0101               	movlb	1	; () banked
  7460  0025B8  6F52               	movwf	(?___ftpack+2)& (0+255),b
  7461                           
  7462                           ; BSR set to: 1
  7463  0025BA  D078               	goto	l1098
  7464                           
  7465                           ; BSR set to: 1
  7466  0025BC  D008               	goto	l5439
  7467  0025BE                     l5437:
  7468                           
  7469                           ; BSR set to: 1
  7470  0025BE  0101               	movlb	1	; () banked
  7471  0025C0  2B53               	incf	___ftpack@exp& (0+255),f,b
  7472  0025C2  0101               	movlb	1	; () banked
  7473  0025C4  90D8               	bcf	status,0,c
  7474  0025C6  3352               	rrcf	(___ftpack@arg+2)& (0+255),f,b
  7475  0025C8  3351               	rrcf	(___ftpack@arg+1)& (0+255),f,b
  7476  0025CA  3350               	rrcf	___ftpack@arg& (0+255),f,b
  7477  0025CC  D000               	goto	l5439
  7478  0025CE                     l5439:
  7479                           
  7480                           ; BSR set to: 1
  7481  0025CE  0E00               	movlw	0
  7482  0025D0  0101               	movlb	1	; () banked
  7483  0025D2  1550               	andwf	___ftpack@arg& (0+255),w,b
  7484  0025D4  0101               	movlb	1	; () banked
  7485  0025D6  6F55               	movwf	??___ftpack& (0+255),b
  7486  0025D8  0E00               	movlw	0
  7487  0025DA  0101               	movlb	1	; () banked
  7488  0025DC  1551               	andwf	(___ftpack@arg+1)& (0+255),w,b
  7489  0025DE  0101               	movlb	1	; () banked
  7490  0025E0  6F56               	movwf	(??___ftpack+1)& (0+255),b
  7491  0025E2  0EFE               	movlw	254
  7492  0025E4  0101               	movlb	1	; () banked
  7493  0025E6  1552               	andwf	(___ftpack@arg+2)& (0+255),w,b
  7494  0025E8  0101               	movlb	1	; () banked
  7495  0025EA  6F57               	movwf	(??___ftpack+2)& (0+255),b
  7496  0025EC  0101               	movlb	1	; () banked
  7497  0025EE  5155               	movf	??___ftpack& (0+255),w,b
  7498  0025F0  0101               	movlb	1	; () banked
  7499  0025F2  1156               	iorwf	(??___ftpack+1)& (0+255),w,b
  7500  0025F4  0101               	movlb	1	; () banked
  7501  0025F6  1157               	iorwf	(??___ftpack+2)& (0+255),w,b
  7502  0025F8  B4D8               	btfsc	status,2,c
  7503  0025FA  D013               	goto	l5445
  7504  0025FC  D7E0               	goto	l5437
  7505                           
  7506                           ; BSR set to: 1
  7507  0025FE  D011               	goto	l5445
  7508  002600                     l5441:
  7509                           
  7510                           ; BSR set to: 1
  7511  002600  0101               	movlb	1	; () banked
  7512  002602  2B53               	incf	___ftpack@exp& (0+255),f,b
  7513                           
  7514                           ; BSR set to: 1
  7515  002604  0E01               	movlw	1
  7516  002606  0101               	movlb	1	; () banked
  7517  002608  2750               	addwf	___ftpack@arg& (0+255),f,b
  7518  00260A  0E00               	movlw	0
  7519  00260C  0101               	movlb	1	; () banked
  7520  00260E  2351               	addwfc	(___ftpack@arg+1)& (0+255),f,b
  7521  002610  0E00               	movlw	0
  7522  002612  0101               	movlb	1	; () banked
  7523  002614  2352               	addwfc	(___ftpack@arg+2)& (0+255),f,b
  7524  002616  0101               	movlb	1	; () banked
  7525  002618  90D8               	bcf	status,0,c
  7526  00261A  3352               	rrcf	(___ftpack@arg+2)& (0+255),f,b
  7527  00261C  3351               	rrcf	(___ftpack@arg+1)& (0+255),f,b
  7528  00261E  3350               	rrcf	___ftpack@arg& (0+255),f,b
  7529  002620  D000               	goto	l5445
  7530  002622                     l5445:
  7531                           
  7532                           ; BSR set to: 1
  7533  002622  0E00               	movlw	0
  7534  002624  0101               	movlb	1	; () banked
  7535  002626  1550               	andwf	___ftpack@arg& (0+255),w,b
  7536  002628  0101               	movlb	1	; () banked
  7537  00262A  6F55               	movwf	??___ftpack& (0+255),b
  7538  00262C  0E00               	movlw	0
  7539  00262E  0101               	movlb	1	; () banked
  7540  002630  1551               	andwf	(___ftpack@arg+1)& (0+255),w,b
  7541  002632  0101               	movlb	1	; () banked
  7542  002634  6F56               	movwf	(??___ftpack+1)& (0+255),b
  7543  002636  0EFF               	movlw	255
  7544  002638  0101               	movlb	1	; () banked
  7545  00263A  1552               	andwf	(___ftpack@arg+2)& (0+255),w,b
  7546  00263C  0101               	movlb	1	; () banked
  7547  00263E  6F57               	movwf	(??___ftpack+2)& (0+255),b
  7548  002640  0101               	movlb	1	; () banked
  7549  002642  5155               	movf	??___ftpack& (0+255),w,b
  7550  002644  0101               	movlb	1	; () banked
  7551  002646  1156               	iorwf	(??___ftpack+1)& (0+255),w,b
  7552  002648  0101               	movlb	1	; () banked
  7553  00264A  1157               	iorwf	(??___ftpack+2)& (0+255),w,b
  7554  00264C  B4D8               	btfsc	status,2,c
  7555  00264E  D00A               	goto	l5449
  7556  002650  D7D7               	goto	l5441
  7557                           
  7558                           ; BSR set to: 1
  7559  002652  D008               	goto	l5449
  7560  002654                     l5447:
  7561                           
  7562                           ; BSR set to: 1
  7563  002654  0101               	movlb	1	; () banked
  7564  002656  0753               	decf	___ftpack@exp& (0+255),f,b
  7565  002658  0101               	movlb	1	; () banked
  7566  00265A  90D8               	bcf	status,0,c
  7567  00265C  3750               	rlcf	___ftpack@arg& (0+255),f,b
  7568  00265E  3751               	rlcf	(___ftpack@arg+1)& (0+255),f,b
  7569  002660  3752               	rlcf	(___ftpack@arg+2)& (0+255),f,b
  7570  002662  D000               	goto	l5449
  7571  002664                     l5449:
  7572                           
  7573                           ; BSR set to: 1
  7574  002664  0101               	movlb	1	; () banked
  7575  002666  BF51               	btfsc	(___ftpack@arg+1)& (0+255),7,b
  7576  002668  D005               	goto	l1109
  7577                           
  7578                           ; BSR set to: 1
  7579  00266A  0E02               	movlw	2
  7580  00266C  0101               	movlb	1	; () banked
  7581  00266E  6153               	cpfslt	___ftpack@exp& (0+255),b
  7582  002670  D7F1               	goto	l5447
  7583  002672  D000               	goto	l1109
  7584  002674                     l1109:
  7585                           
  7586                           ; BSR set to: 1
  7587  002674  0101               	movlb	1	; () banked
  7588  002676  B153               	btfsc	___ftpack@exp& (0+255),0,b
  7589  002678  D003               	goto	l5455
  7590                           
  7591                           ; BSR set to: 1
  7592  00267A  0101               	movlb	1	; () banked
  7593  00267C  9F51               	bcf	(___ftpack@arg+1)& (0+255),7,b
  7594  00267E  D000               	goto	l5455
  7595  002680                     l5455:
  7596                           
  7597                           ; BSR set to: 1
  7598  002680  0101               	movlb	1	; () banked
  7599  002682  90D8               	bcf	status,0,c
  7600  002684  3353               	rrcf	___ftpack@exp& (0+255),f,b
  7601  002686  0101               	movlb	1	; () banked
  7602  002688  5153               	movf	___ftpack@exp& (0+255),w,b
  7603  00268A  0101               	movlb	1	; () banked
  7604  00268C  1352               	iorwf	(___ftpack@arg+2)& (0+255),f,b
  7605                           
  7606                           ; BSR set to: 1
  7607  00268E  0101               	movlb	1	; () banked
  7608  002690  5154               	movf	___ftpack@sign& (0+255),w,b
  7609  002692  0101               	movlb	1	; () banked
  7610  002694  B4D8               	btfsc	status,2,c
  7611  002696  D003               	goto	l5461
  7612                           
  7613                           ; BSR set to: 1
  7614  002698  0101               	movlb	1	; () banked
  7615  00269A  8F52               	bsf	(___ftpack@arg+2)& (0+255),7,b
  7616  00269C  D000               	goto	l5461
  7617  00269E                     l5461:
  7618                           
  7619                           ; BSR set to: 1
  7620  00269E  C150  F150         	movff	___ftpack@arg,?___ftpack
  7621  0026A2  C151  F151         	movff	___ftpack@arg+1,?___ftpack+1
  7622  0026A6  C152  F152         	movff	___ftpack@arg+2,?___ftpack+2
  7623  0026AA  D000               	goto	l1098
  7624  0026AC                     l1098:
  7625                           
  7626                           ; BSR set to: 1
  7627  0026AC  0012               	return		;funcret
  7628  0026AE                     __end_of___ftpack:
  7629                           	opt stack 0
  7630                           tblptru	equ	0xFF8
  7631                           prodh	equ	0xFF4
  7632                           prodl	equ	0xFF3
  7633                           intcon	equ	0xFF2
  7634                           intcon2	equ	0xFF1
  7635                           postinc0	equ	0xFEE
  7636                           wreg	equ	0xFE8
  7637                           indf2	equ	0xFDF
  7638                           fsr2h	equ	0xFDA
  7639                           fsr2l	equ	0xFD9
  7640                           status	equ	0xFD8
  7641                           
  7642 ;; *************** function ___ftge *****************
  7643 ;; Defined at:
  7644 ;;		line 4 in file "C:\Program Files (x86)\Microchip\xc8\v1.34\sources\common\ftge.c"
  7645 ;; Parameters:    Size  Location     Type
  7646 ;;  ff1             3   27[BANK1 ] float 
  7647 ;;  ff2             3   30[BANK1 ] float 
  7648 ;; Auto vars:     Size  Location     Type
  7649 ;;		None
  7650 ;; Return value:  Size  Location     Type
  7651 ;;		None               void
  7652 ;; Registers used:
  7653 ;;		wreg, status,2, status,0
  7654 ;; Tracked objects:
  7655 ;;		On entry : 0/0
  7656 ;;		On exit  : 0/0
  7657 ;;		Unchanged: 0/0
  7658 ;; Data sizes:     COMRAM   BANK0   BANK1   BANK2   BANK3   BANK4   BANK5   BANK6   BANK7
  7659 ;;      Params:         0       0       6       0       0       0       0       0       0
  7660 ;;      Locals:         0       0       0       0       0       0       0       0       0
  7661 ;;      Temps:          0       0       3       0       0       0       0       0       0
  7662 ;;      Totals:         0       0       9       0       0       0       0       0       0
  7663 ;;Total ram usage:        9 bytes
  7664 ;; Hardware stack levels used:    1
  7665 ;; Hardware stack levels required when called:    4
  7666 ;; This function calls:
  7667 ;;		Nothing
  7668 ;; This function is called by:
  7669 ;;		_ExecutaBrassagem
  7670 ;; This function uses a non-reentrant model
  7671 ;;
  7672                           
  7673                           	psect	text13
  7674  00289A                     __ptext13:
  7675                           	opt stack 0
  7676  00289A                     ___ftge:
  7677                           	opt stack 25
  7678                           
  7679                           ; BSR set to: 1
  7680                           ;incstack = 0
  7681  00289A  0101               	movlb	1	; () banked
  7682  00289C  AF6D               	btfss	(___ftge@ff1+2)& (0+255),7,b
  7683  00289E  D01E               	goto	l5733
  7684                           
  7685                           ; BSR set to: 1
  7686  0028A0  C16B  F171         	movff	___ftge@ff1,??___ftge
  7687  0028A4  C16C  F172         	movff	___ftge@ff1+1,??___ftge+1
  7688  0028A8  C16D  F173         	movff	___ftge@ff1+2,??___ftge+2
  7689  0028AC  0101               	movlb	1	; () banked
  7690  0028AE  1F71               	comf	??___ftge& (0+255),f,b
  7691  0028B0  1F72               	comf	(??___ftge+1)& (0+255),f,b
  7692  0028B2  1F73               	comf	(??___ftge+2)& (0+255),f,b
  7693  0028B4  2B71               	incf	??___ftge& (0+255),f,b
  7694  0028B6  0E00               	movlw	0
  7695  0028B8  2372               	addwfc	(??___ftge+1)& (0+255),f,b
  7696  0028BA  2373               	addwfc	(??___ftge+2)& (0+255),f,b
  7697  0028BC  0E00               	movlw	0
  7698  0028BE  0101               	movlb	1	; () banked
  7699  0028C0  2571               	addwf	??___ftge& (0+255),w,b
  7700  0028C2  0101               	movlb	1	; () banked
  7701  0028C4  6F6B               	movwf	___ftge@ff1& (0+255),b
  7702  0028C6  0E00               	movlw	0
  7703  0028C8  0101               	movlb	1	; () banked
  7704  0028CA  2172               	addwfc	(??___ftge+1)& (0+255),w,b
  7705  0028CC  0101               	movlb	1	; () banked
  7706  0028CE  6F6C               	movwf	(___ftge@ff1+1)& (0+255),b
  7707  0028D0  0E80               	movlw	128
  7708  0028D2  0101               	movlb	1	; () banked
  7709  0028D4  2173               	addwfc	(??___ftge+2)& (0+255),w,b
  7710  0028D6  0101               	movlb	1	; () banked
  7711  0028D8  6F6D               	movwf	(___ftge@ff1+2)& (0+255),b
  7712  0028DA  D000               	goto	l5733
  7713  0028DC                     l5733:
  7714                           
  7715                           ; BSR set to: 1
  7716  0028DC  0101               	movlb	1	; () banked
  7717  0028DE  AF70               	btfss	(___ftge@ff2+2)& (0+255),7,b
  7718  0028E0  D01E               	goto	l5737
  7719                           
  7720                           ; BSR set to: 1
  7721  0028E2  C16E  F171         	movff	___ftge@ff2,??___ftge
  7722  0028E6  C16F  F172         	movff	___ftge@ff2+1,??___ftge+1
  7723  0028EA  C170  F173         	movff	___ftge@ff2+2,??___ftge+2
  7724  0028EE  0101               	movlb	1	; () banked
  7725  0028F0  1F71               	comf	??___ftge& (0+255),f,b
  7726  0028F2  1F72               	comf	(??___ftge+1)& (0+255),f,b
  7727  0028F4  1F73               	comf	(??___ftge+2)& (0+255),f,b
  7728  0028F6  2B71               	incf	??___ftge& (0+255),f,b
  7729  0028F8  0E00               	movlw	0
  7730  0028FA  2372               	addwfc	(??___ftge+1)& (0+255),f,b
  7731  0028FC  2373               	addwfc	(??___ftge+2)& (0+255),f,b
  7732  0028FE  0E00               	movlw	0
  7733  002900  0101               	movlb	1	; () banked
  7734  002902  2571               	addwf	??___ftge& (0+255),w,b
  7735  002904  0101               	movlb	1	; () banked
  7736  002906  6F6E               	movwf	___ftge@ff2& (0+255),b
  7737  002908  0E00               	movlw	0
  7738  00290A  0101               	movlb	1	; () banked
  7739  00290C  2172               	addwfc	(??___ftge+1)& (0+255),w,b
  7740  00290E  0101               	movlb	1	; () banked
  7741  002910  6F6F               	movwf	(___ftge@ff2+1)& (0+255),b
  7742  002912  0E80               	movlw	128
  7743  002914  0101               	movlb	1	; () banked
  7744  002916  2173               	addwfc	(??___ftge+2)& (0+255),w,b
  7745  002918  0101               	movlb	1	; () banked
  7746  00291A  6F70               	movwf	(___ftge@ff2+2)& (0+255),b
  7747  00291C  D000               	goto	l5737
  7748  00291E                     l5737:
  7749                           
  7750                           ; BSR set to: 1
  7751  00291E  0E00               	movlw	0
  7752  002920  0101               	movlb	1	; () banked
  7753  002922  1B6B               	xorwf	___ftge@ff1& (0+255),f,b
  7754  002924  0E00               	movlw	0
  7755  002926  0101               	movlb	1	; () banked
  7756  002928  1B6C               	xorwf	(___ftge@ff1+1)& (0+255),f,b
  7757  00292A  0E80               	movlw	128
  7758  00292C  0101               	movlb	1	; () banked
  7759  00292E  1B6D               	xorwf	(___ftge@ff1+2)& (0+255),f,b
  7760                           
  7761                           ; BSR set to: 1
  7762  002930  0E00               	movlw	0
  7763  002932  0101               	movlb	1	; () banked
  7764  002934  1B6E               	xorwf	___ftge@ff2& (0+255),f,b
  7765  002936  0E00               	movlw	0
  7766  002938  0101               	movlb	1	; () banked
  7767  00293A  1B6F               	xorwf	(___ftge@ff2+1)& (0+255),f,b
  7768  00293C  0E80               	movlw	128
  7769  00293E  0101               	movlb	1	; () banked
  7770  002940  1B70               	xorwf	(___ftge@ff2+2)& (0+255),f,b
  7771  002942  0101               	movlb	1	; () banked
  7772  002944  516E               	movf	___ftge@ff2& (0+255),w,b
  7773  002946  0101               	movlb	1	; () banked
  7774  002948  5D6B               	subwf	___ftge@ff1& (0+255),w,b
  7775  00294A  0101               	movlb	1	; () banked
  7776  00294C  516F               	movf	(___ftge@ff2+1)& (0+255),w,b
  7777  00294E  0101               	movlb	1	; () banked
  7778  002950  596C               	subwfb	(___ftge@ff1+1)& (0+255),w,b
  7779  002952  0101               	movlb	1	; () banked
  7780  002954  5170               	movf	(___ftge@ff2+2)& (0+255),w,b
  7781  002956  0101               	movlb	1	; () banked
  7782  002958  596D               	subwfb	(___ftge@ff1+2)& (0+255),w,b
  7783  00295A  B0D8               	btfsc	status,0,c
  7784  00295C  D002               	goto	l5743
  7785                           
  7786                           ; BSR set to: 1
  7787  00295E  90D8               	bcf	status,0,c
  7788  002960  D002               	goto	l1179
  7789  002962                     l5743:
  7790                           
  7791                           ; BSR set to: 1
  7792  002962  80D8               	bsf	status,0,c
  7793                           
  7794                           ; BSR set to: 1
  7795  002964  D000               	goto	l1179
  7796  002966                     l1179:
  7797                           
  7798                           ; BSR set to: 1
  7799  002966  0012               	return		;funcret
  7800  002968                     __end_of___ftge:
  7801                           	opt stack 0
  7802                           tblptru	equ	0xFF8
  7803                           prodh	equ	0xFF4
  7804                           prodl	equ	0xFF3
  7805                           intcon	equ	0xFF2
  7806                           intcon2	equ	0xFF1
  7807                           postinc0	equ	0xFEE
  7808                           wreg	equ	0xFE8
  7809                           indf2	equ	0xFDF
  7810                           fsr2h	equ	0xFDA
  7811                           fsr2l	equ	0xFD9
  7812                           status	equ	0xFD8
  7813                           
  7814 ;; *************** function ___awdiv *****************
  7815 ;; Defined at:
  7816 ;;		line 8 in file "C:\Program Files (x86)\Microchip\xc8\v1.34\sources\common\awdiv.c"
  7817 ;; Parameters:    Size  Location     Type
  7818 ;;  dividend        2    7[BANK1 ] int 
  7819 ;;  divisor         2    9[BANK1 ] int 
  7820 ;; Auto vars:     Size  Location     Type
  7821 ;;  quotient        2   13[BANK1 ] int 
  7822 ;;  sign            1   12[BANK1 ] unsigned char 
  7823 ;;  counter         1   11[BANK1 ] unsigned char 
  7824 ;; Return value:  Size  Location     Type
  7825 ;;                  2    7[BANK1 ] int 
  7826 ;; Registers used:
  7827 ;;		wreg, status,2, status,0
  7828 ;; Tracked objects:
  7829 ;;		On entry : 0/0
  7830 ;;		On exit  : 0/0
  7831 ;;		Unchanged: 0/0
  7832 ;; Data sizes:     COMRAM   BANK0   BANK1   BANK2   BANK3   BANK4   BANK5   BANK6   BANK7
  7833 ;;      Params:         0       0       4       0       0       0       0       0       0
  7834 ;;      Locals:         0       0       4       0       0       0       0       0       0
  7835 ;;      Temps:          0       0       0       0       0       0       0       0       0
  7836 ;;      Totals:         0       0       8       0       0       0       0       0       0
  7837 ;;Total ram usage:        8 bytes
  7838 ;; Hardware stack levels used:    1
  7839 ;; Hardware stack levels required when called:    4
  7840 ;; This function calls:
  7841 ;;		Nothing
  7842 ;; This function is called by:
  7843 ;;		_LeParamConfig
  7844 ;;		_ExecutaBrassagem
  7845 ;; This function uses a non-reentrant model
  7846 ;;
  7847                           
  7848                           	psect	text14
  7849  0027CA                     __ptext14:
  7850                           	opt stack 0
  7851  0027CA                     ___awdiv:
  7852                           	opt stack 25
  7853                           
  7854                           ; BSR set to: 1
  7855                           ;incstack = 0
  7856  0027CA  0E00               	movlw	0
  7857  0027CC  0101               	movlb	1	; () banked
  7858  0027CE  6F5C               	movwf	___awdiv@sign& (0+255),b
  7859                           
  7860                           ; BSR set to: 1
  7861  0027D0  0101               	movlb	1	; () banked
  7862  0027D2  AF5A               	btfss	(___awdiv@divisor+1)& (0+255),7,b
  7863  0027D4  D009               	goto	l5693
  7864                           
  7865                           ; BSR set to: 1
  7866  0027D6  0101               	movlb	1	; () banked
  7867  0027D8  6D59               	negf	___awdiv@divisor& (0+255),b
  7868  0027DA  1F5A               	comf	(___awdiv@divisor+1)& (0+255),f,b
  7869  0027DC  B0D8               	btfsc	status,0,c
  7870  0027DE  2B5A               	incf	(___awdiv@divisor+1)& (0+255),f,b
  7871                           
  7872                           ; BSR set to: 1
  7873  0027E0  0E01               	movlw	1
  7874  0027E2  0101               	movlb	1	; () banked
  7875  0027E4  6F5C               	movwf	___awdiv@sign& (0+255),b
  7876  0027E6  D000               	goto	l5693
  7877  0027E8                     l5693:
  7878                           
  7879                           ; BSR set to: 1
  7880  0027E8  0101               	movlb	1	; () banked
  7881  0027EA  AF58               	btfss	(___awdiv@dividend+1)& (0+255),7,b
  7882  0027EC  D009               	goto	l5699
  7883                           
  7884                           ; BSR set to: 1
  7885  0027EE  0101               	movlb	1	; () banked
  7886  0027F0  6D57               	negf	___awdiv@dividend& (0+255),b
  7887  0027F2  1F58               	comf	(___awdiv@dividend+1)& (0+255),f,b
  7888  0027F4  B0D8               	btfsc	status,0,c
  7889  0027F6  2B58               	incf	(___awdiv@dividend+1)& (0+255),f,b
  7890                           
  7891                           ; BSR set to: 1
  7892  0027F8  0E01               	movlw	1
  7893  0027FA  0101               	movlb	1	; () banked
  7894  0027FC  1B5C               	xorwf	___awdiv@sign& (0+255),f,b
  7895  0027FE  D000               	goto	l5699
  7896  002800                     l5699:
  7897                           
  7898                           ; BSR set to: 1
  7899  002800  0E00               	movlw	0
  7900  002802  0101               	movlb	1	; () banked
  7901  002804  6F5E               	movwf	(___awdiv@quotient+1)& (0+255),b
  7902  002806  0E00               	movlw	0
  7903  002808  6F5D               	movwf	___awdiv@quotient& (0+255),b
  7904                           
  7905                           ; BSR set to: 1
  7906  00280A  0101               	movlb	1	; () banked
  7907  00280C  5159               	movf	___awdiv@divisor& (0+255),w,b
  7908  00280E  0101               	movlb	1	; () banked
  7909  002810  115A               	iorwf	(___awdiv@divisor+1)& (0+255),w,b
  7910  002812  B4D8               	btfsc	status,2,c
  7911  002814  D031               	goto	l5721
  7912                           
  7913                           ; BSR set to: 1
  7914  002816  0E01               	movlw	1
  7915  002818  0101               	movlb	1	; () banked
  7916  00281A  6F5B               	movwf	___awdiv@counter& (0+255),b
  7917  00281C  D007               	goto	l5707
  7918  00281E                     l5705:
  7919                           
  7920                           ; BSR set to: 1
  7921  00281E  0101               	movlb	1	; () banked
  7922  002820  90D8               	bcf	status,0,c
  7923  002822  3759               	rlcf	___awdiv@divisor& (0+255),f,b
  7924  002824  375A               	rlcf	(___awdiv@divisor+1)& (0+255),f,b
  7925  002826  0101               	movlb	1	; () banked
  7926  002828  2B5B               	incf	___awdiv@counter& (0+255),f,b
  7927  00282A  D000               	goto	l5707
  7928  00282C                     l5707:
  7929                           
  7930                           ; BSR set to: 1
  7931  00282C  0101               	movlb	1	; () banked
  7932  00282E  BF5A               	btfsc	(___awdiv@divisor+1)& (0+255),7,b
  7933  002830  D002               	goto	l5709
  7934  002832  D7F5               	goto	l5705
  7935                           
  7936                           ; BSR set to: 1
  7937  002834  D000               	goto	l5709
  7938  002836                     l5709:
  7939                           
  7940                           ; BSR set to: 1
  7941  002836  0101               	movlb	1	; () banked
  7942  002838  90D8               	bcf	status,0,c
  7943  00283A  375D               	rlcf	___awdiv@quotient& (0+255),f,b
  7944  00283C  375E               	rlcf	(___awdiv@quotient+1)& (0+255),f,b
  7945                           
  7946                           ; BSR set to: 1
  7947  00283E  0101               	movlb	1	; () banked
  7948  002840  5159               	movf	___awdiv@divisor& (0+255),w,b
  7949  002842  0101               	movlb	1	; () banked
  7950  002844  5D57               	subwf	___awdiv@dividend& (0+255),w,b
  7951  002846  0101               	movlb	1	; () banked
  7952  002848  515A               	movf	(___awdiv@divisor+1)& (0+255),w,b
  7953  00284A  0101               	movlb	1	; () banked
  7954  00284C  5958               	subwfb	(___awdiv@dividend+1)& (0+255),w,b
  7955  00284E  A0D8               	btfss	status,0,c
  7956  002850  D00B               	goto	l5717
  7957                           
  7958                           ; BSR set to: 1
  7959  002852  0101               	movlb	1	; () banked
  7960  002854  5159               	movf	___awdiv@divisor& (0+255),w,b
  7961  002856  0101               	movlb	1	; () banked
  7962  002858  5F57               	subwf	___awdiv@dividend& (0+255),f,b
  7963  00285A  0101               	movlb	1	; () banked
  7964  00285C  515A               	movf	(___awdiv@divisor+1)& (0+255),w,b
  7965  00285E  0101               	movlb	1	; () banked
  7966  002860  5B58               	subwfb	(___awdiv@dividend+1)& (0+255),f,b
  7967                           
  7968                           ; BSR set to: 1
  7969  002862  0101               	movlb	1	; () banked
  7970  002864  815D               	bsf	___awdiv@quotient& (0+255),0,b
  7971  002866  D000               	goto	l5717
  7972  002868                     l5717:
  7973                           
  7974                           ; BSR set to: 1
  7975  002868  0101               	movlb	1	; () banked
  7976  00286A  90D8               	bcf	status,0,c
  7977  00286C  335A               	rrcf	(___awdiv@divisor+1)& (0+255),f,b
  7978  00286E  3359               	rrcf	___awdiv@divisor& (0+255),f,b
  7979                           
  7980                           ; BSR set to: 1
  7981  002870  0101               	movlb	1	; () banked
  7982  002872  2F5B               	decfsz	___awdiv@counter& (0+255),f,b
  7983  002874  D7E0               	goto	l5709
  7984                           
  7985                           ; BSR set to: 1
  7986  002876  D000               	goto	l5721
  7987  002878                     l5721:
  7988                           
  7989                           ; BSR set to: 1
  7990  002878  0101               	movlb	1	; () banked
  7991  00287A  515C               	movf	___awdiv@sign& (0+255),w,b
  7992  00287C  0101               	movlb	1	; () banked
  7993  00287E  B4D8               	btfsc	status,2,c
  7994  002880  D006               	goto	l5725
  7995                           
  7996                           ; BSR set to: 1
  7997  002882  0101               	movlb	1	; () banked
  7998  002884  6D5D               	negf	___awdiv@quotient& (0+255),b
  7999  002886  1F5E               	comf	(___awdiv@quotient+1)& (0+255),f,b
  8000  002888  B0D8               	btfsc	status,0,c
  8001  00288A  2B5E               	incf	(___awdiv@quotient+1)& (0+255),f,b
  8002  00288C  D000               	goto	l5725
  8003  00288E                     l5725:
  8004                           
  8005                           ; BSR set to: 1
  8006  00288E  C15D  F157         	movff	___awdiv@quotient,?___awdiv
  8007  002892  C15E  F158         	movff	___awdiv@quotient+1,?___awdiv+1
  8008  002896  D000               	goto	l983
  8009  002898                     l983:
  8010                           
  8011                           ; BSR set to: 1
  8012  002898  0012               	return		;funcret
  8013  00289A                     __end_of___awdiv:
  8014                           	opt stack 0
  8015                           tblptru	equ	0xFF8
  8016                           prodh	equ	0xFF4
  8017                           prodl	equ	0xFF3
  8018                           intcon	equ	0xFF2
  8019                           intcon2	equ	0xFF1
  8020                           postinc0	equ	0xFEE
  8021                           wreg	equ	0xFE8
  8022                           indf2	equ	0xFDF
  8023                           fsr2h	equ	0xFDA
  8024                           fsr2l	equ	0xFD9
  8025                           status	equ	0xFD8
  8026                           
  8027 ;; *************** function _LerDWINreg *****************
  8028 ;; Defined at:
  8029 ;;		line 129 in file "display.c"
  8030 ;; Parameters:    Size  Location     Type
  8031 ;;  endereco        1    wreg     unsigned char 
  8032 ;; Auto vars:     Size  Location     Type
  8033 ;;  endereco        1    4[BANK1 ] unsigned char 
  8034 ;;  cont            1    6[BANK1 ] unsigned char 
  8035 ;;  recebido        1    5[BANK1 ] unsigned char 
  8036 ;; Return value:  Size  Location     Type
  8037 ;;                  2    2[BANK1 ] int 
  8038 ;; Registers used:
  8039 ;;		wreg, fsr2l, fsr2h, status,2, status,0, prodl, prodh, cstack
  8040 ;; Tracked objects:
  8041 ;;		On entry : 0/0
  8042 ;;		On exit  : 0/0
  8043 ;;		Unchanged: 0/0
  8044 ;; Data sizes:     COMRAM   BANK0   BANK1   BANK2   BANK3   BANK4   BANK5   BANK6   BANK7
  8045 ;;      Params:         0       0       2       0       0       0       0       0       0
  8046 ;;      Locals:         0       0       3       0       0       0       0       0       0
  8047 ;;      Temps:          0       0       0       0       0       0       0       0       0
  8048 ;;      Totals:         0       0       5       0       0       0       0       0       0
  8049 ;;Total ram usage:        5 bytes
  8050 ;; Hardware stack levels used:    1
  8051 ;; Hardware stack levels required when called:    5
  8052 ;; This function calls:
  8053 ;;		_DelayDWIN
  8054 ;; This function is called by:
  8055 ;;		_main
  8056 ;;		_ExecutaBrassagem
  8057 ;; This function uses a non-reentrant model
  8058 ;;
  8059                           
  8060                           	psect	text15
  8061  002A24                     __ptext15:
  8062                           	opt stack 0
  8063  002A24                     _LerDWINreg:
  8064                           	opt stack 25
  8065                           
  8066                           ; BSR set to: 1
  8067                           ;incstack = 0
  8068                           ;LerDWINreg@endereco stored from wreg
  8069  002A24  0101               	movlb	1	; () banked
  8070  002A26  6F54               	movwf	LerDWINreg@endereco& (0+255),b
  8071                           
  8072                           ; BSR set to: 1
  8073                           ;display.c: 131: unsigned char cont;
  8074                           ;display.c: 132: unsigned char recebido;
  8075                           ;display.c: 134: SerialOut[0] = 0x5A;
  8076  002A28  0E5A               	movlw	90
  8077  002A2A  0101               	movlb	1	; () banked
  8078  002A2C  6F28               	movwf	_SerialOut& (0+255),b
  8079                           
  8080                           ;display.c: 135: SerialOut[1] = 0xA5;
  8081  002A2E  0EA5               	movlw	165
  8082  002A30  0101               	movlb	1	; () banked
  8083  002A32  6F29               	movwf	(_SerialOut+1)& (0+255),b
  8084                           
  8085                           ;display.c: 136: SerialOut[2] = 3;
  8086  002A34  0E03               	movlw	3
  8087  002A36  0101               	movlb	1	; () banked
  8088  002A38  6F2A               	movwf	(_SerialOut+2)& (0+255),b
  8089                           
  8090                           ;display.c: 137: SerialOut[3] = 0x81;
  8091  002A3A  0E81               	movlw	129
  8092  002A3C  0101               	movlb	1	; () banked
  8093  002A3E  6F2B               	movwf	(_SerialOut+3)& (0+255),b
  8094                           
  8095                           ; BSR set to: 1
  8096                           ;display.c: 138: SerialOut[4] = endereco;
  8097  002A40  C154  F12C         	movff	LerDWINreg@endereco,_SerialOut+4
  8098                           
  8099                           ; BSR set to: 1
  8100                           ;display.c: 139: SerialOut[5] = 2;
  8101  002A44  0E02               	movlw	2
  8102  002A46  0101               	movlb	1	; () banked
  8103  002A48  6F2D               	movwf	(_SerialOut+5)& (0+255),b
  8104                           
  8105                           ; BSR set to: 1
  8106                           ;display.c: 140: PIR1bits.TXIF = 0;
  8107  002A4A  989E               	bcf	3998,4,c	;volatile
  8108                           
  8109                           ; BSR set to: 1
  8110                           ;display.c: 141: for(cont=0;cont<6;cont++){
  8111  002A4C  0E00               	movlw	0
  8112  002A4E  0101               	movlb	1	; () banked
  8113  002A50  6F56               	movwf	LerDWINreg@cont& (0+255),b
  8114  002A52  D012               	goto	l5589
  8115                           
  8116                           ; BSR set to: 1
  8117                           
  8118                           ; BSR set to: 1
  8119  002A54  D015               	goto	l477
  8120  002A56                     l5585:
  8121                           
  8122                           ; BSR set to: 1
  8123                           ;display.c: 142: TXREG = SerialOut[cont];
  8124  002A56  0101               	movlb	1	; () banked
  8125  002A58  5156               	movf	LerDWINreg@cont& (0+255),w,b
  8126  002A5A  0D01               	mullw	1
  8127  002A5C  0E28               	movlw	low _SerialOut
  8128  002A5E  24F3               	addwf	prodl,w,c
  8129  002A60  6ED9               	movwf	fsr2l,c
  8130  002A62  0E01               	movlw	high _SerialOut
  8131  002A64  20F4               	addwfc	prodh,w,c
  8132  002A66  6EDA               	movwf	fsr2h,c
  8133  002A68  50DF               	movf	indf2,w,c
  8134  002A6A  6EAD               	movwf	4013,c	;volatile
  8135                           
  8136                           ;display.c: 143: while(!PIR1bits.TXIF);
  8137  002A6C  D000               	goto	l478
  8138  002A6E                     l478:
  8139                           
  8140                           ; BSR set to: 1
  8141  002A6E  A89E               	btfss	3998,4,c	;volatile
  8142  002A70  D7FE               	goto	l478
  8143                           
  8144                           ; BSR set to: 1
  8145                           ;display.c: 144: PIR1bits.TXIF = 0;
  8146  002A72  989E               	bcf	3998,4,c	;volatile
  8147                           
  8148                           ; BSR set to: 1
  8149  002A74  0101               	movlb	1	; () banked
  8150  002A76  2B56               	incf	LerDWINreg@cont& (0+255),f,b
  8151  002A78                     l5589:
  8152                           
  8153                           ; BSR set to: 1
  8154  002A78  0E05               	movlw	5
  8155  002A7A  0101               	movlb	1	; () banked
  8156  002A7C  6556               	cpfsgt	LerDWINreg@cont& (0+255),b
  8157  002A7E  D7EB               	goto	l5585
  8158  002A80                     l477:
  8159                           
  8160                           ; BSR set to: 1
  8161                           ;display.c: 145: }
  8162                           ;display.c: 146: PIR1bits.RCIF = 0;
  8163  002A80  9A9E               	bcf	3998,5,c	;volatile
  8164                           
  8165                           ; BSR set to: 1
  8166                           ;display.c: 148: for(cont=0;cont<8;cont++){
  8167  002A82  0E00               	movlw	0
  8168  002A84  0101               	movlb	1	; () banked
  8169  002A86  6F56               	movwf	LerDWINreg@cont& (0+255),b
  8170  002A88                     l5593:
  8171                           
  8172                           ; BSR set to: 1
  8173  002A88  0E07               	movlw	7
  8174  002A8A  0101               	movlb	1	; () banked
  8175  002A8C  6556               	cpfsgt	LerDWINreg@cont& (0+255),b
  8176  002A8E  D002               	goto	l483
  8177                           
  8178                           ; BSR set to: 1
  8179  002A90  D012               	goto	l5603
  8180                           
  8181                           ; BSR set to: 1
  8182                           ;display.c: 149: while(!PIR1bits.RCIF);
  8183  002A92  D000               	goto	l483
  8184  002A94                     l483:
  8185                           
  8186                           ; BSR set to: 1
  8187  002A94  AA9E               	btfss	3998,5,c	;volatile
  8188  002A96  D7FE               	goto	l483
  8189                           
  8190                           ; BSR set to: 1
  8191                           ;display.c: 150: PIR1bits.RCIF = 0;
  8192  002A98  9A9E               	bcf	3998,5,c	;volatile
  8193                           
  8194                           ; BSR set to: 1
  8195                           ;display.c: 151: SerialIn[cont] = RCREG;
  8196  002A9A  0101               	movlb	1	; () banked
  8197  002A9C  5156               	movf	LerDWINreg@cont& (0+255),w,b
  8198  002A9E  0D01               	mullw	1
  8199  002AA0  0E00               	movlw	low _SerialIn
  8200  002AA2  24F3               	addwf	prodl,w,c
  8201  002AA4  6ED9               	movwf	fsr2l,c
  8202  002AA6  0E01               	movlw	high _SerialIn
  8203  002AA8  20F4               	addwfc	prodh,w,c
  8204  002AAA  6EDA               	movwf	fsr2h,c
  8205  002AAC  CFAE FFDF          	movff	4014,indf2	;volatile
  8206                           
  8207                           ; BSR set to: 1
  8208  002AB0  0101               	movlb	1	; () banked
  8209  002AB2  2B56               	incf	LerDWINreg@cont& (0+255),f,b
  8210  002AB4  D7E9               	goto	l5593
  8211  002AB6                     l5603:
  8212                           
  8213                           ; BSR set to: 1
  8214                           ;display.c: 152: }
  8215                           ;display.c: 153: recebido = SerialIn[6] >> 8;
  8216  002AB6  0E00               	movlw	0
  8217  002AB8  0101               	movlb	1	; () banked
  8218  002ABA  6F55               	movwf	LerDWINreg@recebido& (0+255),b
  8219                           
  8220                           ; BSR set to: 1
  8221                           ;display.c: 154: recebido += SerialIn[7];
  8222  002ABC  0101               	movlb	1	; () banked
  8223  002ABE  5107               	movf	(_SerialIn+7)& (0+255),w,b
  8224  002AC0  0101               	movlb	1	; () banked
  8225  002AC2  2755               	addwf	LerDWINreg@recebido& (0+255),f,b
  8226                           
  8227                           ; BSR set to: 1
  8228                           ;display.c: 157: DelayDWIN();
  8229  002AC4  EC56  F018         	call	_DelayDWIN	;wreg free
  8230                           
  8231                           ;display.c: 158: return(recebido);
  8232  002AC8  C155  F152         	movff	LerDWINreg@recebido,?_LerDWINreg
  8233  002ACC  0101               	movlb	1	; () banked
  8234  002ACE  6B53               	clrf	(?_LerDWINreg+1)& (0+255),b
  8235  002AD0  D000               	goto	l486
  8236  002AD2                     l486:
  8237                           
  8238                           ; BSR set to: 1
  8239  002AD2  0012               	return		;funcret
  8240  002AD4                     __end_of_LerDWINreg:
  8241                           	opt stack 0
  8242                           tblptru	equ	0xFF8
  8243                           prodh	equ	0xFF4
  8244                           prodl	equ	0xFF3
  8245                           intcon	equ	0xFF2
  8246                           intcon2	equ	0xFF1
  8247                           postinc0	equ	0xFEE
  8248                           wreg	equ	0xFE8
  8249                           indf2	equ	0xFDF
  8250                           fsr2h	equ	0xFDA
  8251                           fsr2l	equ	0xFD9
  8252                           status	equ	0xFD8
  8253                           
  8254 ;; *************** function _LerDWINram *****************
  8255 ;; Defined at:
  8256 ;;		line 91 in file "display.c"
  8257 ;; Parameters:    Size  Location     Type
  8258 ;;  endereco        2    2[BANK1 ] unsigned int 
  8259 ;; Auto vars:     Size  Location     Type
  8260 ;;  VPrecebido      2    4[BANK1 ] unsigned int 
  8261 ;;  cont            1    6[BANK1 ] unsigned char 
  8262 ;; Return value:  Size  Location     Type
  8263 ;;                  2    2[BANK1 ] int 
  8264 ;; Registers used:
  8265 ;;		wreg, fsr2l, fsr2h, status,2, status,0, prodl, prodh, cstack
  8266 ;; Tracked objects:
  8267 ;;		On entry : 0/0
  8268 ;;		On exit  : 0/0
  8269 ;;		Unchanged: 0/0
  8270 ;; Data sizes:     COMRAM   BANK0   BANK1   BANK2   BANK3   BANK4   BANK5   BANK6   BANK7
  8271 ;;      Params:         0       0       2       0       0       0       0       0       0
  8272 ;;      Locals:         0       0       3       0       0       0       0       0       0
  8273 ;;      Temps:          0       0       0       0       0       0       0       0       0
  8274 ;;      Totals:         0       0       5       0       0       0       0       0       0
  8275 ;;Total ram usage:        5 bytes
  8276 ;; Hardware stack levels used:    1
  8277 ;; Hardware stack levels required when called:    5
  8278 ;; This function calls:
  8279 ;;		_DelayDWIN
  8280 ;; This function is called by:
  8281 ;;		_LeParamConfig
  8282 ;;		_LeDadosReceita
  8283 ;;		_ExecutaBrassagem
  8284 ;;		_ModoManual
  8285 ;; This function uses a non-reentrant model
  8286 ;;
  8287                           
  8288                           	psect	text16
  8289  002968                     __ptext16:
  8290                           	opt stack 0
  8291  002968                     _LerDWINram:
  8292                           	opt stack 24
  8293                           
  8294                           ;display.c: 93: unsigned char cont;
  8295                           ;display.c: 94: unsigned int VPrecebido;
  8296                           ;display.c: 98: SerialOut[0] = 0x5A;
  8297                           
  8298                           ; BSR set to: 1
  8299                           ;incstack = 0
  8300  002968  0E5A               	movlw	90
  8301  00296A  0101               	movlb	1	; () banked
  8302  00296C  6F28               	movwf	_SerialOut& (0+255),b
  8303                           
  8304                           ;display.c: 99: SerialOut[1] = 0xA5;
  8305  00296E  0EA5               	movlw	165
  8306  002970  0101               	movlb	1	; () banked
  8307  002972  6F29               	movwf	(_SerialOut+1)& (0+255),b
  8308                           
  8309                           ;display.c: 100: SerialOut[2] = 4;
  8310  002974  0E04               	movlw	4
  8311  002976  0101               	movlb	1	; () banked
  8312  002978  6F2A               	movwf	(_SerialOut+2)& (0+255),b
  8313                           
  8314                           ;display.c: 101: SerialOut[3] = 0x83;
  8315  00297A  0E83               	movlw	131
  8316  00297C  0101               	movlb	1	; () banked
  8317  00297E  6F2B               	movwf	(_SerialOut+3)& (0+255),b
  8318                           
  8319                           ;display.c: 102: SerialOut[4] = endereco >> 8;
  8320  002980  0101               	movlb	1	; () banked
  8321  002982  5153               	movf	(LerDWINram@endereco+1)& (0+255),w,b
  8322  002984  0101               	movlb	1	; () banked
  8323  002986  6F2C               	movwf	(_SerialOut+4)& (0+255),b
  8324                           
  8325                           ; BSR set to: 1
  8326                           ;display.c: 103: SerialOut[5] = endereco & 0x00FF;
  8327  002988  C152  F12D         	movff	LerDWINram@endereco,_SerialOut+5
  8328                           
  8329                           ;display.c: 104: SerialOut[6] = 1;
  8330  00298C  0E01               	movlw	1
  8331  00298E  0101               	movlb	1	; () banked
  8332  002990  6F2E               	movwf	(_SerialOut+6)& (0+255),b
  8333                           
  8334                           ; BSR set to: 1
  8335                           ;display.c: 105: PIR1bits.TXIF = 0;
  8336  002992  989E               	bcf	3998,4,c	;volatile
  8337                           
  8338                           ;display.c: 106: for(cont=0;cont<7;cont++){
  8339  002994  0E00               	movlw	0
  8340  002996  0101               	movlb	1	; () banked
  8341  002998  6F56               	movwf	LerDWINram@cont& (0+255),b
  8342  00299A  D012               	goto	l5479
  8343                           
  8344                           ; BSR set to: 1
  8345                           
  8346                           ; BSR set to: 1
  8347  00299C  D015               	goto	l464
  8348  00299E                     l5475:
  8349                           
  8350                           ; BSR set to: 1
  8351                           ;display.c: 107: TXREG = SerialOut[cont];
  8352  00299E  0101               	movlb	1	; () banked
  8353  0029A0  5156               	movf	LerDWINram@cont& (0+255),w,b
  8354  0029A2  0D01               	mullw	1
  8355  0029A4  0E28               	movlw	low _SerialOut
  8356  0029A6  24F3               	addwf	prodl,w,c
  8357  0029A8  6ED9               	movwf	fsr2l,c
  8358  0029AA  0E01               	movlw	high _SerialOut
  8359  0029AC  20F4               	addwfc	prodh,w,c
  8360  0029AE  6EDA               	movwf	fsr2h,c
  8361  0029B0  50DF               	movf	indf2,w,c
  8362  0029B2  6EAD               	movwf	4013,c	;volatile
  8363                           
  8364                           ;display.c: 108: while(!PIR1bits.TXIF);
  8365  0029B4  D000               	goto	l465
  8366  0029B6                     l465:
  8367  0029B6  A89E               	btfss	3998,4,c	;volatile
  8368  0029B8  D7FE               	goto	l465
  8369                           
  8370                           ;display.c: 109: PIR1bits.TXIF = 0;
  8371  0029BA  989E               	bcf	3998,4,c	;volatile
  8372  0029BC  0101               	movlb	1	; () banked
  8373  0029BE  2B56               	incf	LerDWINram@cont& (0+255),f,b
  8374  0029C0                     l5479:
  8375                           
  8376                           ; BSR set to: 1
  8377  0029C0  0E06               	movlw	6
  8378  0029C2  0101               	movlb	1	; () banked
  8379  0029C4  6556               	cpfsgt	LerDWINram@cont& (0+255),b
  8380  0029C6  D7EB               	goto	l5475
  8381  0029C8                     l464:
  8382                           
  8383                           ; BSR set to: 1
  8384                           ;display.c: 110: }
  8385                           ;display.c: 111: PIR1bits.RCIF = 0;
  8386  0029C8  9A9E               	bcf	3998,5,c	;volatile
  8387                           
  8388                           ; BSR set to: 1
  8389                           ;display.c: 113: for(cont=0;cont<9;cont++){
  8390  0029CA  0E00               	movlw	0
  8391  0029CC  0101               	movlb	1	; () banked
  8392  0029CE  6F56               	movwf	LerDWINram@cont& (0+255),b
  8393  0029D0                     l5483:
  8394                           
  8395                           ; BSR set to: 1
  8396  0029D0  0E08               	movlw	8
  8397  0029D2  0101               	movlb	1	; () banked
  8398  0029D4  6556               	cpfsgt	LerDWINram@cont& (0+255),b
  8399  0029D6  D002               	goto	l470
  8400                           
  8401                           ; BSR set to: 1
  8402  0029D8  D012               	goto	l5493
  8403                           
  8404                           ; BSR set to: 1
  8405                           ;display.c: 114: while(!PIR1bits.RCIF);
  8406  0029DA  D000               	goto	l470
  8407  0029DC                     l470:
  8408  0029DC  AA9E               	btfss	3998,5,c	;volatile
  8409  0029DE  D7FE               	goto	l470
  8410                           
  8411                           ;display.c: 115: PIR1bits.RCIF = 0;
  8412  0029E0  9A9E               	bcf	3998,5,c	;volatile
  8413                           
  8414                           ;display.c: 116: SerialIn[cont] = RCREG;
  8415  0029E2  0101               	movlb	1	; () banked
  8416  0029E4  5156               	movf	LerDWINram@cont& (0+255),w,b
  8417  0029E6  0D01               	mullw	1
  8418  0029E8  0E00               	movlw	low _SerialIn
  8419  0029EA  24F3               	addwf	prodl,w,c
  8420  0029EC  6ED9               	movwf	fsr2l,c
  8421  0029EE  0E01               	movlw	high _SerialIn
  8422  0029F0  20F4               	addwfc	prodh,w,c
  8423  0029F2  6EDA               	movwf	fsr2h,c
  8424  0029F4  CFAE FFDF          	movff	4014,indf2	;volatile
  8425                           
  8426                           ; BSR set to: 1
  8427  0029F8  0101               	movlb	1	; () banked
  8428  0029FA  2B56               	incf	LerDWINram@cont& (0+255),f,b
  8429  0029FC  D7E9               	goto	l5483
  8430  0029FE                     l5493:
  8431                           
  8432                           ; BSR set to: 1
  8433                           ;display.c: 117: }
  8434                           ;display.c: 118: VPrecebido = SerialIn[7] << 8;
  8435  0029FE  0101               	movlb	1	; () banked
  8436  002A00  5107               	movf	(_SerialIn+7)& (0+255),w,b
  8437  002A02  0101               	movlb	1	; () banked
  8438  002A04  6F55               	movwf	(LerDWINram@VPrecebido+1)& (0+255),b
  8439  002A06  6B54               	clrf	LerDWINram@VPrecebido& (0+255),b
  8440                           
  8441                           ; BSR set to: 1
  8442                           ;display.c: 119: VPrecebido += SerialIn[8];
  8443  002A08  0101               	movlb	1	; () banked
  8444  002A0A  5108               	movf	(_SerialIn+8)& (0+255),w,b
  8445  002A0C  0101               	movlb	1	; () banked
  8446  002A0E  2754               	addwf	LerDWINram@VPrecebido& (0+255),f,b
  8447  002A10  0E00               	movlw	0
  8448  002A12  2355               	addwfc	(LerDWINram@VPrecebido+1)& (0+255),f,b
  8449                           
  8450                           ; BSR set to: 1
  8451                           ;display.c: 122: DelayDWIN();
  8452  002A14  EC56  F018         	call	_DelayDWIN	;wreg free
  8453                           
  8454                           ;display.c: 123: return(VPrecebido);
  8455  002A18  C154  F152         	movff	LerDWINram@VPrecebido,?_LerDWINram
  8456  002A1C  C155  F153         	movff	LerDWINram@VPrecebido+1,?_LerDWINram+1
  8457  002A20  D000               	goto	l473
  8458  002A22                     l473:
  8459  002A22  0012               	return		;funcret
  8460  002A24                     __end_of_LerDWINram:
  8461                           	opt stack 0
  8462                           tblptru	equ	0xFF8
  8463                           prodh	equ	0xFF4
  8464                           prodl	equ	0xFF3
  8465                           intcon	equ	0xFF2
  8466                           intcon2	equ	0xFF1
  8467                           postinc0	equ	0xFEE
  8468                           wreg	equ	0xFE8
  8469                           indf2	equ	0xFDF
  8470                           fsr2h	equ	0xFDA
  8471                           fsr2l	equ	0xFD9
  8472                           status	equ	0xFD8
  8473                           
  8474 ;; *************** function _EscreverDWINtrend *****************
  8475 ;; Defined at:
  8476 ;;		line 164 in file "display.c"
  8477 ;; Parameters:    Size  Location     Type
  8478 ;;  valor           2    2[BANK1 ] int 
  8479 ;; Auto vars:     Size  Location     Type
  8480 ;;  cont            1    4[BANK1 ] unsigned char 
  8481 ;; Return value:  Size  Location     Type
  8482 ;;		None               void
  8483 ;; Registers used:
  8484 ;;		wreg, fsr2l, fsr2h, status,2, status,0, prodl, prodh, cstack
  8485 ;; Tracked objects:
  8486 ;;		On entry : 0/0
  8487 ;;		On exit  : 0/0
  8488 ;;		Unchanged: 0/0
  8489 ;; Data sizes:     COMRAM   BANK0   BANK1   BANK2   BANK3   BANK4   BANK5   BANK6   BANK7
  8490 ;;      Params:         0       0       2       0       0       0       0       0       0
  8491 ;;      Locals:         0       0       1       0       0       0       0       0       0
  8492 ;;      Temps:          0       0       0       0       0       0       0       0       0
  8493 ;;      Totals:         0       0       3       0       0       0       0       0       0
  8494 ;;Total ram usage:        3 bytes
  8495 ;; Hardware stack levels used:    1
  8496 ;; Hardware stack levels required when called:    5
  8497 ;; This function calls:
  8498 ;;		_DelayDWIN
  8499 ;; This function is called by:
  8500 ;;		_ExecutaBrassagem
  8501 ;; This function uses a non-reentrant model
  8502 ;;
  8503                           
  8504                           	psect	text17
  8505  002ED6                     __ptext17:
  8506                           	opt stack 0
  8507  002ED6                     _EscreverDWINtrend:
  8508                           	opt stack 24
  8509                           
  8510                           ;display.c: 166: unsigned char cont;
  8511                           ;display.c: 170: SerialOut[0] = 0x5A;
  8512                           
  8513                           ;incstack = 0
  8514  002ED6  0E5A               	movlw	90
  8515  002ED8  0101               	movlb	1	; () banked
  8516  002EDA  6F28               	movwf	_SerialOut& (0+255),b
  8517                           
  8518                           ;display.c: 171: SerialOut[1] = 0xA5;
  8519  002EDC  0EA5               	movlw	165
  8520  002EDE  0101               	movlb	1	; () banked
  8521  002EE0  6F29               	movwf	(_SerialOut+1)& (0+255),b
  8522                           
  8523                           ;display.c: 172: SerialOut[2] = 4;
  8524  002EE2  0E04               	movlw	4
  8525  002EE4  0101               	movlb	1	; () banked
  8526  002EE6  6F2A               	movwf	(_SerialOut+2)& (0+255),b
  8527                           
  8528                           ;display.c: 173: SerialOut[3] = 0x84;
  8529  002EE8  0E84               	movlw	132
  8530  002EEA  0101               	movlb	1	; () banked
  8531  002EEC  6F2B               	movwf	(_SerialOut+3)& (0+255),b
  8532                           
  8533                           ;display.c: 174: SerialOut[4] = 1;
  8534  002EEE  0E01               	movlw	1
  8535  002EF0  0101               	movlb	1	; () banked
  8536  002EF2  6F2C               	movwf	(_SerialOut+4)& (0+255),b
  8537                           
  8538                           ;display.c: 175: SerialOut[5] = valor >> 8;
  8539  002EF4  0101               	movlb	1	; () banked
  8540  002EF6  5153               	movf	(EscreverDWINtrend@valor+1)& (0+255),w,b
  8541  002EF8  0101               	movlb	1	; () banked
  8542  002EFA  6F2D               	movwf	(_SerialOut+5)& (0+255),b
  8543                           
  8544                           ; BSR set to: 1
  8545                           ;display.c: 176: SerialOut[6] = valor & 0x00FF;
  8546  002EFC  C152  F12E         	movff	EscreverDWINtrend@valor,_SerialOut+6
  8547                           
  8548                           ; BSR set to: 1
  8549                           ;display.c: 177: PIR1bits.TXIF = 0;
  8550  002F00  989E               	bcf	3998,4,c	;volatile
  8551                           
  8552                           ;display.c: 178: for(cont=0;cont<7;cont++){
  8553  002F02  0E00               	movlw	0
  8554  002F04  0101               	movlb	1	; () banked
  8555  002F06  6F54               	movwf	EscreverDWINtrend@cont& (0+255),b
  8556  002F08                     l5619:
  8557                           
  8558                           ; BSR set to: 1
  8559  002F08  0E06               	movlw	6
  8560  002F0A  0101               	movlb	1	; () banked
  8561  002F0C  6554               	cpfsgt	EscreverDWINtrend@cont& (0+255),b
  8562  002F0E  D001               	goto	l5623
  8563                           
  8564                           ; BSR set to: 1
  8565  002F10  D012               	goto	l5629
  8566  002F12                     l5623:
  8567                           
  8568                           ; BSR set to: 1
  8569                           ;display.c: 179: TXREG = SerialOut[cont];
  8570  002F12  0101               	movlb	1	; () banked
  8571  002F14  5154               	movf	EscreverDWINtrend@cont& (0+255),w,b
  8572  002F16  0D01               	mullw	1
  8573  002F18  0E28               	movlw	low _SerialOut
  8574  002F1A  24F3               	addwf	prodl,w,c
  8575  002F1C  6ED9               	movwf	fsr2l,c
  8576  002F1E  0E01               	movlw	high _SerialOut
  8577  002F20  20F4               	addwfc	prodh,w,c
  8578  002F22  6EDA               	movwf	fsr2h,c
  8579  002F24  50DF               	movf	indf2,w,c
  8580  002F26  6EAD               	movwf	4013,c	;volatile
  8581                           
  8582                           ;display.c: 180: while(!PIR1bits.TXIF);
  8583  002F28  D000               	goto	l491
  8584  002F2A                     l491:
  8585  002F2A  A89E               	btfss	3998,4,c	;volatile
  8586  002F2C  D7FE               	goto	l491
  8587                           
  8588                           ;display.c: 181: PIR1bits.TXIF = 0;
  8589  002F2E  989E               	bcf	3998,4,c	;volatile
  8590  002F30  0101               	movlb	1	; () banked
  8591  002F32  2B54               	incf	EscreverDWINtrend@cont& (0+255),f,b
  8592  002F34  D7E9               	goto	l5619
  8593  002F36                     l5629:
  8594                           
  8595                           ; BSR set to: 1
  8596                           ;display.c: 182: }
  8597                           ;display.c: 183: DelayDWIN();
  8598  002F36  EC56  F018         	call	_DelayDWIN	;wreg free
  8599  002F3A  0012               	return		;funcret
  8600  002F3C                     __end_of_EscreverDWINtrend:
  8601                           	opt stack 0
  8602                           tblptru	equ	0xFF8
  8603                           prodh	equ	0xFF4
  8604                           prodl	equ	0xFF3
  8605                           intcon	equ	0xFF2
  8606                           intcon2	equ	0xFF1
  8607                           postinc0	equ	0xFEE
  8608                           wreg	equ	0xFE8
  8609                           indf2	equ	0xFDF
  8610                           fsr2h	equ	0xFDA
  8611                           fsr2l	equ	0xFD9
  8612                           status	equ	0xFD8
  8613                           
  8614 ;; *************** function _EscreverDWINreg *****************
  8615 ;; Defined at:
  8616 ;;		line 65 in file "display.c"
  8617 ;; Parameters:    Size  Location     Type
  8618 ;;  endereco        1    wreg     unsigned char 
  8619 ;;  valor           2    2[BANK1 ] int 
  8620 ;; Auto vars:     Size  Location     Type
  8621 ;;  endereco        1    4[BANK1 ] unsigned char 
  8622 ;;  cont            1    5[BANK1 ] unsigned char 
  8623 ;; Return value:  Size  Location     Type
  8624 ;;		None               void
  8625 ;; Registers used:
  8626 ;;		wreg, fsr2l, fsr2h, status,2, status,0, prodl, prodh, cstack
  8627 ;; Tracked objects:
  8628 ;;		On entry : 0/0
  8629 ;;		On exit  : 0/0
  8630 ;;		Unchanged: 0/0
  8631 ;; Data sizes:     COMRAM   BANK0   BANK1   BANK2   BANK3   BANK4   BANK5   BANK6   BANK7
  8632 ;;      Params:         0       0       2       0       0       0       0       0       0
  8633 ;;      Locals:         0       0       2       0       0       0       0       0       0
  8634 ;;      Temps:          0       0       0       0       0       0       0       0       0
  8635 ;;      Totals:         0       0       4       0       0       0       0       0       0
  8636 ;;Total ram usage:        4 bytes
  8637 ;; Hardware stack levels used:    1
  8638 ;; Hardware stack levels required when called:    5
  8639 ;; This function calls:
  8640 ;;		_DelayDWIN
  8641 ;; This function is called by:
  8642 ;;		_main
  8643 ;;		_ExecutaBrassagem
  8644 ;; This function uses a non-reentrant model
  8645 ;;
  8646                           
  8647                           	psect	text18
  8648  002E06                     __ptext18:
  8649                           	opt stack 0
  8650  002E06                     _EscreverDWINreg:
  8651                           	opt stack 24
  8652                           
  8653                           ;incstack = 0
  8654                           ;EscreverDWINreg@endereco stored from wreg
  8655  002E06  0101               	movlb	1	; () banked
  8656  002E08  6F54               	movwf	EscreverDWINreg@endereco& (0+255),b
  8657                           
  8658                           ; BSR set to: 1
  8659                           ;display.c: 67: unsigned char cont;
  8660                           ;display.c: 71: SerialOut[0] = 0x5A;
  8661  002E0A  0E5A               	movlw	90
  8662  002E0C  0101               	movlb	1	; () banked
  8663  002E0E  6F28               	movwf	_SerialOut& (0+255),b
  8664                           
  8665                           ;display.c: 72: SerialOut[1] = 0xA5;
  8666  002E10  0EA5               	movlw	165
  8667  002E12  0101               	movlb	1	; () banked
  8668  002E14  6F29               	movwf	(_SerialOut+1)& (0+255),b
  8669                           
  8670                           ;display.c: 73: SerialOut[2] = 4;
  8671  002E16  0E04               	movlw	4
  8672  002E18  0101               	movlb	1	; () banked
  8673  002E1A  6F2A               	movwf	(_SerialOut+2)& (0+255),b
  8674                           
  8675                           ;display.c: 74: SerialOut[3] = 0x80;
  8676  002E1C  0E80               	movlw	128
  8677  002E1E  0101               	movlb	1	; () banked
  8678  002E20  6F2B               	movwf	(_SerialOut+3)& (0+255),b
  8679                           
  8680                           ; BSR set to: 1
  8681                           ;display.c: 75: SerialOut[4] = endereco;
  8682  002E22  C154  F12C         	movff	EscreverDWINreg@endereco,_SerialOut+4
  8683                           
  8684                           ; BSR set to: 1
  8685                           ;display.c: 76: SerialOut[5] = valor >> 8;
  8686  002E26  0101               	movlb	1	; () banked
  8687  002E28  5153               	movf	(EscreverDWINreg@valor+1)& (0+255),w,b
  8688  002E2A  0101               	movlb	1	; () banked
  8689  002E2C  6F2D               	movwf	(_SerialOut+5)& (0+255),b
  8690                           
  8691                           ; BSR set to: 1
  8692                           ;display.c: 77: SerialOut[6] = valor & 0x00FF;
  8693  002E2E  C152  F12E         	movff	EscreverDWINreg@valor,_SerialOut+6
  8694                           
  8695                           ; BSR set to: 1
  8696                           ;display.c: 78: PIR1bits.TXIF = 0;
  8697  002E32  989E               	bcf	3998,4,c	;volatile
  8698                           
  8699                           ; BSR set to: 1
  8700                           ;display.c: 79: for(cont=0;cont<7;cont++){
  8701  002E34  0E00               	movlw	0
  8702  002E36  0101               	movlb	1	; () banked
  8703  002E38  6F55               	movwf	EscreverDWINreg@cont& (0+255),b
  8704  002E3A                     l5559:
  8705                           
  8706                           ; BSR set to: 1
  8707  002E3A  0E06               	movlw	6
  8708  002E3C  0101               	movlb	1	; () banked
  8709  002E3E  6555               	cpfsgt	EscreverDWINreg@cont& (0+255),b
  8710  002E40  D001               	goto	l5563
  8711                           
  8712                           ; BSR set to: 1
  8713  002E42  D012               	goto	l5569
  8714  002E44                     l5563:
  8715                           
  8716                           ; BSR set to: 1
  8717                           ;display.c: 80: TXREG = SerialOut[cont];
  8718  002E44  0101               	movlb	1	; () banked
  8719  002E46  5155               	movf	EscreverDWINreg@cont& (0+255),w,b
  8720  002E48  0D01               	mullw	1
  8721  002E4A  0E28               	movlw	low _SerialOut
  8722  002E4C  24F3               	addwf	prodl,w,c
  8723  002E4E  6ED9               	movwf	fsr2l,c
  8724  002E50  0E01               	movlw	high _SerialOut
  8725  002E52  20F4               	addwfc	prodh,w,c
  8726  002E54  6EDA               	movwf	fsr2h,c
  8727  002E56  50DF               	movf	indf2,w,c
  8728  002E58  6EAD               	movwf	4013,c	;volatile
  8729                           
  8730                           ;display.c: 81: while(!PIR1bits.TXIF);
  8731  002E5A  D000               	goto	l457
  8732  002E5C                     l457:
  8733                           
  8734                           ; BSR set to: 1
  8735  002E5C  A89E               	btfss	3998,4,c	;volatile
  8736  002E5E  D7FE               	goto	l457
  8737                           
  8738                           ; BSR set to: 1
  8739                           ;display.c: 82: PIR1bits.TXIF = 0;
  8740  002E60  989E               	bcf	3998,4,c	;volatile
  8741                           
  8742                           ; BSR set to: 1
  8743  002E62  0101               	movlb	1	; () banked
  8744  002E64  2B55               	incf	EscreverDWINreg@cont& (0+255),f,b
  8745  002E66  D7E9               	goto	l5559
  8746  002E68                     l5569:
  8747                           
  8748                           ; BSR set to: 1
  8749                           ;display.c: 83: }
  8750                           ;display.c: 84: DelayDWIN();
  8751  002E68  EC56  F018         	call	_DelayDWIN	;wreg free
  8752  002E6C  0012               	return		;funcret
  8753  002E6E                     __end_of_EscreverDWINreg:
  8754                           	opt stack 0
  8755                           tblptru	equ	0xFF8
  8756                           prodh	equ	0xFF4
  8757                           prodl	equ	0xFF3
  8758                           intcon	equ	0xFF2
  8759                           intcon2	equ	0xFF1
  8760                           postinc0	equ	0xFEE
  8761                           wreg	equ	0xFE8
  8762                           indf2	equ	0xFDF
  8763                           fsr2h	equ	0xFDA
  8764                           fsr2l	equ	0xFD9
  8765                           status	equ	0xFD8
  8766                           
  8767 ;; *************** function _EscreverDWINram *****************
  8768 ;; Defined at:
  8769 ;;		line 37 in file "display.c"
  8770 ;; Parameters:    Size  Location     Type
  8771 ;;  endereco        2   15[BANK1 ] unsigned int 
  8772 ;;  valor           2   17[BANK1 ] int 
  8773 ;; Auto vars:     Size  Location     Type
  8774 ;;  cont            1   19[BANK1 ] unsigned char 
  8775 ;; Return value:  Size  Location     Type
  8776 ;;		None               void
  8777 ;; Registers used:
  8778 ;;		wreg, fsr2l, fsr2h, status,2, status,0, prodl, prodh, cstack
  8779 ;; Tracked objects:
  8780 ;;		On entry : 0/0
  8781 ;;		On exit  : 0/0
  8782 ;;		Unchanged: 0/0
  8783 ;; Data sizes:     COMRAM   BANK0   BANK1   BANK2   BANK3   BANK4   BANK5   BANK6   BANK7
  8784 ;;      Params:         0       0       4       0       0       0       0       0       0
  8785 ;;      Locals:         0       0       1       0       0       0       0       0       0
  8786 ;;      Temps:          0       0       0       0       0       0       0       0       0
  8787 ;;      Totals:         0       0       5       0       0       0       0       0       0
  8788 ;;Total ram usage:        5 bytes
  8789 ;; Hardware stack levels used:    1
  8790 ;; Hardware stack levels required when called:    5
  8791 ;; This function calls:
  8792 ;;		_DelayDWIN
  8793 ;; This function is called by:
  8794 ;;		_ResetaSaidas
  8795 ;;		_main
  8796 ;;		_ExecutaBrassagem
  8797 ;;		_ModoManual
  8798 ;; This function uses a non-reentrant model
  8799 ;;
  8800                           
  8801                           	psect	text19
  8802  002D9A                     __ptext19:
  8803                           	opt stack 0
  8804  002D9A                     _EscreverDWINram:
  8805                           	opt stack 24
  8806                           
  8807                           ;display.c: 39: unsigned char cont;
  8808                           ;display.c: 43: SerialOut[0] = 0x5A;
  8809                           
  8810                           ;incstack = 0
  8811  002D9A  0E5A               	movlw	90
  8812  002D9C  0101               	movlb	1	; () banked
  8813  002D9E  6F28               	movwf	_SerialOut& (0+255),b
  8814                           
  8815                           ;display.c: 44: SerialOut[1] = 0xA5;
  8816  002DA0  0EA5               	movlw	165
  8817  002DA2  0101               	movlb	1	; () banked
  8818  002DA4  6F29               	movwf	(_SerialOut+1)& (0+255),b
  8819                           
  8820                           ;display.c: 45: SerialOut[2] = 5;
  8821  002DA6  0E05               	movlw	5
  8822  002DA8  0101               	movlb	1	; () banked
  8823  002DAA  6F2A               	movwf	(_SerialOut+2)& (0+255),b
  8824                           
  8825                           ;display.c: 46: SerialOut[3] = 0x82;
  8826  002DAC  0E82               	movlw	130
  8827  002DAE  0101               	movlb	1	; () banked
  8828  002DB0  6F2B               	movwf	(_SerialOut+3)& (0+255),b
  8829                           
  8830                           ;display.c: 47: SerialOut[4] = endereco >> 8;
  8831  002DB2  0101               	movlb	1	; () banked
  8832  002DB4  5160               	movf	(EscreverDWINram@endereco+1)& (0+255),w,b
  8833  002DB6  0101               	movlb	1	; () banked
  8834  002DB8  6F2C               	movwf	(_SerialOut+4)& (0+255),b
  8835                           
  8836                           ; BSR set to: 1
  8837                           ;display.c: 48: SerialOut[5] = endereco & 0x00FF;
  8838  002DBA  C15F  F12D         	movff	EscreverDWINram@endereco,_SerialOut+5
  8839                           
  8840                           ;display.c: 49: SerialOut[6] = valor >> 8;
  8841  002DBE  0101               	movlb	1	; () banked
  8842  002DC0  5162               	movf	(EscreverDWINram@valor+1)& (0+255),w,b
  8843  002DC2  0101               	movlb	1	; () banked
  8844  002DC4  6F2E               	movwf	(_SerialOut+6)& (0+255),b
  8845                           
  8846                           ; BSR set to: 1
  8847                           ;display.c: 50: SerialOut[7] = valor & 0x00FF;
  8848  002DC6  C161  F12F         	movff	EscreverDWINram@valor,_SerialOut+7
  8849                           
  8850                           ; BSR set to: 1
  8851                           ;display.c: 51: PIR1bits.TXIF = 0;
  8852  002DCA  989E               	bcf	3998,4,c	;volatile
  8853                           
  8854                           ;display.c: 52: for(cont=0;cont<8;cont++){
  8855  002DCC  0E00               	movlw	0
  8856  002DCE  0101               	movlb	1	; () banked
  8857  002DD0  6F63               	movwf	EscreverDWINram@cont& (0+255),b
  8858  002DD2                     l5535:
  8859                           
  8860                           ; BSR set to: 1
  8861  002DD2  0E07               	movlw	7
  8862  002DD4  0101               	movlb	1	; () banked
  8863  002DD6  6563               	cpfsgt	EscreverDWINram@cont& (0+255),b
  8864  002DD8  D001               	goto	l5539
  8865                           
  8866                           ; BSR set to: 1
  8867  002DDA  D012               	goto	l5545
  8868  002DDC                     l5539:
  8869                           
  8870                           ; BSR set to: 1
  8871                           ;display.c: 53: TXREG = SerialOut[cont];
  8872  002DDC  0101               	movlb	1	; () banked
  8873  002DDE  5163               	movf	EscreverDWINram@cont& (0+255),w,b
  8874  002DE0  0D01               	mullw	1
  8875  002DE2  0E28               	movlw	low _SerialOut
  8876  002DE4  24F3               	addwf	prodl,w,c
  8877  002DE6  6ED9               	movwf	fsr2l,c
  8878  002DE8  0E01               	movlw	high _SerialOut
  8879  002DEA  20F4               	addwfc	prodh,w,c
  8880  002DEC  6EDA               	movwf	fsr2h,c
  8881  002DEE  50DF               	movf	indf2,w,c
  8882  002DF0  6EAD               	movwf	4013,c	;volatile
  8883                           
  8884                           ;display.c: 54: while(!PIR1bits.TXIF);
  8885  002DF2  D000               	goto	l449
  8886  002DF4                     l449:
  8887  002DF4  A89E               	btfss	3998,4,c	;volatile
  8888  002DF6  D7FE               	goto	l449
  8889                           
  8890                           ;display.c: 55: PIR1bits.TXIF = 0;
  8891  002DF8  989E               	bcf	3998,4,c	;volatile
  8892  002DFA  0101               	movlb	1	; () banked
  8893  002DFC  2B63               	incf	EscreverDWINram@cont& (0+255),f,b
  8894  002DFE  D7E9               	goto	l5535
  8895  002E00                     l5545:
  8896                           
  8897                           ; BSR set to: 1
  8898                           ;display.c: 56: }
  8899                           ;display.c: 57: DelayDWIN();
  8900  002E00  EC56  F018         	call	_DelayDWIN	;wreg free
  8901  002E04  0012               	return		;funcret
  8902  002E06                     __end_of_EscreverDWINram:
  8903                           	opt stack 0
  8904                           tblptru	equ	0xFF8
  8905                           prodh	equ	0xFF4
  8906                           prodl	equ	0xFF3
  8907                           intcon	equ	0xFF2
  8908                           intcon2	equ	0xFF1
  8909                           postinc0	equ	0xFEE
  8910                           wreg	equ	0xFE8
  8911                           indf2	equ	0xFDF
  8912                           fsr2h	equ	0xFDA
  8913                           fsr2l	equ	0xFD9
  8914                           status	equ	0xFD8
  8915                           
  8916 ;; *************** function _Bipar *****************
  8917 ;; Defined at:
  8918 ;;		line 581 in file "main.c"
  8919 ;; Parameters:    Size  Location     Type
  8920 ;;		None
  8921 ;; Auto vars:     Size  Location     Type
  8922 ;;		None
  8923 ;; Return value:  Size  Location     Type
  8924 ;;		None               void
  8925 ;; Registers used:
  8926 ;;		wreg, status,2, status,0, cstack
  8927 ;; Tracked objects:
  8928 ;;		On entry : 0/0
  8929 ;;		On exit  : 0/0
  8930 ;;		Unchanged: 0/0
  8931 ;; Data sizes:     COMRAM   BANK0   BANK1   BANK2   BANK3   BANK4   BANK5   BANK6   BANK7
  8932 ;;      Params:         0       0       0       0       0       0       0       0       0
  8933 ;;      Locals:         0       0       0       0       0       0       0       0       0
  8934 ;;      Temps:          0       0       0       0       0       0       0       0       0
  8935 ;;      Totals:         0       0       0       0       0       0       0       0       0
  8936 ;;Total ram usage:        0 bytes
  8937 ;; Hardware stack levels used:    1
  8938 ;; Hardware stack levels required when called:    5
  8939 ;; This function calls:
  8940 ;;		_DelaySeg
  8941 ;; This function is called by:
  8942 ;;		_main
  8943 ;;		_ExecutaBrassagem
  8944 ;; This function uses a non-reentrant model
  8945 ;;
  8946                           
  8947                           	psect	text20
  8948  0030FE                     __ptext20:
  8949                           	opt stack 0
  8950  0030FE                     _Bipar:
  8951                           	opt stack 24
  8952                           
  8953                           ;main.c: 583: PORTDbits.RD4 = 1;
  8954                           
  8955                           ;incstack = 0
  8956  0030FE  8883               	bsf	3971,4,c	;volatile
  8957                           
  8958                           ;main.c: 584: DelaySeg(1);
  8959  003100  0E01               	movlw	1
  8960  003102  ECCC  F017         	call	_DelaySeg
  8961                           
  8962                           ;main.c: 585: PORTDbits.RD4 = 0;
  8963  003106  9883               	bcf	3971,4,c	;volatile
  8964  003108  0012               	return		;funcret
  8965  00310A                     __end_of_Bipar:
  8966                           	opt stack 0
  8967                           tblptru	equ	0xFF8
  8968                           prodh	equ	0xFF4
  8969                           prodl	equ	0xFF3
  8970                           intcon	equ	0xFF2
  8971                           intcon2	equ	0xFF1
  8972                           postinc0	equ	0xFEE
  8973                           wreg	equ	0xFE8
  8974                           indf2	equ	0xFDF
  8975                           fsr2h	equ	0xFDA
  8976                           fsr2l	equ	0xFD9
  8977                           status	equ	0xFD8
  8978                           
  8979 ;; *************** function _AcionaValvulaMotorizada *****************
  8980 ;; Defined at:
  8981 ;;		line 552 in file "main.c"
  8982 ;; Parameters:    Size  Location     Type
  8983 ;;  sentido         1    wreg     unsigned char 
  8984 ;;  valvula         1    4[BANK1 ] unsigned char 
  8985 ;; Auto vars:     Size  Location     Type
  8986 ;;  sentido         1    5[BANK1 ] unsigned char 
  8987 ;; Return value:  Size  Location     Type
  8988 ;;		None               void
  8989 ;; Registers used:
  8990 ;;		wreg, status,2, status,0, cstack
  8991 ;; Tracked objects:
  8992 ;;		On entry : 0/0
  8993 ;;		On exit  : 0/0
  8994 ;;		Unchanged: 0/0
  8995 ;; Data sizes:     COMRAM   BANK0   BANK1   BANK2   BANK3   BANK4   BANK5   BANK6   BANK7
  8996 ;;      Params:         0       0       1       0       0       0       0       0       0
  8997 ;;      Locals:         0       0       1       0       0       0       0       0       0
  8998 ;;      Temps:          0       0       0       0       0       0       0       0       0
  8999 ;;      Totals:         0       0       2       0       0       0       0       0       0
  9000 ;;Total ram usage:        2 bytes
  9001 ;; Hardware stack levels used:    1
  9002 ;; Hardware stack levels required when called:    5
  9003 ;; This function calls:
  9004 ;;		_DelayDWIN
  9005 ;;		_DelaySeg
  9006 ;; This function is called by:
  9007 ;;		_ResetaSaidas
  9008 ;;		_ExecutaBrassagem
  9009 ;;		_ModoManual
  9010 ;; This function uses a non-reentrant model
  9011 ;;
  9012                           
  9013                           	psect	text21
  9014  002AD4                     __ptext21:
  9015                           	opt stack 0
  9016  002AD4                     _AcionaValvulaMotorizada:
  9017                           	opt stack 24
  9018                           
  9019                           ;incstack = 0
  9020                           ;AcionaValvulaMotorizada@sentido stored from wreg
  9021  002AD4  0101               	movlb	1	; () banked
  9022  002AD6  6F55               	movwf	AcionaValvulaMotorizada@sentido& (0+255),b
  9023                           
  9024                           ; BSR set to: 1
  9025                           ;main.c: 554: if(sentido == 1)
  9026  002AD8  0101               	movlb	1	; () banked
  9027  002ADA  0555               	decf	AcionaValvulaMotorizada@sentido& (0+255),w,b
  9028  002ADC  A4D8               	btfss	status,2,c
  9029  002ADE  D002               	goto	l380
  9030                           
  9031                           ; BSR set to: 1
  9032                           ;main.c: 555: PORTBbits.RB5 = 1;
  9033  002AE0  8A81               	bsf	3969,5,c	;volatile
  9034  002AE2  D002               	goto	l5507
  9035  002AE4                     l380:
  9036                           
  9037                           ; BSR set to: 1
  9038                           ;main.c: 556: else
  9039                           ;main.c: 557: PORTBbits.RB5 = 0;
  9040  002AE4  9A81               	bcf	3969,5,c	;volatile
  9041  002AE6  D000               	goto	l5507
  9042  002AE8                     l5507:
  9043                           
  9044                           ; BSR set to: 1
  9045                           ;main.c: 559: DelayDWIN();
  9046  002AE8  EC56  F018         	call	_DelayDWIN	;wreg free
  9047                           
  9048                           ;main.c: 561: switch(valvula){
  9049  002AEC  D00C               	goto	l5511
  9050  002AEE                     l383:
  9051                           
  9052                           ; BSR set to: 1
  9053  002AEE  8A83               	bsf	3971,5,c	;volatile
  9054  002AF0  D01F               	goto	l5513
  9055  002AF2                     l385:
  9056                           
  9057                           ; BSR set to: 1
  9058  002AF2  8C83               	bsf	3971,6,c	;volatile
  9059  002AF4  D01D               	goto	l5513
  9060  002AF6                     l386:
  9061                           
  9062                           ; BSR set to: 1
  9063  002AF6  8E83               	bsf	3971,7,c	;volatile
  9064  002AF8  D01B               	goto	l5513
  9065  002AFA                     l387:
  9066                           
  9067                           ; BSR set to: 1
  9068  002AFA  8084               	bsf	3972,0,c	;volatile
  9069  002AFC  D019               	goto	l5513
  9070  002AFE                     l388:
  9071                           
  9072                           ; BSR set to: 1
  9073  002AFE  8284               	bsf	3972,1,c	;volatile
  9074  002B00  D017               	goto	l5513
  9075  002B02                     l389:
  9076                           
  9077                           ; BSR set to: 1
  9078  002B02  8484               	bsf	3972,2,c	;volatile
  9079                           
  9080                           ; BSR set to: 1
  9081                           ;main.c: 568: }
  9082  002B04  D015               	goto	l5513
  9083  002B06                     l5511:
  9084  002B06  0101               	movlb	1	; () banked
  9085  002B08  5154               	movf	AcionaValvulaMotorizada@valvula& (0+255),w,b
  9086                           
  9087                           ; Switch size 1, requested type "space"
  9088                           ; Number of cases is 6, Range of values is 2 to 64
  9089                           ; switch strategies available:
  9090                           ; Name         Instructions Cycles
  9091                           ; simple_byte           19    10 (average)
  9092                           ;	Chosen strategy is simple_byte
  9093  002B0A  0A02               	xorlw	2	; case 2
  9094  002B0C  B4D8               	btfsc	status,2,c
  9095  002B0E  D7EF               	goto	l383
  9096  002B10  0A06               	xorlw	6	; case 4
  9097  002B12  B4D8               	btfsc	status,2,c
  9098  002B14  D7EE               	goto	l385
  9099  002B16  0A0C               	xorlw	12	; case 8
  9100  002B18  B4D8               	btfsc	status,2,c
  9101  002B1A  D7ED               	goto	l386
  9102  002B1C  0A18               	xorlw	24	; case 16
  9103  002B1E  B4D8               	btfsc	status,2,c
  9104  002B20  D7EC               	goto	l387
  9105  002B22  0A30               	xorlw	48	; case 32
  9106  002B24  B4D8               	btfsc	status,2,c
  9107  002B26  D7EB               	goto	l388
  9108  002B28  0A60               	xorlw	96	; case 64
  9109  002B2A  B4D8               	btfsc	status,2,c
  9110  002B2C  D7EA               	goto	l389
  9111  002B2E  D000               	goto	l5513
  9112  002B30                     l5513:
  9113                           
  9114                           ; BSR set to: 1
  9115                           ;main.c: 569: DelaySeg(3);
  9116  002B30  0E03               	movlw	3
  9117  002B32  ECCC  F017         	call	_DelaySeg
  9118                           
  9119                           ;main.c: 570: switch(valvula){
  9120  002B36  D00C               	goto	l5517
  9121  002B38                     l391:
  9122                           
  9123                           ; BSR set to: 1
  9124  002B38  9A83               	bcf	3971,5,c	;volatile
  9125  002B3A  D01F               	goto	l5519
  9126  002B3C                     l393:
  9127                           
  9128                           ; BSR set to: 1
  9129  002B3C  9C83               	bcf	3971,6,c	;volatile
  9130  002B3E  D01D               	goto	l5519
  9131  002B40                     l394:
  9132                           
  9133                           ; BSR set to: 1
  9134  002B40  9E83               	bcf	3971,7,c	;volatile
  9135  002B42  D01B               	goto	l5519
  9136  002B44                     l395:
  9137                           
  9138                           ; BSR set to: 1
  9139  002B44  9084               	bcf	3972,0,c	;volatile
  9140  002B46  D019               	goto	l5519
  9141  002B48                     l396:
  9142                           
  9143                           ; BSR set to: 1
  9144  002B48  9284               	bcf	3972,1,c	;volatile
  9145  002B4A  D017               	goto	l5519
  9146  002B4C                     l397:
  9147                           
  9148                           ; BSR set to: 1
  9149  002B4C  9484               	bcf	3972,2,c	;volatile
  9150                           
  9151                           ; BSR set to: 1
  9152                           ;main.c: 577: }
  9153  002B4E  D015               	goto	l5519
  9154  002B50                     l5517:
  9155  002B50  0101               	movlb	1	; () banked
  9156  002B52  5154               	movf	AcionaValvulaMotorizada@valvula& (0+255),w,b
  9157                           
  9158                           ; Switch size 1, requested type "space"
  9159                           ; Number of cases is 6, Range of values is 2 to 64
  9160                           ; switch strategies available:
  9161                           ; Name         Instructions Cycles
  9162                           ; simple_byte           19    10 (average)
  9163                           ;	Chosen strategy is simple_byte
  9164  002B54  0A02               	xorlw	2	; case 2
  9165  002B56  B4D8               	btfsc	status,2,c
  9166  002B58  D7EF               	goto	l391
  9167  002B5A  0A06               	xorlw	6	; case 4
  9168  002B5C  B4D8               	btfsc	status,2,c
  9169  002B5E  D7EE               	goto	l393
  9170  002B60  0A0C               	xorlw	12	; case 8
  9171  002B62  B4D8               	btfsc	status,2,c
  9172  002B64  D7ED               	goto	l394
  9173  002B66  0A18               	xorlw	24	; case 16
  9174  002B68  B4D8               	btfsc	status,2,c
  9175  002B6A  D7EC               	goto	l395
  9176  002B6C  0A30               	xorlw	48	; case 32
  9177  002B6E  B4D8               	btfsc	status,2,c
  9178  002B70  D7EB               	goto	l396
  9179  002B72  0A60               	xorlw	96	; case 64
  9180  002B74  B4D8               	btfsc	status,2,c
  9181  002B76  D7EA               	goto	l397
  9182  002B78  D000               	goto	l5519
  9183  002B7A                     l5519:
  9184                           
  9185                           ; BSR set to: 1
  9186                           ;main.c: 578: DelayDWIN();
  9187  002B7A  EC56  F018         	call	_DelayDWIN	;wreg free
  9188  002B7E  0012               	return		;funcret
  9189  002B80                     __end_of_AcionaValvulaMotorizada:
  9190                           	opt stack 0
  9191                           tblptru	equ	0xFF8
  9192                           prodh	equ	0xFF4
  9193                           prodl	equ	0xFF3
  9194                           intcon	equ	0xFF2
  9195                           intcon2	equ	0xFF1
  9196                           postinc0	equ	0xFEE
  9197                           wreg	equ	0xFE8
  9198                           indf2	equ	0xFDF
  9199                           fsr2h	equ	0xFDA
  9200                           fsr2l	equ	0xFD9
  9201                           status	equ	0xFD8
  9202                           
  9203 ;; *************** function _DelaySeg *****************
  9204 ;; Defined at:
  9205 ;;		line 384 in file "main.c"
  9206 ;; Parameters:    Size  Location     Type
  9207 ;;  tempo           1    wreg     unsigned char 
  9208 ;; Auto vars:     Size  Location     Type
  9209 ;;  tempo           1    1[BANK1 ] unsigned char 
  9210 ;;  cont            2    2[BANK1 ] unsigned int 
  9211 ;; Return value:  Size  Location     Type
  9212 ;;		None               void
  9213 ;; Registers used:
  9214 ;;		wreg, status,2, status,0
  9215 ;; Tracked objects:
  9216 ;;		On entry : 0/0
  9217 ;;		On exit  : 0/0
  9218 ;;		Unchanged: 0/0
  9219 ;; Data sizes:     COMRAM   BANK0   BANK1   BANK2   BANK3   BANK4   BANK5   BANK6   BANK7
  9220 ;;      Params:         0       0       0       0       0       0       0       0       0
  9221 ;;      Locals:         0       0       3       0       0       0       0       0       0
  9222 ;;      Temps:          0       0       1       0       0       0       0       0       0
  9223 ;;      Totals:         0       0       4       0       0       0       0       0       0
  9224 ;;Total ram usage:        4 bytes
  9225 ;; Hardware stack levels used:    1
  9226 ;; Hardware stack levels required when called:    4
  9227 ;; This function calls:
  9228 ;;		Nothing
  9229 ;; This function is called by:
  9230 ;;		_AcionaValvulaMotorizada
  9231 ;;		_Bipar
  9232 ;;		_ExecutaBrassagem
  9233 ;;		_ModoManual
  9234 ;; This function uses a non-reentrant model
  9235 ;;
  9236                           
  9237                           	psect	text22
  9238  002F98                     __ptext22:
  9239                           	opt stack 0
  9240  002F98                     _DelaySeg:
  9241                           	opt stack 24
  9242                           
  9243                           ;incstack = 0
  9244                           ;DelaySeg@tempo stored from wreg
  9245  002F98  0101               	movlb	1	; () banked
  9246  002F9A  6F51               	movwf	DelaySeg@tempo& (0+255),b
  9247  002F9C                     
  9248                           ; BSR set to: 1
  9249                           ;main.c: 389: for(cont=0;cont<1000;cont++)
  9250  002F9C  0E00               	movlw	0
  9251  002F9E  0101               	movlb	1	; () banked
  9252  002FA0  6F53               	movwf	(DelaySeg@cont+1)& (0+255),b
  9253  002FA2  0E00               	movlw	0
  9254  002FA4  6F52               	movwf	DelaySeg@cont& (0+255),b
  9255  002FA6                     l5407:
  9256                           
  9257                           ; BSR set to: 1
  9258  002FA6  0EE8               	movlw	232
  9259  002FA8  0101               	movlb	1	; () banked
  9260  002FAA  5D52               	subwf	DelaySeg@cont& (0+255),w,b
  9261  002FAC  0E03               	movlw	3
  9262  002FAE  0101               	movlb	1	; () banked
  9263  002FB0  5953               	subwfb	(DelaySeg@cont+1)& (0+255),w,b
  9264  002FB2  B0D8               	btfsc	status,0,c
  9265  002FB4  D00F               	goto	l5415
  9266  002FB6  D001               	goto	l5411
  9267                           
  9268                           ; BSR set to: 1
  9269  002FB8  D00D               	goto	l5415
  9270  002FBA                     l5411:
  9271                           
  9272                           ; BSR set to: 1
  9273                           ;main.c: 390: _delay((unsigned long)((1)*(20000000/4000.0)));
  9274  002FBA  0E07               	movlw	7
  9275  002FBC  0101               	movlb	1	; () banked
  9276  002FBE  6F50               	movwf	??_DelaySeg& (0+255),b
  9277  002FC0  0E7D               	movlw	125
  9278  002FC2                     u6167:
  9279  002FC2  2EE8               	decfsz	wreg,f,c
  9280  002FC4  D7FE               	goto	u6167
  9281  002FC6  2F50               	decfsz	??_DelaySeg& (0+255),f,b
  9282  002FC8  D7FC               	goto	u6167
  9283  002FCA  F000               	nop	
  9284  002FCC  0101               	movlb	1	; () banked
  9285  002FCE  4B52               	infsnz	DelaySeg@cont& (0+255),f,b
  9286  002FD0  2B53               	incf	(DelaySeg@cont+1)& (0+255),f,b
  9287  002FD2  D7E9               	goto	l5407
  9288  002FD4                     l5415:
  9289                           
  9290                           ; BSR set to: 1
  9291                           ;main.c: 391: tempo--;
  9292  002FD4  0101               	movlb	1	; () banked
  9293  002FD6  0751               	decf	DelaySeg@tempo& (0+255),f,b
  9294                           
  9295                           ; BSR set to: 1
  9296                           ;main.c: 392: }while(tempo>0);
  9297  002FD8  0101               	movlb	1	; () banked
  9298  002FDA  5151               	movf	DelaySeg@tempo& (0+255),w,b
  9299  002FDC  0101               	movlb	1	; () banked
  9300  002FDE  A4D8               	btfss	status,2,c
  9301  002FE0  D7DD               	goto	l5405
  9302                           
  9303                           ; BSR set to: 1
  9304                           
  9305                           ; BSR set to: 1
  9306  002FE2  0012               	return		;funcret
  9307  002FE4                     __end_of_DelaySeg:
  9308                           	opt stack 0
  9309                           tblptru	equ	0xFF8
  9310                           prodh	equ	0xFF4
  9311                           prodl	equ	0xFF3
  9312                           intcon	equ	0xFF2
  9313                           intcon2	equ	0xFF1
  9314                           postinc0	equ	0xFEE
  9315                           wreg	equ	0xFE8
  9316                           indf2	equ	0xFDF
  9317                           fsr2h	equ	0xFDA
  9318                           fsr2l	equ	0xFD9
  9319                           status	equ	0xFD8
  9320                           
  9321 ;; *************** function _DelayDWIN *****************
  9322 ;; Defined at:
  9323 ;;		line 27 in file "display.c"
  9324 ;; Parameters:    Size  Location     Type
  9325 ;;		None
  9326 ;; Auto vars:     Size  Location     Type
  9327 ;;  cont            1    1[BANK1 ] unsigned char 
  9328 ;; Return value:  Size  Location     Type
  9329 ;;                  2  102[None  ] int 
  9330 ;; Registers used:
  9331 ;;		wreg, status,2, status,0
  9332 ;; Tracked objects:
  9333 ;;		On entry : 0/0
  9334 ;;		On exit  : 0/0
  9335 ;;		Unchanged: 0/0
  9336 ;; Data sizes:     COMRAM   BANK0   BANK1   BANK2   BANK3   BANK4   BANK5   BANK6   BANK7
  9337 ;;      Params:         0       0       0       0       0       0       0       0       0
  9338 ;;      Locals:         0       0       1       0       0       0       0       0       0
  9339 ;;      Temps:          0       0       1       0       0       0       0       0       0
  9340 ;;      Totals:         0       0       2       0       0       0       0       0       0
  9341 ;;Total ram usage:        2 bytes
  9342 ;; Hardware stack levels used:    1
  9343 ;; Hardware stack levels required when called:    4
  9344 ;; This function calls:
  9345 ;;		Nothing
  9346 ;; This function is called by:
  9347 ;;		_AcionaValvulaMotorizada
  9348 ;;		_EscreverDWINram
  9349 ;;		_EscreverDWINreg
  9350 ;;		_LerDWINram
  9351 ;;		_LerDWINreg
  9352 ;;		_EscreverDWINtrend
  9353 ;; This function uses a non-reentrant model
  9354 ;;
  9355                           
  9356                           	psect	text23
  9357  0030AC                     __ptext23:
  9358                           	opt stack 0
  9359  0030AC                     _DelayDWIN:
  9360                           	opt stack 24
  9361                           
  9362                           ;display.c: 28: unsigned char cont;
  9363                           ;display.c: 30: for(cont=0;cont<80;cont++)
  9364                           
  9365                           ; BSR set to: 1
  9366                           ;incstack = 0
  9367  0030AC  0E00               	movlw	0
  9368  0030AE  0101               	movlb	1	; () banked
  9369  0030B0  6F51               	movwf	DelayDWIN@cont& (0+255),b
  9370  0030B2                     l5421:
  9371                           
  9372                           ; BSR set to: 1
  9373  0030B2  0E4F               	movlw	79
  9374  0030B4  0101               	movlb	1	; () banked
  9375  0030B6  6551               	cpfsgt	DelayDWIN@cont& (0+255),b
  9376  0030B8  D001               	goto	l5425
  9377                           
  9378                           ; BSR set to: 1
  9379  0030BA  D00C               	goto	l444
  9380  0030BC                     l5425:
  9381                           
  9382                           ; BSR set to: 1
  9383                           ;display.c: 31: _delay((unsigned long)((1)*(20000000/4000.0)));
  9384  0030BC  0E07               	movlw	7
  9385  0030BE  0101               	movlb	1	; () banked
  9386  0030C0  6F50               	movwf	??_DelayDWIN& (0+255),b
  9387  0030C2  0E7D               	movlw	125
  9388  0030C4                     u6177:
  9389  0030C4  2EE8               	decfsz	wreg,f,c
  9390  0030C6  D7FE               	goto	u6177
  9391  0030C8  2F50               	decfsz	??_DelayDWIN& (0+255),f,b
  9392  0030CA  D7FC               	goto	u6177
  9393  0030CC  F000               	nop	
  9394  0030CE  0101               	movlb	1	; () banked
  9395  0030D0  2B51               	incf	DelayDWIN@cont& (0+255),f,b
  9396  0030D2  D7EF               	goto	l5421
  9397  0030D4                     l444:
  9398                           
  9399                           ; BSR set to: 1
  9400  0030D4  0012               	return		;funcret
  9401  0030D6                     __end_of_DelayDWIN:
  9402                           	opt stack 0
  9403                           tblptru	equ	0xFF8
  9404                           prodh	equ	0xFF4
  9405                           prodl	equ	0xFF3
  9406                           intcon	equ	0xFF2
  9407                           intcon2	equ	0xFF1
  9408                           postinc0	equ	0xFEE
  9409                           wreg	equ	0xFE8
  9410                           indf2	equ	0xFDF
  9411                           fsr2h	equ	0xFDA
  9412                           fsr2l	equ	0xFD9
  9413                           status	equ	0xFD8
  9414                           
  9415 ;; *************** function _LowISR *****************
  9416 ;; Defined at:
  9417 ;;		line 344 in file "main.c"
  9418 ;; Parameters:    Size  Location     Type
  9419 ;;		None
  9420 ;; Auto vars:     Size  Location     Type
  9421 ;;		None
  9422 ;; Return value:  Size  Location     Type
  9423 ;;		None               void
  9424 ;; Registers used:
  9425 ;;		wreg, fsr2l, fsr2h, status,2, status,0, prodl, prodh, cstack
  9426 ;; Tracked objects:
  9427 ;;		On entry : 0/0
  9428 ;;		On exit  : 0/0
  9429 ;;		Unchanged: 0/0
  9430 ;; Data sizes:     COMRAM   BANK0   BANK1   BANK2   BANK3   BANK4   BANK5   BANK6   BANK7
  9431 ;;      Params:         0       0       0       0       0       0       0       0       0
  9432 ;;      Locals:         0       0       0       0       0       0       0       0       0
  9433 ;;      Temps:         17       0       0       0       0       0       0       0       0
  9434 ;;      Totals:        17       0       0       0       0       0       0       0       0
  9435 ;;Total ram usage:       17 bytes
  9436 ;; Hardware stack levels used:    1
  9437 ;; Hardware stack levels required when called:    3
  9438 ;; This function calls:
  9439 ;;		i1___awdiv
  9440 ;;		i1___lwdiv
  9441 ;; This function is called by:
  9442 ;;		Interrupt level 1
  9443 ;; This function uses a non-reentrant model
  9444 ;;
  9445                           
  9446                           	psect	intcodelo
  9447  000018                     __pintcodelo:
  9448                           	opt stack 0
  9449  000018                     _LowISR:
  9450                           	opt stack 24
  9451                           
  9452                           ; BSR set to: 1
  9453                           ;incstack = 0
  9454  000018  CFD8 F02D          	movff	status,??_LowISR
  9455  00001C  CFE8 F02E          	movff	wreg,??_LowISR+1
  9456  000020  CFE0 F02F          	movff	bsr,??_LowISR+2
  9457  000024  CFFA F030          	movff	pclath,??_LowISR+3
  9458  000028  CFFB F031          	movff	pclatu,??_LowISR+4
  9459  00002C  CFE9 F032          	movff	fsr0l,??_LowISR+5
  9460  000030  CFEA F033          	movff	fsr0h,??_LowISR+6
  9461  000034  CFE1 F034          	movff	fsr1l,??_LowISR+7
  9462  000038  CFE2 F035          	movff	fsr1h,??_LowISR+8
  9463  00003C  CFD9 F036          	movff	fsr2l,??_LowISR+9
  9464  000040  CFDA F037          	movff	fsr2h,??_LowISR+10
  9465  000044  CFF3 F038          	movff	prodl,??_LowISR+11
  9466  000048  CFF4 F039          	movff	prodh,??_LowISR+12
  9467  00004C  CFF6 F03A          	movff	tblptrl,??_LowISR+13
  9468  000050  CFF7 F03B          	movff	tblptrh,??_LowISR+14
  9469  000054  CFF8 F03C          	movff	tblptru,??_LowISR+15
  9470  000058  CFF5 F03D          	movff	tablat,??_LowISR+16
  9471                           
  9472                           ;main.c: 346: static unsigned char Indice;
  9473                           ;main.c: 348: if(PIE1bits.RCIE && PIR1bits.RCIF){
  9474  00005C  BA9D               	btfsc	3997,5,c	;volatile
  9475  00005E  AA9E               	btfss	3998,5,c	;volatile
  9476  000060  D014               	goto	i1l5155
  9477                           
  9478                           ;main.c: 349: PIR1bits.RCIF = 0;
  9479  000062  9A9E               	bcf	3998,5,c	;volatile
  9480                           
  9481                           ;main.c: 350: SerialIn[Indice] = RCREG;
  9482  000064  5013               	movf	LowISR@Indice,w,c
  9483  000066  0D01               	mullw	1
  9484  000068  0E00               	movlw	low _SerialIn
  9485  00006A  24F3               	addwf	prodl,w,c
  9486  00006C  6ED9               	movwf	fsr2l,c
  9487  00006E  0E01               	movlw	high _SerialIn
  9488  000070  20F4               	addwfc	prodh,w,c
  9489  000072  6EDA               	movwf	fsr2h,c
  9490  000074  CFAE FFDF          	movff	4014,indf2	;volatile
  9491                           
  9492                           ;main.c: 351: Indice++;
  9493  000078  2A13               	incf	LowISR@Indice,f,c
  9494                           
  9495                           ;main.c: 352: if(RCREG == '\r'){
  9496  00007A  0E0D               	movlw	13
  9497  00007C  18AE               	xorwf	4014,w,c	;volatile
  9498  00007E  A4D8               	btfss	status,2,c
  9499  000080  D004               	goto	i1l5155
  9500                           
  9501                           ;main.c: 353: Indice = 0;
  9502  000082  0E00               	movlw	0
  9503  000084  6E13               	movwf	LowISR@Indice,c
  9504                           
  9505                           ;main.c: 354: fSerialInEnd = 1;
  9506  000086  8046               	bsf	_fSerialInEnd/(0+8),_fSerialInEnd& (0+7),c
  9507  000088  D000               	goto	i1l5155
  9508  00008A                     i1l5155:
  9509                           
  9510                           ;main.c: 355: }
  9511                           ;main.c: 356: }
  9512                           ;main.c: 358: if(PIE2bits.TMR3IE && PIR2bits.TMR3IF){
  9513  00008A  B2A0               	btfsc	4000,1,c	;volatile
  9514  00008C  A2A1               	btfss	4001,1,c	;volatile
  9515  00008E  D00A               	goto	i1l5163
  9516                           
  9517                           ;main.c: 359: t1captura = 0;
  9518  000090  0E00               	movlw	0
  9519  000092  6E0C               	movwf	_t1captura+1,c
  9520  000094  0E00               	movlw	0
  9521  000096  6E0B               	movwf	_t1captura,c
  9522                           
  9523                           ;main.c: 360: t2captura = 0;
  9524  000098  0E00               	movlw	0
  9525  00009A  6E0E               	movwf	_t2captura+1,c
  9526  00009C  0E00               	movlw	0
  9527  00009E  6E0D               	movwf	_t2captura,c
  9528                           
  9529                           ;main.c: 361: PIR2bits.TMR3IF = 0;
  9530  0000A0  92A1               	bcf	4001,1,c	;volatile
  9531  0000A2  D000               	goto	i1l5163
  9532  0000A4                     i1l5163:
  9533                           
  9534                           ;main.c: 362: }
  9535                           ;main.c: 364: if(PIE1bits.CCP1IE && PIR1bits.CCP1IF){
  9536  0000A4  B49D               	btfsc	3997,2,c	;volatile
  9537  0000A6  A49E               	btfss	3998,2,c	;volatile
  9538  0000A8  D035               	goto	i1l305
  9539                           
  9540                           ;main.c: 365: PIR1bits.CCP1IF = 0;
  9541  0000AA  949E               	bcf	3998,2,c	;volatile
  9542                           
  9543                           ;main.c: 366: if(t1captura == 0){
  9544  0000AC  500B               	movf	_t1captura,w,c
  9545  0000AE  100C               	iorwf	_t1captura+1,w,c
  9546  0000B0  A4D8               	btfss	status,2,c
  9547  0000B2  D006               	goto	i1l5175
  9548                           
  9549                           ;main.c: 367: t1captura = CCPR1H << 8;
  9550  0000B4  50BF               	movf	4031,w,c	;volatile
  9551  0000B6  6E0C               	movwf	_t1captura+1,c
  9552  0000B8  6A0B               	clrf	_t1captura,c
  9553                           
  9554                           ;main.c: 368: t1captura |= CCPR1L;
  9555  0000BA  50BE               	movf	4030,w,c	;volatile
  9556  0000BC  120B               	iorwf	_t1captura,f,c
  9557                           
  9558                           ;main.c: 369: }
  9559  0000BE  D02A               	goto	i1l305
  9560  0000C0                     i1l5175:
  9561                           
  9562                           ;main.c: 370: else{
  9563                           ;main.c: 371: t2captura = CCPR1H << 8;
  9564  0000C0  50BF               	movf	4031,w,c	;volatile
  9565  0000C2  6E0E               	movwf	_t2captura+1,c
  9566  0000C4  6A0D               	clrf	_t2captura,c
  9567                           
  9568                           ;main.c: 372: t2captura |= CCPR1L;
  9569  0000C6  50BE               	movf	4030,w,c	;volatile
  9570  0000C8  120D               	iorwf	_t2captura,f,c
  9571                           
  9572                           ;main.c: 373: t2captura -= t1captura;
  9573  0000CA  500B               	movf	_t1captura,w,c
  9574  0000CC  5E0D               	subwf	_t2captura,f,c
  9575  0000CE  500C               	movf	_t1captura+1,w,c
  9576  0000D0  5A0E               	subwfb	_t2captura+1,f,c
  9577                           
  9578                           ;main.c: 374: periodocaptura = t2captura / 625;
  9579  0000D2  C00D  F025         	movff	_t2captura,i1___lwdiv@dividend
  9580  0000D6  C00E  F026         	movff	_t2captura+1,i1___lwdiv@dividend+1
  9581  0000DA  0E02               	movlw	2
  9582  0000DC  6E28               	movwf	i1___lwdiv@divisor+1,c
  9583  0000DE  0E71               	movlw	113
  9584  0000E0  6E27               	movwf	i1___lwdiv@divisor,c
  9585  0000E2  EC9E  F017         	call	i1___lwdiv	;wreg free
  9586  0000E6  5025               	movf	?i1___lwdiv,w,c
  9587  0000E8  6E24               	movwf	_periodocaptura,c
  9588                           
  9589                           ;main.c: 375: if(periodocaptura > 3)
  9590  0000EA  0E03               	movlw	3
  9591  0000EC  6424               	cpfsgt	_periodocaptura,c
  9592  0000EE  D00B               	goto	i1l5187
  9593                           
  9594                           ;main.c: 376: FrequenciaMedidorFluxo = 1000/periodocaptura;
  9595  0000F0  0E03               	movlw	3
  9596  0000F2  6E26               	movwf	i1___awdiv@dividend+1,c
  9597  0000F4  0EE8               	movlw	232
  9598  0000F6  6E25               	movwf	i1___awdiv@dividend,c
  9599  0000F8  C024  F027         	movff	_periodocaptura,i1___awdiv@divisor
  9600  0000FC  6A28               	clrf	i1___awdiv@divisor+1,c
  9601  0000FE  ECC0  F015         	call	i1___awdiv	;wreg free
  9602  000102  5025               	movf	?i1___awdiv,w,c
  9603  000104  D001               	goto	L34
  9604  000106                     i1l5187:
  9605                           
  9606                           ;main.c: 377: else
  9607                           ;main.c: 378: FrequenciaMedidorFluxo = 0;
  9608  000106  0E00               	movlw	0
  9609  000108                     L34:
  9610  000108  6E16               	movwf	_FrequenciaMedidorFluxo,c
  9611                           
  9612                           ;main.c: 379: t1captura = 0;
  9613  00010A  0E00               	movlw	0
  9614  00010C  6E0C               	movwf	_t1captura+1,c
  9615  00010E  0E00               	movlw	0
  9616  000110  6E0B               	movwf	_t1captura,c
  9617  000112  D000               	goto	i1l305
  9618  000114                     i1l305:
  9619  000114  C03D  FFF5         	movff	??_LowISR+16,tablat
  9620  000118  C03C  FFF8         	movff	??_LowISR+15,tblptru
  9621  00011C  C03B  FFF7         	movff	??_LowISR+14,tblptrh
  9622  000120  C03A  FFF6         	movff	??_LowISR+13,tblptrl
  9623  000124  C039  FFF4         	movff	??_LowISR+12,prodh
  9624  000128  C038  FFF3         	movff	??_LowISR+11,prodl
  9625  00012C  C037  FFDA         	movff	??_LowISR+10,fsr2h
  9626  000130  C036  FFD9         	movff	??_LowISR+9,fsr2l
  9627  000134  C035  FFE2         	movff	??_LowISR+8,fsr1h
  9628  000138  C034  FFE1         	movff	??_LowISR+7,fsr1l
  9629  00013C  C033  FFEA         	movff	??_LowISR+6,fsr0h
  9630  000140  C032  FFE9         	movff	??_LowISR+5,fsr0l
  9631  000144  C031  FFFB         	movff	??_LowISR+4,pclatu
  9632  000148  C030  FFFA         	movff	??_LowISR+3,pclath
  9633  00014C  C02F  FFE0         	movff	??_LowISR+2,bsr
  9634  000150  C02E  FFE8         	movff	??_LowISR+1,wreg
  9635  000154  C02D  FFD8         	movff	??_LowISR,status
  9636  000158  0010               	retfie	
  9637  00015A                     __end_of_LowISR:
  9638                           	opt stack 0
  9639                           pclatu	equ	0xFFB
  9640                           pclath	equ	0xFFA
  9641                           tblptru	equ	0xFF8
  9642                           tblptrh	equ	0xFF7
  9643                           tblptrl	equ	0xFF6
  9644                           tablat	equ	0xFF5
  9645                           prodh	equ	0xFF4
  9646                           prodl	equ	0xFF3
  9647                           intcon	equ	0xFF2
  9648                           intcon2	equ	0xFF1
  9649                           postinc0	equ	0xFEE
  9650                           fsr0h	equ	0xFEA
  9651                           fsr0l	equ	0xFE9
  9652                           wreg	equ	0xFE8
  9653                           fsr1h	equ	0xFE2
  9654                           fsr1l	equ	0xFE1
  9655                           bsr	equ	0xFE0
  9656                           indf2	equ	0xFDF
  9657                           fsr2h	equ	0xFDA
  9658                           fsr2l	equ	0xFD9
  9659                           status	equ	0xFD8
  9660                           
  9661 ;; *************** function i1___lwdiv *****************
  9662 ;; Defined at:
  9663 ;;		line 8 in file "C:\Program Files (x86)\Microchip\xc8\v1.34\sources\common\lwdiv.c"
  9664 ;; Parameters:    Size  Location     Type
  9665 ;;  dividend        2    0[COMRAM] unsigned int 
  9666 ;;  divisor         2    2[COMRAM] unsigned int 
  9667 ;; Auto vars:     Size  Location     Type
  9668 ;;  __lwdiv         2    4[COMRAM] unsigned int 
  9669 ;;  __lwdiv         1    6[COMRAM] unsigned char 
  9670 ;; Return value:  Size  Location     Type
  9671 ;;                  2    0[COMRAM] unsigned int 
  9672 ;; Registers used:
  9673 ;;		wreg, status,2, status,0
  9674 ;; Tracked objects:
  9675 ;;		On entry : 0/0
  9676 ;;		On exit  : 0/0
  9677 ;;		Unchanged: 0/0
  9678 ;; Data sizes:     COMRAM   BANK0   BANK1   BANK2   BANK3   BANK4   BANK5   BANK6   BANK7
  9679 ;;      Params:         4       0       0       0       0       0       0       0       0
  9680 ;;      Locals:         3       0       0       0       0       0       0       0       0
  9681 ;;      Temps:          0       0       0       0       0       0       0       0       0
  9682 ;;      Totals:         7       0       0       0       0       0       0       0       0
  9683 ;;Total ram usage:        7 bytes
  9684 ;; Hardware stack levels used:    1
  9685 ;; Hardware stack levels required when called:    2
  9686 ;; This function calls:
  9687 ;;		Nothing
  9688 ;; This function is called by:
  9689 ;;		_LowISR
  9690 ;; This function uses a non-reentrant model
  9691 ;;
  9692                           
  9693                           	psect	text25
  9694  002F3C                     __ptext25:
  9695                           	opt stack 0
  9696  002F3C                     i1___lwdiv:
  9697                           	opt stack 24
  9698                           
  9699                           ;incstack = 0
  9700  002F3C  0E00               	movlw	0
  9701  002F3E  6E2A               	movwf	i1___lwdiv@quotient+1,c
  9702  002F40  0E00               	movlw	0
  9703  002F42  6E29               	movwf	i1___lwdiv@quotient,c
  9704  002F44  5027               	movf	i1___lwdiv@divisor,w,c
  9705  002F46  1028               	iorwf	i1___lwdiv@divisor+1,w,c
  9706  002F48  B4D8               	btfsc	status,2,c
  9707  002F4A  D021               	goto	i1l1308
  9708  002F4C  0E01               	movlw	1
  9709  002F4E  6E2B               	movwf	i1___lwdiv@counter,c
  9710  002F50  D005               	goto	i1l4889
  9711  002F52                     i1l4887:
  9712  002F52  90D8               	bcf	status,0,c
  9713  002F54  3627               	rlcf	i1___lwdiv@divisor,f,c
  9714  002F56  3628               	rlcf	i1___lwdiv@divisor+1,f,c
  9715  002F58  2A2B               	incf	i1___lwdiv@counter,f,c
  9716  002F5A  D000               	goto	i1l4889
  9717  002F5C                     i1l4889:
  9718  002F5C  BE28               	btfsc	i1___lwdiv@divisor+1,7,c
  9719  002F5E  D002               	goto	i1l4891
  9720  002F60  D7F8               	goto	i1l4887
  9721  002F62  D000               	goto	i1l4891
  9722  002F64                     i1l4891:
  9723  002F64  90D8               	bcf	status,0,c
  9724  002F66  3629               	rlcf	i1___lwdiv@quotient,f,c
  9725  002F68  362A               	rlcf	i1___lwdiv@quotient+1,f,c
  9726  002F6A  5027               	movf	i1___lwdiv@divisor,w,c
  9727  002F6C  5C25               	subwf	i1___lwdiv@dividend,w,c
  9728  002F6E  5028               	movf	i1___lwdiv@divisor+1,w,c
  9729  002F70  5826               	subwfb	i1___lwdiv@dividend+1,w,c
  9730  002F72  A0D8               	btfss	status,0,c
  9731  002F74  D006               	goto	i1l4899
  9732  002F76  5027               	movf	i1___lwdiv@divisor,w,c
  9733  002F78  5E25               	subwf	i1___lwdiv@dividend,f,c
  9734  002F7A  5028               	movf	i1___lwdiv@divisor+1,w,c
  9735  002F7C  5A26               	subwfb	i1___lwdiv@dividend+1,f,c
  9736  002F7E  8029               	bsf	i1___lwdiv@quotient,0,c
  9737  002F80  D000               	goto	i1l4899
  9738  002F82                     i1l4899:
  9739  002F82  90D8               	bcf	status,0,c
  9740  002F84  3228               	rrcf	i1___lwdiv@divisor+1,f,c
  9741  002F86  3227               	rrcf	i1___lwdiv@divisor,f,c
  9742  002F88  2E2B               	decfsz	i1___lwdiv@counter,f,c
  9743  002F8A  D7EC               	goto	i1l4891
  9744  002F8C  D000               	goto	i1l1308
  9745  002F8E                     i1l1308:
  9746  002F8E  C029  F025         	movff	i1___lwdiv@quotient,?i1___lwdiv
  9747  002F92  C02A  F026         	movff	i1___lwdiv@quotient+1,?i1___lwdiv+1
  9748  002F96  0012               	return		;funcret
  9749  002F98                     __end_ofi1___lwdiv:
  9750                           	opt stack 0
  9751                           pclatu	equ	0xFFB
  9752                           pclath	equ	0xFFA
  9753                           tblptru	equ	0xFF8
  9754                           tblptrh	equ	0xFF7
  9755                           tblptrl	equ	0xFF6
  9756                           tablat	equ	0xFF5
  9757                           prodh	equ	0xFF4
  9758                           prodl	equ	0xFF3
  9759                           intcon	equ	0xFF2
  9760                           intcon2	equ	0xFF1
  9761                           postinc0	equ	0xFEE
  9762                           fsr0h	equ	0xFEA
  9763                           fsr0l	equ	0xFE9
  9764                           wreg	equ	0xFE8
  9765                           fsr1h	equ	0xFE2
  9766                           fsr1l	equ	0xFE1
  9767                           bsr	equ	0xFE0
  9768                           indf2	equ	0xFDF
  9769                           fsr2h	equ	0xFDA
  9770                           fsr2l	equ	0xFD9
  9771                           status	equ	0xFD8
  9772                           
  9773 ;; *************** function i1___awdiv *****************
  9774 ;; Defined at:
  9775 ;;		line 8 in file "C:\Program Files (x86)\Microchip\xc8\v1.34\sources\common\awdiv.c"
  9776 ;; Parameters:    Size  Location     Type
  9777 ;;  dividend        2    0[COMRAM] int 
  9778 ;;  divisor         2    2[COMRAM] int 
  9779 ;; Auto vars:     Size  Location     Type
  9780 ;;  __awdiv         2    6[COMRAM] int 
  9781 ;;  __awdiv         1    5[COMRAM] unsigned char 
  9782 ;;  __awdiv         1    4[COMRAM] unsigned char 
  9783 ;; Return value:  Size  Location     Type
  9784 ;;                  2    0[COMRAM] int 
  9785 ;; Registers used:
  9786 ;;		wreg, status,2, status,0
  9787 ;; Tracked objects:
  9788 ;;		On entry : 0/0
  9789 ;;		On exit  : 0/0
  9790 ;;		Unchanged: 0/0
  9791 ;; Data sizes:     COMRAM   BANK0   BANK1   BANK2   BANK3   BANK4   BANK5   BANK6   BANK7
  9792 ;;      Params:         4       0       0       0       0       0       0       0       0
  9793 ;;      Locals:         4       0       0       0       0       0       0       0       0
  9794 ;;      Temps:          0       0       0       0       0       0       0       0       0
  9795 ;;      Totals:         8       0       0       0       0       0       0       0       0
  9796 ;;Total ram usage:        8 bytes
  9797 ;; Hardware stack levels used:    1
  9798 ;; Hardware stack levels required when called:    2
  9799 ;; This function calls:
  9800 ;;		Nothing
  9801 ;; This function is called by:
  9802 ;;		_LowISR
  9803 ;; This function uses a non-reentrant model
  9804 ;;
  9805                           
  9806                           	psect	text26
  9807  002B80                     __ptext26:
  9808                           	opt stack 0
  9809  002B80                     i1___awdiv:
  9810                           	opt stack 24
  9811                           
  9812                           ;incstack = 0
  9813  002B80  0E00               	movlw	0
  9814  002B82  6E2A               	movwf	i1___awdiv@sign,c
  9815  002B84  AE28               	btfss	i1___awdiv@divisor+1,7,c
  9816  002B86  D007               	goto	i1l4845
  9817  002B88  6C27               	negf	i1___awdiv@divisor,c
  9818  002B8A  1E28               	comf	i1___awdiv@divisor+1,f,c
  9819  002B8C  B0D8               	btfsc	status,0,c
  9820  002B8E  2A28               	incf	i1___awdiv@divisor+1,f,c
  9821  002B90  0E01               	movlw	1
  9822  002B92  6E2A               	movwf	i1___awdiv@sign,c
  9823  002B94  D000               	goto	i1l4845
  9824  002B96                     i1l4845:
  9825  002B96  AE26               	btfss	i1___awdiv@dividend+1,7,c
  9826  002B98  D007               	goto	i1l4851
  9827  002B9A  6C25               	negf	i1___awdiv@dividend,c
  9828  002B9C  1E26               	comf	i1___awdiv@dividend+1,f,c
  9829  002B9E  B0D8               	btfsc	status,0,c
  9830  002BA0  2A26               	incf	i1___awdiv@dividend+1,f,c
  9831  002BA2  0E01               	movlw	1
  9832  002BA4  1A2A               	xorwf	i1___awdiv@sign,f,c
  9833  002BA6  D000               	goto	i1l4851
  9834  002BA8                     i1l4851:
  9835  002BA8  0E00               	movlw	0
  9836  002BAA  6E2C               	movwf	i1___awdiv@quotient+1,c
  9837  002BAC  0E00               	movlw	0
  9838  002BAE  6E2B               	movwf	i1___awdiv@quotient,c
  9839  002BB0  5027               	movf	i1___awdiv@divisor,w,c
  9840  002BB2  1028               	iorwf	i1___awdiv@divisor+1,w,c
  9841  002BB4  B4D8               	btfsc	status,2,c
  9842  002BB6  D021               	goto	i1l4873
  9843  002BB8  0E01               	movlw	1
  9844  002BBA  6E29               	movwf	i1___awdiv@counter,c
  9845  002BBC  D005               	goto	i1l4859
  9846  002BBE                     i1l4857:
  9847  002BBE  90D8               	bcf	status,0,c
  9848  002BC0  3627               	rlcf	i1___awdiv@divisor,f,c
  9849  002BC2  3628               	rlcf	i1___awdiv@divisor+1,f,c
  9850  002BC4  2A29               	incf	i1___awdiv@counter,f,c
  9851  002BC6  D000               	goto	i1l4859
  9852  002BC8                     i1l4859:
  9853  002BC8  BE28               	btfsc	i1___awdiv@divisor+1,7,c
  9854  002BCA  D002               	goto	i1l4861
  9855  002BCC  D7F8               	goto	i1l4857
  9856  002BCE  D000               	goto	i1l4861
  9857  002BD0                     i1l4861:
  9858  002BD0  90D8               	bcf	status,0,c
  9859  002BD2  362B               	rlcf	i1___awdiv@quotient,f,c
  9860  002BD4  362C               	rlcf	i1___awdiv@quotient+1,f,c
  9861  002BD6  5027               	movf	i1___awdiv@divisor,w,c
  9862  002BD8  5C25               	subwf	i1___awdiv@dividend,w,c
  9863  002BDA  5028               	movf	i1___awdiv@divisor+1,w,c
  9864  002BDC  5826               	subwfb	i1___awdiv@dividend+1,w,c
  9865  002BDE  A0D8               	btfss	status,0,c
  9866  002BE0  D006               	goto	i1l4869
  9867  002BE2  5027               	movf	i1___awdiv@divisor,w,c
  9868  002BE4  5E25               	subwf	i1___awdiv@dividend,f,c
  9869  002BE6  5028               	movf	i1___awdiv@divisor+1,w,c
  9870  002BE8  5A26               	subwfb	i1___awdiv@dividend+1,f,c
  9871  002BEA  802B               	bsf	i1___awdiv@quotient,0,c
  9872  002BEC  D000               	goto	i1l4869
  9873  002BEE                     i1l4869:
  9874  002BEE  90D8               	bcf	status,0,c
  9875  002BF0  3228               	rrcf	i1___awdiv@divisor+1,f,c
  9876  002BF2  3227               	rrcf	i1___awdiv@divisor,f,c
  9877  002BF4  2E29               	decfsz	i1___awdiv@counter,f,c
  9878  002BF6  D7EC               	goto	i1l4861
  9879  002BF8  D000               	goto	i1l4873
  9880  002BFA                     i1l4873:
  9881  002BFA  502A               	movf	i1___awdiv@sign,w,c
  9882  002BFC  B4D8               	btfsc	status,2,c
  9883  002BFE  D005               	goto	i1l4877
  9884  002C00  6C2B               	negf	i1___awdiv@quotient,c
  9885  002C02  1E2C               	comf	i1___awdiv@quotient+1,f,c
  9886  002C04  B0D8               	btfsc	status,0,c
  9887  002C06  2A2C               	incf	i1___awdiv@quotient+1,f,c
  9888  002C08  D000               	goto	i1l4877
  9889  002C0A                     i1l4877:
  9890  002C0A  C02B  F025         	movff	i1___awdiv@quotient,?i1___awdiv
  9891  002C0E  C02C  F026         	movff	i1___awdiv@quotient+1,?i1___awdiv+1
  9892  002C12  D000               	goto	i1l983
  9893  002C14                     i1l983:
  9894  002C14  0012               	return		;funcret
  9895  002C16                     __end_ofi1___awdiv:
  9896                           	opt stack 0
  9897                           pclatu	equ	0xFFB
  9898                           pclath	equ	0xFFA
  9899                           tblptru	equ	0xFF8
  9900                           tblptrh	equ	0xFF7
  9901                           tblptrl	equ	0xFF6
  9902                           tablat	equ	0xFF5
  9903                           prodh	equ	0xFF4
  9904                           prodl	equ	0xFF3
  9905                           intcon	equ	0xFF2
  9906                           intcon2	equ	0xFF1
  9907                           postinc0	equ	0xFEE
  9908                           fsr0h	equ	0xFEA
  9909                           fsr0l	equ	0xFE9
  9910                           wreg	equ	0xFE8
  9911                           fsr1h	equ	0xFE2
  9912                           fsr1l	equ	0xFE1
  9913                           bsr	equ	0xFE0
  9914                           indf2	equ	0xFDF
  9915                           fsr2h	equ	0xFDA
  9916                           fsr2l	equ	0xFD9
  9917                           status	equ	0xFD8
  9918                           
  9919 ;; *************** function _HighISR *****************
  9920 ;; Defined at:
  9921 ;;		line 161 in file "main.c"
  9922 ;; Parameters:    Size  Location     Type
  9923 ;;		None
  9924 ;; Auto vars:     Size  Location     Type
  9925 ;;  Erro            2   24[BANK0 ] int 
  9926 ;;  SomaErro        2   22[BANK0 ] int 
  9927 ;;  Temp16          2   20[BANK0 ] unsigned int 
  9928 ;;  Temp8           1   26[BANK0 ] unsigned char 
  9929 ;; Return value:  Size  Location     Type
  9930 ;;		None               void
  9931 ;; Registers used:
  9932 ;;		wreg, fsr1l, fsr1h, fsr2l, fsr2h, status,2, status,0, prodl, prodh, cstack
  9933 ;; Tracked objects:
  9934 ;;		On entry : 0/0
  9935 ;;		On exit  : 0/0
  9936 ;;		Unchanged: 0/0
  9937 ;; Data sizes:     COMRAM   BANK0   BANK1   BANK2   BANK3   BANK4   BANK5   BANK6   BANK7
  9938 ;;      Params:         0       0       0       0       0       0       0       0       0
  9939 ;;      Locals:         0       7       0       0       0       0       0       0       0
  9940 ;;      Temps:          0      17       0       0       0       0       0       0       0
  9941 ;;      Totals:         0      24       0       0       0       0       0       0       0
  9942 ;;Total ram usage:       24 bytes
  9943 ;; Hardware stack levels used:    1
  9944 ;; Hardware stack levels required when called:    1
  9945 ;; This function calls:
  9946 ;;		___awmod
  9947 ;;		i2___lwdiv
  9948 ;;		i2___wmul
  9949 ;; This function is called by:
  9950 ;;		Interrupt level 2
  9951 ;; This function uses a non-reentrant model
  9952 ;;
  9953                           
  9954                           	psect	intcode
  9955  000008                     __pintcode:
  9956                           	opt stack 0
  9957  000008                     _HighISR:
  9958                           	opt stack 24
  9959                           
  9960                           ;incstack = 0
  9961  000008  CFFA F0CE          	movff	pclath,??_HighISR+3
  9962  00000C  CFFB F0CF          	movff	pclatu,??_HighISR+4
  9963  000010  CFE9 F0D0          	movff	fsr0l,??_HighISR+5
  9964  000014  EDA1  F00A         	call	int_func,f	;refresh shadow registers
  9965                           pclatu	equ	0xFFB
  9966                           pclath	equ	0xFFA
  9967                           tblptru	equ	0xFF8
  9968                           tblptrh	equ	0xFF7
  9969                           tblptrl	equ	0xFF6
  9970                           tablat	equ	0xFF5
  9971                           prodh	equ	0xFF4
  9972                           prodl	equ	0xFF3
  9973                           intcon	equ	0xFF2
  9974                           intcon2	equ	0xFF1
  9975                           postinc0	equ	0xFEE
  9976                           fsr0h	equ	0xFEA
  9977                           fsr0l	equ	0xFE9
  9978                           wreg	equ	0xFE8
  9979                           fsr1h	equ	0xFE2
  9980                           fsr1l	equ	0xFE1
  9981                           bsr	equ	0xFE0
  9982                           indf2	equ	0xFDF
  9983                           fsr2h	equ	0xFDA
  9984                           fsr2l	equ	0xFD9
  9985                           status	equ	0xFD8
  9986                           
  9987                           	psect	intcode_body
  9988  001542                     __pintcode_body:
  9989                           	opt stack 24
  9990  001542                     int_func:
  9991                           	opt stack 24
  9992  001542  0006               	pop		; remove dummy address from shadow register refresh
  9993  001544  CFEA F0D1          	movff	fsr0h,??_HighISR+6
  9994  001548  CFE1 F0D2          	movff	fsr1l,??_HighISR+7
  9995  00154C  CFE2 F0D3          	movff	fsr1h,??_HighISR+8
  9996  001550  CFD9 F0D4          	movff	fsr2l,??_HighISR+9
  9997  001554  CFDA F0D5          	movff	fsr2h,??_HighISR+10
  9998  001558  CFF3 F0D6          	movff	prodl,??_HighISR+11
  9999  00155C  CFF4 F0D7          	movff	prodh,??_HighISR+12
 10000  001560  CFF6 F0D8          	movff	tblptrl,??_HighISR+13
 10001  001564  CFF7 F0D9          	movff	tblptrh,??_HighISR+14
 10002  001568  CFF8 F0DA          	movff	tblptru,??_HighISR+15
 10003  00156C  CFF5 F0DB          	movff	tablat,??_HighISR+16
 10004                           
 10005                           ;main.c: 163: unsigned int Temp16;
 10006                           ;main.c: 164: unsigned char Temp8;
 10007                           ;main.c: 165: enum EstadosAD{SETACANAL,CONVERSAO,AGUARDACONVERSAO,CALCULAMEDIA};
 10008                           ;main.c: 166: static unsigned char EstadoAD = SETACANAL;
 10009                           ;main.c: 167: static unsigned char FreeRun5ms = 0;
 10010                           ;main.c: 168: static unsigned char ContMedia = 0;
 10011                           ;main.c: 169: static unsigned int AccValoresAD[4];
 10012                           ;main.c: 170: static unsigned int ValoresADanteriores1[4] = {0,0,0,0};
 10013                           ;main.c: 171: static unsigned int ValoresADanteriores2[4] = {0,0,0,0};
 10014                           ;main.c: 172: static unsigned int ValoresADanteriores3[4] = {0,0,0,0};
 10015  001570  BAF2               	btfsc	intcon,5,c	;volatile
 10016  001572  A4F2               	btfss	intcon,2,c	;volatile
 10017  001574  D250               	goto	i2l7123
 10018                           
 10019                           ;main.c: 182: TMR0L = 60;
 10020  001576  0E3C               	movlw	60
 10021  001578  6ED6               	movwf	4054,c	;volatile
 10022                           
 10023                           ;main.c: 183: INTCONbits.T0IF = 0;
 10024  00157A  94F2               	bcf	intcon,2,c	;volatile
 10025                           
 10026                           ;main.c: 184: IN0 = PORTAbits.RA4;
 10027  00157C  9444               	bcf	_IN0/(0+8),_IN0& (0+7),c
 10028  00157E  B880               	btfsc	3968,4,c	;volatile
 10029  001580  8444               	bsf	_IN0/(0+8),_IN0& (0+7),c
 10030                           
 10031                           ;main.c: 185: IN1 = PORTCbits.RC2;
 10032  001582  9644               	bcf	_IN1/(0+8),_IN1& (0+7),c
 10033  001584  B482               	btfsc	3970,2,c	;volatile
 10034  001586  8644               	bsf	_IN1/(0+8),_IN1& (0+7),c
 10035                           
 10036                           ;main.c: 186: TRISD = 0xFF;
 10037  001588  6895               	setf	3989,c	;volatile
 10038                           
 10039                           ;main.c: 187: PORTE = 1;
 10040  00158A  0E01               	movlw	1
 10041  00158C  6E84               	movwf	3972,c	;volatile
 10042                           
 10043                           ;main.c: 188: __nop();
 10044  00158E  F000               	nop	
 10045                           
 10046                           ;main.c: 189: __nop();
 10047  001590  F000               	nop	
 10048                           
 10049                           ;main.c: 190: __nop();
 10050  001592  F000               	nop	
 10051                           
 10052                           ;main.c: 191: Inputs2to9 = PORTD;
 10053  001594  CF83 F019          	movff	3971,_Inputs2to9	;volatile
 10054                           
 10055                           ;main.c: 192: PORTE = 3;
 10056  001598  0E03               	movlw	3
 10057  00159A  6E84               	movwf	3972,c	;volatile
 10058                           
 10059                           ;main.c: 193: __nop();
 10060  00159C  F000               	nop	
 10061                           
 10062                           ;main.c: 194: __nop();
 10063  00159E  F000               	nop	
 10064                           
 10065                           ;main.c: 195: __nop();
 10066  0015A0  F000               	nop	
 10067                           
 10068                           ;main.c: 196: Inputs18to25 = PORTD;
 10069  0015A2  CF83 F018          	movff	3971,_Inputs18to25	;volatile
 10070                           
 10071                           ;main.c: 197: PORTE = 4;
 10072  0015A6  0E04               	movlw	4
 10073  0015A8  6E84               	movwf	3972,c	;volatile
 10074                           
 10075                           ;main.c: 198: __nop();
 10076  0015AA  F000               	nop	
 10077                           
 10078                           ;main.c: 199: __nop();
 10079  0015AC  F000               	nop	
 10080                           
 10081                           ;main.c: 200: __nop();
 10082  0015AE  F000               	nop	
 10083                           
 10084                           ;main.c: 201: Inputs10to17 = PORTD;
 10085  0015B0  CF83 F017          	movff	3971,_Inputs10to17	;volatile
 10086                           
 10087                           ;main.c: 202: PORTE = 2;
 10088  0015B4  0E02               	movlw	2
 10089  0015B6  6E84               	movwf	3972,c	;volatile
 10090                           
 10091                           ;main.c: 203: __nop();
 10092  0015B8  F000               	nop	
 10093                           
 10094                           ;main.c: 204: TRISD = 0;
 10095  0015BA  0E00               	movlw	0
 10096  0015BC  6E95               	movwf	3989,c	;volatile
 10097                           
 10098                           ;main.c: 205: __nop();
 10099  0015BE  F000               	nop	
 10100                           
 10101                           ;main.c: 206: __nop();
 10102  0015C0  F000               	nop	
 10103                           
 10104                           ;main.c: 207: __nop();
 10105  0015C2  F000               	nop	
 10106                           
 10107                           ;main.c: 208: PORTD = Outputs2to9;
 10108  0015C4  C01D  FF83         	movff	_Outputs2to9,3971	;volatile
 10109                           
 10110                           ;main.c: 209: __nop();
 10111  0015C8  F000               	nop	
 10112                           
 10113                           ;main.c: 210: PORTE = 5;
 10114  0015CA  0E05               	movlw	5
 10115  0015CC  6E84               	movwf	3972,c	;volatile
 10116                           
 10117                           ;main.c: 211: __nop();
 10118  0015CE  F000               	nop	
 10119                           
 10120                           ;main.c: 212: __nop();
 10121  0015D0  F000               	nop	
 10122                           
 10123                           ;main.c: 213: __nop();
 10124  0015D2  F000               	nop	
 10125                           
 10126                           ;main.c: 214: PORTD = Outputs10to17;
 10127  0015D4  C01C  FF83         	movff	_Outputs10to17,3971	;volatile
 10128                           
 10129                           ;main.c: 215: __nop();
 10130  0015D8  F000               	nop	
 10131                           
 10132                           ;main.c: 216: PORTE = 0;
 10133  0015DA  0E00               	movlw	0
 10134  0015DC  6E84               	movwf	3972,c	;volatile
 10135                           
 10136                           ;main.c: 217: __nop();
 10137  0015DE  F000               	nop	
 10138                           
 10139                           ;main.c: 218: TRISD = 0xFF;
 10140  0015E0  6895               	setf	3989,c	;volatile
 10141                           
 10142                           ;main.c: 219: PORTBbits.RB2 = OUT0;
 10143  0015E2  AA44               	btfss	_OUT0/(0+8),_OUT0& (0+7),c
 10144  0015E4  D002               	bra	i2u586_45
 10145  0015E6  8481               	bsf	3969,2,c	;volatile
 10146  0015E8  D001               	bra	i2u586_47
 10147  0015EA                     i2u586_45:
 10148  0015EA  9481               	bcf	3969,2,c	;volatile
 10149  0015EC                     i2u586_47:
 10150                           
 10151                           ;main.c: 220: PORTBbits.RB4 = OUT1;
 10152  0015EC  AC44               	btfss	_OUT1/(0+8),_OUT1& (0+7),c
 10153  0015EE  D002               	bra	i2u587_45
 10154  0015F0  8881               	bsf	3969,4,c	;volatile
 10155  0015F2  D001               	bra	i2u587_47
 10156  0015F4                     i2u587_45:
 10157  0015F4  9881               	bcf	3969,4,c	;volatile
 10158  0015F6                     i2u587_47:
 10159                           
 10160                           ;main.c: 221: FreeRun5ms++;
 10161  0015F6  2A12               	incf	HighISR@FreeRun5ms,f,c
 10162                           
 10163                           ;main.c: 222: MudancaSegundos = 0;
 10164  0015F8  9844               	bcf	_MudancaSegundos/(0+8),_MudancaSegundos& (0+7),c
 10165                           
 10166                           ;main.c: 223: if((FreeRun5ms % 20) == 0)
 10167  0015FA  C012  F03E         	movff	HighISR@FreeRun5ms,___awmod@dividend
 10168  0015FE  6A3F               	clrf	___awmod@dividend+1,c
 10169  001600  0E00               	movlw	0
 10170  001602  6E41               	movwf	___awmod@divisor+1,c
 10171  001604  0E14               	movlw	20
 10172  001606  6E40               	movwf	___awmod@divisor,c
 10173  001608  EC4C  F016         	call	___awmod	;wreg free
 10174  00160C  503E               	movf	?___awmod,w,c
 10175  00160E  103F               	iorwf	?___awmod+1,w,c
 10176  001610  A4D8               	btfss	status,2,c
 10177  001612  D002               	goto	i2l6987
 10178                           
 10179                           ;main.c: 224: ContDecSeg++;
 10180  001614  2A15               	incf	_ContDecSeg,f,c
 10181  001616  D000               	goto	i2l6987
 10182  001618                     i2l6987:
 10183                           
 10184                           ;main.c: 225: if(OnOffControleTemp){
 10185  001618  AE44               	btfss	_OnOffControleTemp/(0+8),_OnOffControleTemp& (0+7),c
 10186  00161A  D0A0               	goto	i2l7019
 10187                           
 10188                           ;main.c: 226: if(ContDecSeg >= TAmostragemPID){
 10189  00161C  5015               	movf	_ContDecSeg,w,c
 10190  00161E  0100               	movlb	0	; () banked
 10191  001620  6FCB               	movwf	??_HighISR& (0+255),b
 10192  001622  6BCC               	clrf	(??_HighISR+1)& (0+255),b
 10193  001624  5009               	movf	_TAmostragemPID,w,c
 10194  001626  0100               	movlb	0	; () banked
 10195  001628  5DCB               	subwf	??_HighISR& (0+255),w,b
 10196  00162A  0100               	movlb	0	; () banked
 10197  00162C  51CC               	movf	(??_HighISR+1)& (0+255),w,b
 10198  00162E  0A80               	xorlw	128
 10199  001630  0100               	movlb	0	; () banked
 10200  001632  6FCD               	movwf	(??_HighISR+2)& (0+255),b
 10201  001634  500A               	movf	_TAmostragemPID+1,w,c
 10202  001636  0A80               	xorlw	128
 10203  001638  0100               	movlb	0	; () banked
 10204  00163A  59CD               	subwfb	(??_HighISR+2)& (0+255),w,b
 10205  00163C  A0D8               	btfss	status,0,c
 10206  00163E  D08E               	goto	i2l7019
 10207                           
 10208                           ; BSR set to: 0
 10209                           ;main.c: 227: ContDecSeg = 0;
 10210  001640  0E00               	movlw	0
 10211  001642  6E15               	movwf	_ContDecSeg,c
 10212                           
 10213                           ; BSR set to: 0
 10214                           ;main.c: 228: Erro = SetPointTempPanela*10 - ValoresAD[0];
 10215  001644  C001  F0CB         	movff	_ValoresAD,??_HighISR
 10216  001648  C002  F0CC         	movff	_ValoresAD+1,??_HighISR+1
 10217  00164C  0100               	movlb	0	; () banked
 10218  00164E  1FCB               	comf	??_HighISR& (0+255),f,b
 10219  001650  1FCC               	comf	(??_HighISR+1)& (0+255),f,b
 10220  001652  4BCB               	infsnz	??_HighISR& (0+255),f,b
 10221  001654  2BCC               	incf	(??_HighISR+1)& (0+255),f,b
 10222  001656  501F               	movf	_SetPointTempPanela,w,c
 10223  001658  0D0A               	mullw	10
 10224  00165A  0100               	movlb	0	; () banked
 10225  00165C  51CB               	movf	??_HighISR& (0+255),w,b
 10226  00165E  24F3               	addwf	prodl,w,c
 10227  001660  0100               	movlb	0	; () banked
 10228  001662  6FE0               	movwf	HighISR@Erro& (0+255),b
 10229  001664  0100               	movlb	0	; () banked
 10230  001666  51CC               	movf	(??_HighISR+1)& (0+255),w,b
 10231  001668  20F4               	addwfc	prodh,w,c
 10232  00166A  0100               	movlb	0	; () banked
 10233  00166C  6FE1               	movwf	(HighISR@Erro+1)& (0+255),b
 10234                           
 10235                           ; BSR set to: 0
 10236                           ;main.c: 229: if((Erro >= -2) && (Erro <= 2))
 10237  00166E  0100               	movlb	0	; () banked
 10238  001670  AFE1               	btfss	(HighISR@Erro+1)& (0+255),7,b
 10239  001672  D008               	goto	i2l6997
 10240  001674  0EFE               	movlw	254
 10241  001676  0100               	movlb	0	; () banked
 10242  001678  5DE0               	subwf	HighISR@Erro& (0+255),w,b
 10243  00167A  0EFF               	movlw	255
 10244  00167C  0100               	movlb	0	; () banked
 10245  00167E  59E1               	subwfb	(HighISR@Erro+1)& (0+255),w,b
 10246  001680  A0D8               	btfss	status,0,c
 10247  001682  D00D               	goto	i2l259
 10248  001684                     i2l6997:
 10249                           
 10250                           ; BSR set to: 0
 10251  001684  0100               	movlb	0	; () banked
 10252  001686  BFE1               	btfsc	(HighISR@Erro+1)& (0+255),7,b
 10253  001688  D008               	goto	i2l6999
 10254  00168A  0100               	movlb	0	; () banked
 10255  00168C  51E1               	movf	(HighISR@Erro+1)& (0+255),w,b
 10256  00168E  E107               	bnz	i2l259
 10257  001690  0E03               	movlw	3
 10258  001692  0100               	movlb	0	; () banked
 10259  001694  5DE0               	subwf	HighISR@Erro& (0+255),w,b
 10260  001696  B0D8               	btfsc	status,0,c
 10261  001698  D002               	goto	i2l259
 10262  00169A                     i2l6999:
 10263                           
 10264                           ; BSR set to: 0
 10265                           ;main.c: 230: TempPanelaOK = 1;
 10266  00169A  8C45               	bsf	_TempPanelaOK/(0+8),_TempPanelaOK& (0+7),c
 10267  00169C  D002               	goto	i2l7001
 10268  00169E                     i2l259:
 10269                           
 10270                           ; BSR set to: 0
 10271                           ;main.c: 231: else
 10272                           ;main.c: 232: TempPanelaOK = 0;
 10273  00169E  9C45               	bcf	_TempPanelaOK/(0+8),_TempPanelaOK& (0+7),c
 10274  0016A0  D000               	goto	i2l7001
 10275  0016A2                     i2l7001:
 10276                           
 10277                           ; BSR set to: 0
 10278                           ;main.c: 233: SomaErro += Erro;
 10279  0016A2  0100               	movlb	0	; () banked
 10280  0016A4  51E0               	movf	HighISR@Erro& (0+255),w,b
 10281  0016A6  0100               	movlb	0	; () banked
 10282  0016A8  27DE               	addwf	HighISR@SomaErro& (0+255),f,b
 10283  0016AA  0100               	movlb	0	; () banked
 10284  0016AC  51E1               	movf	(HighISR@Erro+1)& (0+255),w,b
 10285  0016AE  0100               	movlb	0	; () banked
 10286  0016B0  23DF               	addwfc	(HighISR@SomaErro+1)& (0+255),f,b
 10287                           
 10288                           ;main.c: 234: if( (SomaErro < -50) || (SomaErro > 50) )
 10289  0016B2  0100               	movlb	0	; () banked
 10290  0016B4  AFDF               	btfss	(HighISR@SomaErro+1)& (0+255),7,b
 10291  0016B6  D008               	goto	i2l7003
 10292  0016B8  0ECE               	movlw	206
 10293  0016BA  0100               	movlb	0	; () banked
 10294  0016BC  5DDE               	subwf	HighISR@SomaErro& (0+255),w,b
 10295  0016BE  0EFF               	movlw	255
 10296  0016C0  0100               	movlb	0	; () banked
 10297  0016C2  59DF               	subwfb	(HighISR@SomaErro+1)& (0+255),w,b
 10298  0016C4  A0D8               	btfss	status,0,c
 10299  0016C6  D00D               	goto	i2l7005
 10300  0016C8                     i2l7003:
 10301                           
 10302                           ; BSR set to: 0
 10303  0016C8  0100               	movlb	0	; () banked
 10304  0016CA  BFDF               	btfsc	(HighISR@SomaErro+1)& (0+255),7,b
 10305  0016CC  D010               	goto	i2l7007
 10306  0016CE  0100               	movlb	0	; () banked
 10307  0016D0  51DF               	movf	(HighISR@SomaErro+1)& (0+255),w,b
 10308  0016D2  E107               	bnz	i2l7005
 10309  0016D4  0E33               	movlw	51
 10310  0016D6  0100               	movlb	0	; () banked
 10311  0016D8  5DDE               	subwf	HighISR@SomaErro& (0+255),w,b
 10312  0016DA  B0D8               	btfsc	status,0,c
 10313  0016DC  D002               	goto	i2l7005
 10314  0016DE  D007               	goto	i2l7007
 10315  0016E0  D000               	goto	i2l7005
 10316  0016E2                     i2l7005:
 10317                           
 10318                           ; BSR set to: 0
 10319                           ;main.c: 235: SomaErro = 0;
 10320  0016E2  0E00               	movlw	0
 10321  0016E4  0100               	movlb	0	; () banked
 10322  0016E6  6FDF               	movwf	(HighISR@SomaErro+1)& (0+255),b
 10323  0016E8  0E00               	movlw	0
 10324  0016EA  6FDE               	movwf	HighISR@SomaErro& (0+255),b
 10325  0016EC  D000               	goto	i2l7007
 10326  0016EE                     i2l7007:
 10327                           
 10328                           ; BSR set to: 0
 10329                           ;main.c: 236: Erro = Erro*KP + SomaErro*KI;
 10330  0016EE  C01B  F03E         	movff	_KP,i2___wmul@multiplier
 10331  0016F2  6A3F               	clrf	i2___wmul@multiplier+1,c
 10332  0016F4  C0E0  F040         	movff	HighISR@Erro,i2___wmul@multiplicand
 10333  0016F8  C0E1  F041         	movff	HighISR@Erro+1,i2___wmul@multiplicand+1
 10334  0016FC  EC6B  F018         	call	i2___wmul	;wreg free
 10335  001700  C03E  F0CB         	movff	?i2___wmul,??_HighISR
 10336  001704  C03F  F0CC         	movff	?i2___wmul+1,??_HighISR+1
 10337  001708  C01A  F03E         	movff	_KI,i2___wmul@multiplier
 10338  00170C  6A3F               	clrf	i2___wmul@multiplier+1,c
 10339  00170E  C0DE  F040         	movff	HighISR@SomaErro,i2___wmul@multiplicand
 10340  001712  C0DF  F041         	movff	HighISR@SomaErro+1,i2___wmul@multiplicand+1
 10341  001716  EC6B  F018         	call	i2___wmul	;wreg free
 10342  00171A  503E               	movf	?i2___wmul,w,c
 10343  00171C  0100               	movlb	0	; () banked
 10344  00171E  25CB               	addwf	??_HighISR& (0+255),w,b
 10345  001720  0100               	movlb	0	; () banked
 10346  001722  6FE0               	movwf	HighISR@Erro& (0+255),b
 10347  001724  503F               	movf	?i2___wmul+1,w,c
 10348  001726  0100               	movlb	0	; () banked
 10349  001728  21CC               	addwfc	(??_HighISR+1)& (0+255),w,b
 10350  00172A  0100               	movlb	0	; () banked
 10351  00172C  6FE1               	movwf	(HighISR@Erro+1)& (0+255),b
 10352                           
 10353                           ; BSR set to: 0
 10354                           ;main.c: 238: if(Erro < 0)
 10355  00172E  0100               	movlb	0	; () banked
 10356  001730  AFE1               	btfss	(HighISR@Erro+1)& (0+255),7,b
 10357  001732  D002               	goto	i2l7013
 10358                           
 10359                           ; BSR set to: 0
 10360                           ;main.c: 239: PWMpanela = 1;
 10361  001734  0E01               	movlw	1
 10362  001736  D00F               	goto	L35
 10363  001738                     i2l7013:
 10364                           
 10365                           ; BSR set to: 0
 10366                           ;main.c: 240: else{
 10367                           ;main.c: 241: if(Erro < 199)
 10368  001738  0100               	movlb	0	; () banked
 10369  00173A  BFE1               	btfsc	(HighISR@Erro+1)& (0+255),7,b
 10370  00173C  D008               	goto	i2l7015
 10371  00173E  0100               	movlb	0	; () banked
 10372  001740  51E1               	movf	(HighISR@Erro+1)& (0+255),w,b
 10373  001742  E108               	bnz	i2l7017
 10374  001744  0EC7               	movlw	199
 10375  001746  0100               	movlb	0	; () banked
 10376  001748  5DE0               	subwf	HighISR@Erro& (0+255),w,b
 10377  00174A  B0D8               	btfsc	status,0,c
 10378  00174C  D003               	goto	i2l7017
 10379  00174E                     i2l7015:
 10380                           
 10381                           ; BSR set to: 0
 10382                           ;main.c: 242: PWMpanela = Erro;
 10383  00174E  C0E0  F0E4         	movff	HighISR@Erro,_PWMpanela
 10384  001752  D004               	goto	i2l7019
 10385  001754                     i2l7017:
 10386                           
 10387                           ; BSR set to: 0
 10388                           ;main.c: 243: else
 10389                           ;main.c: 244: PWMpanela = 199;
 10390  001754  0EC7               	movlw	199
 10391  001756                     L35:
 10392  001756  0100               	movlb	0	; () banked
 10393  001758  6FE4               	movwf	_PWMpanela& (0+255),b
 10394                           
 10395                           ; BSR set to: 0
 10396                           
 10397                           ; BSR set to: 0
 10398                           
 10399                           ; BSR set to: 0
 10400  00175A  D000               	goto	i2l7019
 10401  00175C                     i2l7019:
 10402                           
 10403                           ;main.c: 245: }
 10404                           ;main.c: 246: }
 10405                           ;main.c: 247: }
 10406                           ;main.c: 248: if(FreeRun5ms >= 200){
 10407  00175C  0EC7               	movlw	199
 10408  00175E  6412               	cpfsgt	HighISR@FreeRun5ms,c
 10409  001760  D022               	goto	i2l7049
 10410                           
 10411                           ;main.c: 249: Segundos++;
 10412  001762  2A1E               	incf	_Segundos,f,c
 10413                           
 10414                           ;main.c: 250: FreeRunSegundos++;
 10415  001764  0100               	movlb	0	; () banked
 10416  001766  4B8B               	infsnz	_FreeRunSegundos& (0+255),f,b
 10417  001768  2B8C               	incf	(_FreeRunSegundos+1)& (0+255),f,b
 10418                           
 10419                           ; BSR set to: 0
 10420                           ;main.c: 251: MudancaSegundos = 1;
 10421  00176A  8844               	bsf	_MudancaSegundos/(0+8),_MudancaSegundos& (0+7),c
 10422                           
 10423                           ;main.c: 252: TotalSegundos++;
 10424  00176C  2A23               	incf	_TotalSegundos,f,c
 10425                           
 10426                           ; BSR set to: 0
 10427                           ;main.c: 253: FreeRun5ms = 0;
 10428  00176E  0E00               	movlw	0
 10429  001770  6E12               	movwf	HighISR@FreeRun5ms,c
 10430                           
 10431                           ; BSR set to: 0
 10432                           ;main.c: 254: if(Segundos > 59){
 10433  001772  0E3B               	movlw	59
 10434  001774  641E               	cpfsgt	_Segundos,c
 10435  001776  D005               	goto	i2l7033
 10436                           
 10437                           ; BSR set to: 0
 10438                           ;main.c: 255: Segundos = 0;
 10439  001778  0E00               	movlw	0
 10440  00177A  6E1E               	movwf	_Segundos,c
 10441                           
 10442                           ; BSR set to: 0
 10443                           ;main.c: 256: Minutos++;
 10444  00177C  0100               	movlb	0	; () banked
 10445  00177E  2B98               	incf	_Minutos& (0+255),f,b
 10446  001780  D000               	goto	i2l7033
 10447  001782                     i2l7033:
 10448                           
 10449                           ; BSR set to: 0
 10450                           ;main.c: 257: }
 10451                           ;main.c: 258: if(TotalSegundos > 59){
 10452  001782  0E3B               	movlw	59
 10453  001784  6423               	cpfsgt	_TotalSegundos,c
 10454  001786  D007               	goto	i2l7043
 10455                           
 10456                           ; BSR set to: 0
 10457                           ;main.c: 259: TotalSegundos = 0;
 10458  001788  0E00               	movlw	0
 10459  00178A  6E23               	movwf	_TotalSegundos,c
 10460                           
 10461                           ; BSR set to: 0
 10462                           ;main.c: 260: MinutosBomba++;
 10463  00178C  0100               	movlb	0	; () banked
 10464  00178E  2B99               	incf	_MinutosBomba& (0+255),f,b
 10465                           
 10466                           ; BSR set to: 0
 10467                           ;main.c: 261: EnviaDadoTrend = 1;
 10468  001790  8244               	bsf	_EnviaDadoTrend/(0+8),_EnviaDadoTrend& (0+7),c
 10469                           
 10470                           ; BSR set to: 0
 10471                           ;main.c: 262: TotalMinutos++;
 10472  001792  2A22               	incf	_TotalMinutos,f,c
 10473  001794  D000               	goto	i2l7043
 10474  001796                     i2l7043:
 10475                           
 10476                           ; BSR set to: 0
 10477                           ;main.c: 263: }
 10478                           ;main.c: 264: if(TotalMinutos > 59){
 10479  001796  0E3B               	movlw	59
 10480  001798  6422               	cpfsgt	_TotalMinutos,c
 10481  00179A  D005               	goto	i2l7049
 10482                           
 10483                           ; BSR set to: 0
 10484                           ;main.c: 265: TotalMinutos = 0;
 10485  00179C  0E00               	movlw	0
 10486  00179E  6E22               	movwf	_TotalMinutos,c
 10487                           
 10488                           ; BSR set to: 0
 10489                           ;main.c: 266: TotalHoras++;
 10490  0017A0  0100               	movlb	0	; () banked
 10491  0017A2  2BA0               	incf	_TotalHoras& (0+255),f,b
 10492                           
 10493                           ; BSR set to: 0
 10494  0017A4  D000               	goto	i2l7049
 10495  0017A6                     i2l7049:
 10496                           
 10497                           ;main.c: 267: }
 10498                           ;main.c: 269: }
 10499                           ;main.c: 270: if( (OnOffControleTemp) || (ControlePotenciaFervura) ){
 10500  0017A6  BE44               	btfsc	_OnOffControleTemp/(0+8),_OnOffControleTemp& (0+7),c
 10501  0017A8  D002               	goto	i2l7053
 10502  0017AA  A044               	btfss	_ControlePotenciaFervura/(0+8),_ControlePotenciaFervura& (0+7),c
 10503  0017AC  D134               	goto	i2l7123
 10504  0017AE                     i2l7053:
 10505                           
 10506                           ;main.c: 271: if(PWMpanela > 0){
 10507  0017AE  0100               	movlb	0	; () banked
 10508  0017B0  51E4               	movf	_PWMpanela& (0+255),w,b
 10509  0017B2  B4D8               	btfsc	status,2,c
 10510  0017B4  D009               	goto	i2l275
 10511                           
 10512                           ; BSR set to: 0
 10513                           ;main.c: 272: if(FreeRun5ms < PWMpanela)
 10514  0017B6  0100               	movlb	0	; () banked
 10515  0017B8  51E4               	movf	_PWMpanela& (0+255),w,b
 10516  0017BA  5C12               	subwf	HighISR@FreeRun5ms,w,c
 10517  0017BC  B0D8               	btfsc	status,0,c
 10518  0017BE  D002               	goto	i2l276
 10519                           
 10520                           ; BSR set to: 0
 10521                           ;main.c: 273: PORTBbits.RB1 = 1;
 10522  0017C0  8281               	bsf	3969,1,c	;volatile
 10523  0017C2  D129               	goto	i2l7123
 10524  0017C4                     i2l276:
 10525                           
 10526                           ; BSR set to: 0
 10527                           ;main.c: 274: else
 10528                           ;main.c: 275: PORTBbits.RB1 = 0;
 10529  0017C4  9281               	bcf	3969,1,c	;volatile
 10530                           
 10531                           ; BSR set to: 0
 10532                           ;main.c: 276: }
 10533  0017C6  D127               	goto	i2l7123
 10534  0017C8                     i2l275:
 10535                           
 10536                           ; BSR set to: 0
 10537                           ;main.c: 277: else
 10538                           ;main.c: 278: PORTBbits.RB1 = 0;
 10539  0017C8  9281               	bcf	3969,1,c	;volatile
 10540                           
 10541                           ; BSR set to: 0
 10542                           ;main.c: 279: }
 10543                           ;main.c: 280: }
 10544                           ;main.c: 284: switch(EstadoAD){
 10545                           
 10546                           ; BSR set to: 0
 10547                           
 10548                           ; BSR set to: 0
 10549  0017CA  D125               	goto	i2l7123
 10550  0017CC                     i2l7059:
 10551                           
 10552                           ;main.c: 286: ADCON0 &= 0b11000011;
 10553  0017CC  0EC3               	movlw	195
 10554  0017CE  16C2               	andwf	4034,f,c	;volatile
 10555                           
 10556                           ;main.c: 287: if(CanalAD < 3)
 10557  0017D0  0E03               	movlw	3
 10558  0017D2  600F               	cpfslt	HighISR@CanalAD,c
 10559  0017D4  D004               	goto	i2l7063
 10560                           
 10561                           ;main.c: 288: ADCON0 |= CanalAD << 2;
 10562  0017D6  440F               	rlncf	HighISR@CanalAD,w,c
 10563  0017D8  46E8               	rlncf	wreg,f,c
 10564  0017DA  0BFC               	andlw	252
 10565  0017DC  D004               	goto	L36
 10566  0017DE                     i2l7063:
 10567                           
 10568                           ;main.c: 289: else
 10569                           ;main.c: 290: ADCON0 |= (CanalAD+1) << 2;
 10570  0017DE  440F               	rlncf	HighISR@CanalAD,w,c
 10571  0017E0  46E8               	rlncf	wreg,f,c
 10572  0017E2  0BFC               	andlw	252
 10573  0017E4  0F04               	addlw	4
 10574  0017E6                     L36:
 10575  0017E6  12C2               	iorwf	4034,f,c	;volatile
 10576  0017E8  D000               	goto	i2l7065
 10577  0017EA                     i2l7065:
 10578                           
 10579                           ;main.c: 291: EstadoAD = CONVERSAO;
 10580  0017EA  0E01               	movlw	1
 10581  0017EC  D112               	goto	L39
 10582  0017EE                     i2l284:
 10583                           
 10584                           ;main.c: 294: ADCON0bits.GO = 1;
 10585  0017EE  82C2               	bsf	4034,1,c	;volatile
 10586                           
 10587                           ;main.c: 295: EstadoAD = AGUARDACONVERSAO;
 10588  0017F0  0E02               	movlw	2
 10589  0017F2  D10F               	goto	L39
 10590  0017F4                     i2l285:
 10591                           
 10592                           ;main.c: 298: if(!ADCON0bits.GO){
 10593  0017F4  B2C2               	btfsc	4034,1,c	;volatile
 10594  0017F6  D11D               	goto	i2l292
 10595                           
 10596                           ;main.c: 299: Temp16 = ADRESH;
 10597  0017F8  CFC4 F0DC          	movff	4036,HighISR@Temp16	;volatile
 10598  0017FC  0100               	movlb	0	; () banked
 10599  0017FE  6BDD               	clrf	(HighISR@Temp16+1)& (0+255),b
 10600                           
 10601                           ; BSR set to: 0
 10602                           ;main.c: 300: Temp16 = Temp16 << 8;
 10603  001800  0100               	movlb	0	; () banked
 10604  001802  51DC               	movf	HighISR@Temp16& (0+255),w,b
 10605  001804  0100               	movlb	0	; () banked
 10606  001806  6FDD               	movwf	(HighISR@Temp16+1)& (0+255),b
 10607  001808  6BDC               	clrf	HighISR@Temp16& (0+255),b
 10608                           
 10609                           ; BSR set to: 0
 10610                           ;main.c: 301: Temp16 |= ADRESL;
 10611  00180A  50C3               	movf	4035,w,c	;volatile
 10612  00180C  0100               	movlb	0	; () banked
 10613  00180E  13DC               	iorwf	HighISR@Temp16& (0+255),f,b
 10614                           
 10615                           ; BSR set to: 0
 10616                           ;main.c: 302: AccValoresAD[CanalAD] += Temp16;
 10617  001810  500F               	movf	HighISR@CanalAD,w,c
 10618  001812  0D02               	mullw	2
 10619  001814  0E60               	movlw	low HighISR@AccValoresAD
 10620  001816  24F3               	addwf	prodl,w,c
 10621  001818  6ED9               	movwf	fsr2l,c
 10622  00181A  0E00               	movlw	high HighISR@AccValoresAD
 10623  00181C  20F4               	addwfc	prodh,w,c
 10624  00181E  6EDA               	movwf	fsr2h,c
 10625  001820  0100               	movlb	0	; () banked
 10626  001822  51DC               	movf	HighISR@Temp16& (0+255),w,b
 10627  001824  26DE               	addwf	postinc2,f,c
 10628  001826  51DD               	movf	(HighISR@Temp16+1)& (0+255),w,b
 10629  001828  22DD               	addwfc	postdec2,f,c
 10630                           
 10631                           ; BSR set to: 0
 10632                           ;main.c: 304: CanalAD++;
 10633  00182A  2A0F               	incf	HighISR@CanalAD,f,c
 10634                           
 10635                           ; BSR set to: 0
 10636                           ;main.c: 305: if(CanalAD > 3){
 10637  00182C  0E03               	movlw	3
 10638  00182E  640F               	cpfsgt	HighISR@CanalAD,c
 10639  001830  D004               	goto	i2l7085
 10640                           
 10641                           ; BSR set to: 0
 10642                           ;main.c: 306: CanalAD = 0;
 10643  001832  0E00               	movlw	0
 10644  001834  6E0F               	movwf	HighISR@CanalAD,c
 10645                           
 10646                           ; BSR set to: 0
 10647                           ;main.c: 307: ContMedia++;
 10648  001836  2A10               	incf	HighISR@ContMedia,f,c
 10649  001838  D000               	goto	i2l7085
 10650  00183A                     i2l7085:
 10651                           
 10652                           ; BSR set to: 0
 10653                           ;main.c: 308: }
 10654                           ;main.c: 314: EstadoAD = SETACANAL;
 10655  00183A  0E00               	movlw	0
 10656  00183C  6E11               	movwf	HighISR@EstadoAD,c
 10657                           
 10658                           ; BSR set to: 0
 10659                           ;main.c: 315: if(ContMedia == 25)
 10660  00183E  0E19               	movlw	25
 10661  001840  1810               	xorwf	HighISR@ContMedia,w,c
 10662  001842  A4D8               	btfss	status,2,c
 10663  001844  D0F6               	goto	i2l292
 10664                           
 10665                           ; BSR set to: 0
 10666                           ;main.c: 316: EstadoAD = CALCULAMEDIA;
 10667  001846  0E03               	movlw	3
 10668  001848  D0E4               	goto	L39
 10669                           
 10670                           ; BSR set to: 0
 10671                           ;main.c: 317: }
 10672                           ;main.c: 318: break;
 10673                           
 10674                           ; BSR set to: 0
 10675  00184A  D0F3               	goto	i2l292
 10676  00184C                     i2l7091:
 10677                           
 10678                           ;main.c: 320: for(Temp8=0;Temp8<4;Temp8++){
 10679  00184C  0E00               	movlw	0
 10680  00184E  0100               	movlb	0	; () banked
 10681  001850  6FE2               	movwf	HighISR@Temp8& (0+255),b
 10682  001852                     i2l7093:
 10683                           
 10684                           ; BSR set to: 0
 10685  001852  0E03               	movlw	3
 10686  001854  0100               	movlb	0	; () banked
 10687  001856  65E2               	cpfsgt	HighISR@Temp8& (0+255),b
 10688  001858  D001               	goto	i2l7097
 10689                           
 10690                           ; BSR set to: 0
 10691  00185A  D0D8               	goto	i2l7119
 10692  00185C                     i2l7097:
 10693                           
 10694                           ; BSR set to: 0
 10695                           ;main.c: 322: ValoresAD[Temp8] = AccValoresAD[Temp8] / 25;
 10696  00185C  0100               	movlb	0	; () banked
 10697  00185E  51E2               	movf	HighISR@Temp8& (0+255),w,b
 10698  001860  0D02               	mullw	2
 10699  001862  0E60               	movlw	low HighISR@AccValoresAD
 10700  001864  24F3               	addwf	prodl,w,c
 10701  001866  6ED9               	movwf	fsr2l,c
 10702  001868  0E00               	movlw	high HighISR@AccValoresAD
 10703  00186A  20F4               	addwfc	prodh,w,c
 10704  00186C  6EDA               	movwf	fsr2h,c
 10705  00186E  CFDE F03E          	movff	postinc2,i2___lwdiv@dividend
 10706  001872  CFDD F03F          	movff	postdec2,i2___lwdiv@dividend+1
 10707  001876  0E00               	movlw	0
 10708  001878  6E41               	movwf	i2___lwdiv@divisor+1,c
 10709  00187A  0E19               	movlw	25
 10710  00187C  6E40               	movwf	i2___lwdiv@divisor,c
 10711  00187E  EC37  F017         	call	i2___lwdiv	;wreg free
 10712  001882  0100               	movlb	0	; () banked
 10713  001884  51E2               	movf	HighISR@Temp8& (0+255),w,b
 10714  001886  0D02               	mullw	2
 10715  001888  0E01               	movlw	low _ValoresAD
 10716  00188A  24F3               	addwf	prodl,w,c
 10717  00188C  6ED9               	movwf	fsr2l,c
 10718  00188E  0E00               	movlw	high _ValoresAD
 10719  001890  20F4               	addwfc	prodh,w,c
 10720  001892  6EDA               	movwf	fsr2h,c
 10721  001894  C03E  FFDE         	movff	?i2___lwdiv,postinc2
 10722  001898  C03F  FFDD         	movff	?i2___lwdiv+1,postdec2
 10723                           
 10724                           ; BSR set to: 0
 10725                           ;main.c: 323: ValoresAD[Temp8] += ValoresADanteriores1[Temp8];
 10726  00189C  0100               	movlb	0	; () banked
 10727  00189E  51E2               	movf	HighISR@Temp8& (0+255),w,b
 10728  0018A0  0D02               	mullw	2
 10729  0018A2  0E68               	movlw	low HighISR@ValoresADanteriores1
 10730  0018A4  24F3               	addwf	prodl,w,c
 10731  0018A6  6ED9               	movwf	fsr2l,c
 10732  0018A8  0E00               	movlw	high HighISR@ValoresADanteriores1
 10733  0018AA  20F4               	addwfc	prodh,w,c
 10734  0018AC  6EDA               	movwf	fsr2h,c
 10735  0018AE  CFDE F0CB          	movff	postinc2,??_HighISR
 10736  0018B2  CFDD F0CC          	movff	postdec2,??_HighISR+1
 10737  0018B6  0100               	movlb	0	; () banked
 10738  0018B8  51E2               	movf	HighISR@Temp8& (0+255),w,b
 10739  0018BA  0D02               	mullw	2
 10740  0018BC  0E01               	movlw	low _ValoresAD
 10741  0018BE  24F3               	addwf	prodl,w,c
 10742  0018C0  6ED9               	movwf	fsr2l,c
 10743  0018C2  0E00               	movlw	high _ValoresAD
 10744  0018C4  20F4               	addwfc	prodh,w,c
 10745  0018C6  6EDA               	movwf	fsr2h,c
 10746  0018C8  0100               	movlb	0	; () banked
 10747  0018CA  51CB               	movf	??_HighISR& (0+255),w,b
 10748  0018CC  26DE               	addwf	postinc2,f,c
 10749  0018CE  51CC               	movf	(??_HighISR+1)& (0+255),w,b
 10750  0018D0  22DD               	addwfc	postdec2,f,c
 10751                           
 10752                           ; BSR set to: 0
 10753                           ;main.c: 324: ValoresAD[Temp8] += ValoresADanteriores2[Temp8];
 10754  0018D2  0100               	movlb	0	; () banked
 10755  0018D4  51E2               	movf	HighISR@Temp8& (0+255),w,b
 10756  0018D6  0D02               	mullw	2
 10757  0018D8  0E70               	movlw	low HighISR@ValoresADanteriores2
 10758  0018DA  24F3               	addwf	prodl,w,c
 10759  0018DC  6ED9               	movwf	fsr2l,c
 10760  0018DE  0E00               	movlw	high HighISR@ValoresADanteriores2
 10761  0018E0  20F4               	addwfc	prodh,w,c
 10762  0018E2  6EDA               	movwf	fsr2h,c
 10763  0018E4  CFDE F0CB          	movff	postinc2,??_HighISR
 10764  0018E8  CFDD F0CC          	movff	postdec2,??_HighISR+1
 10765  0018EC  0100               	movlb	0	; () banked
 10766  0018EE  51E2               	movf	HighISR@Temp8& (0+255),w,b
 10767  0018F0  0D02               	mullw	2
 10768  0018F2  0E01               	movlw	low _ValoresAD
 10769  0018F4  24F3               	addwf	prodl,w,c
 10770  0018F6  6ED9               	movwf	fsr2l,c
 10771  0018F8  0E00               	movlw	high _ValoresAD
 10772  0018FA  20F4               	addwfc	prodh,w,c
 10773  0018FC  6EDA               	movwf	fsr2h,c
 10774  0018FE  0100               	movlb	0	; () banked
 10775  001900  51CB               	movf	??_HighISR& (0+255),w,b
 10776  001902  26DE               	addwf	postinc2,f,c
 10777  001904  51CC               	movf	(??_HighISR+1)& (0+255),w,b
 10778  001906  22DD               	addwfc	postdec2,f,c
 10779                           
 10780                           ; BSR set to: 0
 10781                           ;main.c: 325: ValoresAD[Temp8] += ValoresADanteriores3[Temp8];
 10782  001908  0100               	movlb	0	; () banked
 10783  00190A  51E2               	movf	HighISR@Temp8& (0+255),w,b
 10784  00190C  0D02               	mullw	2
 10785  00190E  0E78               	movlw	low HighISR@ValoresADanteriores3
 10786  001910  24F3               	addwf	prodl,w,c
 10787  001912  6ED9               	movwf	fsr2l,c
 10788  001914  0E00               	movlw	high HighISR@ValoresADanteriores3
 10789  001916  20F4               	addwfc	prodh,w,c
 10790  001918  6EDA               	movwf	fsr2h,c
 10791  00191A  CFDE F0CB          	movff	postinc2,??_HighISR
 10792  00191E  CFDD F0CC          	movff	postdec2,??_HighISR+1
 10793  001922  0100               	movlb	0	; () banked
 10794  001924  51E2               	movf	HighISR@Temp8& (0+255),w,b
 10795  001926  0D02               	mullw	2
 10796  001928  0E01               	movlw	low _ValoresAD
 10797  00192A  24F3               	addwf	prodl,w,c
 10798  00192C  6ED9               	movwf	fsr2l,c
 10799  00192E  0E00               	movlw	high _ValoresAD
 10800  001930  20F4               	addwfc	prodh,w,c
 10801  001932  6EDA               	movwf	fsr2h,c
 10802  001934  0100               	movlb	0	; () banked
 10803  001936  51CB               	movf	??_HighISR& (0+255),w,b
 10804  001938  26DE               	addwf	postinc2,f,c
 10805  00193A  51CC               	movf	(??_HighISR+1)& (0+255),w,b
 10806  00193C  22DD               	addwfc	postdec2,f,c
 10807                           
 10808                           ; BSR set to: 0
 10809                           ;main.c: 327: ValoresAD[Temp8] /= 4;
 10810  00193E  0E02               	movlw	2
 10811  001940  0100               	movlb	0	; () banked
 10812  001942  6FCB               	movwf	??_HighISR& (0+255),b
 10813  001944  0100               	movlb	0	; () banked
 10814  001946  51E2               	movf	HighISR@Temp8& (0+255),w,b
 10815  001948  0D02               	mullw	2
 10816  00194A  0E01               	movlw	low _ValoresAD
 10817  00194C  24F3               	addwf	prodl,w,c
 10818  00194E  6ED9               	movwf	fsr2l,c
 10819  001950  0E00               	movlw	high _ValoresAD
 10820  001952  20F4               	addwfc	prodh,w,c
 10821  001954  6EDA               	movwf	fsr2h,c
 10822  001956  0100               	movlb	0	; () banked
 10823  001958  29CB               	incf	??_HighISR& (0+255),w,b
 10824  00195A  D004               	goto	i2u610_40
 10825  00195C                     i2u610_45:
 10826  00195C  2AD9               	incf	fsr2l,f,c
 10827  00195E  90D8               	bcf	status,0,c
 10828  001960  32DD               	rrcf	postdec2,f,c
 10829  001962  32DF               	rrcf	indf2,f,c
 10830  001964                     i2u610_40:
 10831  001964  2EE8               	decfsz	wreg,f,c
 10832  001966  D7FA               	goto	i2u610_45
 10833                           
 10834                           ; BSR set to: 0
 10835                           ;main.c: 329: ValoresADanteriores3[Temp8] = ValoresADanteriores2[Temp8];
 10836  001968  0100               	movlb	0	; () banked
 10837  00196A  51E2               	movf	HighISR@Temp8& (0+255),w,b
 10838  00196C  0D02               	mullw	2
 10839  00196E  0E70               	movlw	low HighISR@ValoresADanteriores2
 10840  001970  24F3               	addwf	prodl,w,c
 10841  001972  6ED9               	movwf	fsr2l,c
 10842  001974  0E00               	movlw	high HighISR@ValoresADanteriores2
 10843  001976  20F4               	addwfc	prodh,w,c
 10844  001978  6EDA               	movwf	fsr2h,c
 10845  00197A  0100               	movlb	0	; () banked
 10846  00197C  51E2               	movf	HighISR@Temp8& (0+255),w,b
 10847  00197E  0D02               	mullw	2
 10848  001980  0E78               	movlw	low HighISR@ValoresADanteriores3
 10849  001982  24F3               	addwf	prodl,w,c
 10850  001984  6EE1               	movwf	fsr1l,c
 10851  001986  0E00               	movlw	high HighISR@ValoresADanteriores3
 10852  001988  20F4               	addwfc	prodh,w,c
 10853  00198A  6EE2               	movwf	fsr1h,c
 10854  00198C  CFDE FFE6          	movff	postinc2,postinc1
 10855  001990  CFDD FFE5          	movff	postdec2,postdec1
 10856                           
 10857                           ; BSR set to: 0
 10858                           ;main.c: 330: ValoresADanteriores2[Temp8] = ValoresADanteriores1[Temp8];
 10859  001994  0100               	movlb	0	; () banked
 10860  001996  51E2               	movf	HighISR@Temp8& (0+255),w,b
 10861  001998  0D02               	mullw	2
 10862  00199A  0E68               	movlw	low HighISR@ValoresADanteriores1
 10863  00199C  24F3               	addwf	prodl,w,c
 10864  00199E  6ED9               	movwf	fsr2l,c
 10865  0019A0  0E00               	movlw	high HighISR@ValoresADanteriores1
 10866  0019A2  20F4               	addwfc	prodh,w,c
 10867  0019A4  6EDA               	movwf	fsr2h,c
 10868  0019A6  0100               	movlb	0	; () banked
 10869  0019A8  51E2               	movf	HighISR@Temp8& (0+255),w,b
 10870  0019AA  0D02               	mullw	2
 10871  0019AC  0E70               	movlw	low HighISR@ValoresADanteriores2
 10872  0019AE  24F3               	addwf	prodl,w,c
 10873  0019B0  6EE1               	movwf	fsr1l,c
 10874  0019B2  0E00               	movlw	high HighISR@ValoresADanteriores2
 10875  0019B4  20F4               	addwfc	prodh,w,c
 10876  0019B6  6EE2               	movwf	fsr1h,c
 10877  0019B8  CFDE FFE6          	movff	postinc2,postinc1
 10878  0019BC  CFDD FFE5          	movff	postdec2,postdec1
 10879                           
 10880                           ; BSR set to: 0
 10881                           ;main.c: 331: ValoresADanteriores1[Temp8] = ValoresAD[Temp8];
 10882  0019C0  0100               	movlb	0	; () banked
 10883  0019C2  51E2               	movf	HighISR@Temp8& (0+255),w,b
 10884  0019C4  0D02               	mullw	2
 10885  0019C6  0E01               	movlw	low _ValoresAD
 10886  0019C8  24F3               	addwf	prodl,w,c
 10887  0019CA  6ED9               	movwf	fsr2l,c
 10888  0019CC  0E00               	movlw	high _ValoresAD
 10889  0019CE  20F4               	addwfc	prodh,w,c
 10890  0019D0  6EDA               	movwf	fsr2h,c
 10891  0019D2  0100               	movlb	0	; () banked
 10892  0019D4  51E2               	movf	HighISR@Temp8& (0+255),w,b
 10893  0019D6  0D02               	mullw	2
 10894  0019D8  0E68               	movlw	low HighISR@ValoresADanteriores1
 10895  0019DA  24F3               	addwf	prodl,w,c
 10896  0019DC  6EE1               	movwf	fsr1l,c
 10897  0019DE  0E00               	movlw	high HighISR@ValoresADanteriores1
 10898  0019E0  20F4               	addwfc	prodh,w,c
 10899  0019E2  6EE2               	movwf	fsr1h,c
 10900  0019E4  CFDE FFE6          	movff	postinc2,postinc1
 10901  0019E8  CFDD FFE5          	movff	postdec2,postdec1
 10902                           
 10903                           ; BSR set to: 0
 10904                           ;main.c: 332: AccValoresAD[Temp8] = 0;
 10905  0019EC  0100               	movlb	0	; () banked
 10906  0019EE  51E2               	movf	HighISR@Temp8& (0+255),w,b
 10907  0019F0  0D02               	mullw	2
 10908  0019F2  0E60               	movlw	low HighISR@AccValoresAD
 10909  0019F4  24F3               	addwf	prodl,w,c
 10910  0019F6  6ED9               	movwf	fsr2l,c
 10911  0019F8  0E00               	movlw	high HighISR@AccValoresAD
 10912  0019FA  20F4               	addwfc	prodh,w,c
 10913  0019FC  6EDA               	movwf	fsr2h,c
 10914  0019FE  0E00               	movlw	0
 10915  001A00  6EDE               	movwf	postinc2,c
 10916  001A02  0E00               	movlw	0
 10917  001A04  6EDD               	movwf	postdec2,c
 10918                           
 10919                           ; BSR set to: 0
 10920  001A06  0100               	movlb	0	; () banked
 10921  001A08  2BE2               	incf	HighISR@Temp8& (0+255),f,b
 10922  001A0A  D723               	goto	i2l7093
 10923  001A0C                     i2l7119:
 10924                           
 10925                           ; BSR set to: 0
 10926                           ;main.c: 334: }
 10927                           ;main.c: 335: ContMedia = 0;
 10928  001A0C  0E00               	movlw	0
 10929  001A0E  6E10               	movwf	HighISR@ContMedia,c
 10930                           
 10931                           ;main.c: 336: EstadoAD = SETACANAL;
 10932  001A10  0E00               	movlw	0
 10933  001A12                     L39:
 10934  001A12  6E11               	movwf	HighISR@EstadoAD,c
 10935                           
 10936                           ; BSR set to: 0
 10937                           ;main.c: 338: }
 10938                           
 10939                           ;main.c: 337: break;
 10940  001A14  D00E               	goto	i2l292
 10941  001A16                     i2l7123:
 10942  001A16  5011               	movf	HighISR@EstadoAD,w,c
 10943                           
 10944                           ; Switch size 1, requested type "space"
 10945                           ; Number of cases is 4, Range of values is 0 to 3
 10946                           ; switch strategies available:
 10947                           ; Name         Instructions Cycles
 10948                           ; simple_byte           13     7 (average)
 10949                           ;	Chosen strategy is simple_byte
 10950  001A18  0A00               	xorlw	0	; case 0
 10951  001A1A  B4D8               	btfsc	status,2,c
 10952  001A1C  D6D7               	goto	i2l7059
 10953  001A1E  0A01               	xorlw	1	; case 1
 10954  001A20  B4D8               	btfsc	status,2,c
 10955  001A22  D6E5               	goto	i2l284
 10956  001A24  0A03               	xorlw	3	; case 2
 10957  001A26  B4D8               	btfsc	status,2,c
 10958  001A28  D6E5               	goto	i2l285
 10959  001A2A  0A01               	xorlw	1	; case 3
 10960  001A2C  B4D8               	btfsc	status,2,c
 10961  001A2E  D70E               	goto	i2l7091
 10962  001A30  D000               	goto	i2l292
 10963  001A32                     i2l292:
 10964  001A32  C0DB  FFF5         	movff	??_HighISR+16,tablat
 10965  001A36  C0DA  FFF8         	movff	??_HighISR+15,tblptru
 10966  001A3A  C0D9  FFF7         	movff	??_HighISR+14,tblptrh
 10967  001A3E  C0D8  FFF6         	movff	??_HighISR+13,tblptrl
 10968  001A42  C0D7  FFF4         	movff	??_HighISR+12,prodh
 10969  001A46  C0D6  FFF3         	movff	??_HighISR+11,prodl
 10970  001A4A  C0D5  FFDA         	movff	??_HighISR+10,fsr2h
 10971  001A4E  C0D4  FFD9         	movff	??_HighISR+9,fsr2l
 10972  001A52  C0D3  FFE2         	movff	??_HighISR+8,fsr1h
 10973  001A56  C0D2  FFE1         	movff	??_HighISR+7,fsr1l
 10974  001A5A  C0D1  FFEA         	movff	??_HighISR+6,fsr0h
 10975  001A5E  C0D0  FFE9         	movff	??_HighISR+5,fsr0l
 10976  001A62  C0CF  FFFB         	movff	??_HighISR+4,pclatu
 10977  001A66  C0CE  FFFA         	movff	??_HighISR+3,pclath
 10978  001A6A  0011               	retfie		f
 10979  001A6C                     __end_of_HighISR:
 10980                           	opt stack 0
 10981                           pclatu	equ	0xFFB
 10982                           pclath	equ	0xFFA
 10983                           tblptru	equ	0xFF8
 10984                           tblptrh	equ	0xFF7
 10985                           tblptrl	equ	0xFF6
 10986                           tablat	equ	0xFF5
 10987                           prodh	equ	0xFF4
 10988                           prodl	equ	0xFF3
 10989                           intcon	equ	0xFF2
 10990                           intcon2	equ	0xFF1
 10991                           postinc0	equ	0xFEE
 10992                           fsr0h	equ	0xFEA
 10993                           fsr0l	equ	0xFE9
 10994                           wreg	equ	0xFE8
 10995                           postinc1	equ	0xFE6
 10996                           postdec1	equ	0xFE5
 10997                           fsr1h	equ	0xFE2
 10998                           fsr1l	equ	0xFE1
 10999                           bsr	equ	0xFE0
 11000                           indf2	equ	0xFDF
 11001                           postinc2	equ	0xFDE
 11002                           postdec2	equ	0xFDD
 11003                           fsr2h	equ	0xFDA
 11004                           fsr2l	equ	0xFD9
 11005                           status	equ	0xFD8
 11006                           
 11007 ;; *************** function i2___wmul *****************
 11008 ;; Defined at:
 11009 ;;		line 15 in file "C:\Program Files (x86)\Microchip\xc8\v1.34\sources\common\Umul16.c"
 11010 ;; Parameters:    Size  Location     Type
 11011 ;;  multiplier      2   25[COMRAM] unsigned int 
 11012 ;;  multiplicand    2   27[COMRAM] unsigned int 
 11013 ;; Auto vars:     Size  Location     Type
 11014 ;;  __wmul          2   29[COMRAM] unsigned int 
 11015 ;; Return value:  Size  Location     Type
 11016 ;;                  2   25[COMRAM] unsigned int 
 11017 ;; Registers used:
 11018 ;;		wreg, status,2, status,0, prodl, prodh
 11019 ;; Tracked objects:
 11020 ;;		On entry : 0/0
 11021 ;;		On exit  : 0/0
 11022 ;;		Unchanged: 0/0
 11023 ;; Data sizes:     COMRAM   BANK0   BANK1   BANK2   BANK3   BANK4   BANK5   BANK6   BANK7
 11024 ;;      Params:         4       0       0       0       0       0       0       0       0
 11025 ;;      Locals:         2       0       0       0       0       0       0       0       0
 11026 ;;      Temps:          0       0       0       0       0       0       0       0       0
 11027 ;;      Totals:         6       0       0       0       0       0       0       0       0
 11028 ;;Total ram usage:        6 bytes
 11029 ;; Hardware stack levels used:    1
 11030 ;; This function calls:
 11031 ;;		Nothing
 11032 ;; This function is called by:
 11033 ;;		_HighISR
 11034 ;; This function uses a non-reentrant model
 11035 ;;
 11036                           
 11037                           	psect	text28
 11038  0030D6                     __ptext28:
 11039                           	opt stack 0
 11040  0030D6                     i2___wmul:
 11041                           	opt stack 24
 11042                           
 11043                           ;incstack = 0
 11044  0030D6  503E               	movf	i2___wmul@multiplier,w,c
 11045  0030D8  0240               	mulwf	i2___wmul@multiplicand,c
 11046  0030DA  CFF3 F042          	movff	prodl,i2___wmul@product
 11047  0030DE  CFF4 F043          	movff	prodh,i2___wmul@product+1
 11048  0030E2  503E               	movf	i2___wmul@multiplier,w,c
 11049  0030E4  0241               	mulwf	i2___wmul@multiplicand+1,c
 11050  0030E6  50F3               	movf	prodl,w,c
 11051  0030E8  2643               	addwf	i2___wmul@product+1,f,c
 11052  0030EA  503F               	movf	i2___wmul@multiplier+1,w,c
 11053  0030EC  0240               	mulwf	i2___wmul@multiplicand,c
 11054  0030EE  50F3               	movf	prodl,w,c
 11055  0030F0  2643               	addwf	i2___wmul@product+1,f,c
 11056  0030F2  C042  F03E         	movff	i2___wmul@product,?i2___wmul
 11057  0030F6  C043  F03F         	movff	i2___wmul@product+1,?i2___wmul+1
 11058  0030FA  D000               	goto	i2l790
 11059  0030FC                     i2l790:
 11060  0030FC  0012               	return		;funcret
 11061  0030FE                     __end_ofi2___wmul:
 11062                           	opt stack 0
 11063                           pclatu	equ	0xFFB
 11064                           pclath	equ	0xFFA
 11065                           tblptru	equ	0xFF8
 11066                           tblptrh	equ	0xFF7
 11067                           tblptrl	equ	0xFF6
 11068                           tablat	equ	0xFF5
 11069                           prodh	equ	0xFF4
 11070                           prodl	equ	0xFF3
 11071                           intcon	equ	0xFF2
 11072                           intcon2	equ	0xFF1
 11073                           postinc0	equ	0xFEE
 11074                           fsr0h	equ	0xFEA
 11075                           fsr0l	equ	0xFE9
 11076                           wreg	equ	0xFE8
 11077                           postinc1	equ	0xFE6
 11078                           postdec1	equ	0xFE5
 11079                           fsr1h	equ	0xFE2
 11080                           fsr1l	equ	0xFE1
 11081                           bsr	equ	0xFE0
 11082                           indf2	equ	0xFDF
 11083                           postinc2	equ	0xFDE
 11084                           postdec2	equ	0xFDD
 11085                           fsr2h	equ	0xFDA
 11086                           fsr2l	equ	0xFD9
 11087                           status	equ	0xFD8
 11088                           
 11089 ;; *************** function i2___lwdiv *****************
 11090 ;; Defined at:
 11091 ;;		line 8 in file "C:\Program Files (x86)\Microchip\xc8\v1.34\sources\common\lwdiv.c"
 11092 ;; Parameters:    Size  Location     Type
 11093 ;;  dividend        2   25[COMRAM] unsigned int 
 11094 ;;  divisor         2   27[COMRAM] unsigned int 
 11095 ;; Auto vars:     Size  Location     Type
 11096 ;;  __lwdiv         2    1[BANK0 ] unsigned int 
 11097 ;;  __lwdiv         1    0[BANK0 ] unsigned char 
 11098 ;; Return value:  Size  Location     Type
 11099 ;;                  2   25[COMRAM] unsigned int 
 11100 ;; Registers used:
 11101 ;;		wreg, status,2, status,0
 11102 ;; Tracked objects:
 11103 ;;		On entry : 0/0
 11104 ;;		On exit  : 0/0
 11105 ;;		Unchanged: 0/0
 11106 ;; Data sizes:     COMRAM   BANK0   BANK1   BANK2   BANK3   BANK4   BANK5   BANK6   BANK7
 11107 ;;      Params:         4       0       0       0       0       0       0       0       0
 11108 ;;      Locals:         0       3       0       0       0       0       0       0       0
 11109 ;;      Temps:          0       0       0       0       0       0       0       0       0
 11110 ;;      Totals:         4       3       0       0       0       0       0       0       0
 11111 ;;Total ram usage:        7 bytes
 11112 ;; Hardware stack levels used:    1
 11113 ;; This function calls:
 11114 ;;		Nothing
 11115 ;; This function is called by:
 11116 ;;		_HighISR
 11117 ;; This function uses a non-reentrant model
 11118 ;;
 11119                           
 11120                           	psect	text29
 11121  002E6E                     __ptext29:
 11122                           	opt stack 0
 11123  002E6E                     i2___lwdiv:
 11124                           	opt stack 24
 11125                           
 11126                           ;incstack = 0
 11127  002E6E  0E00               	movlw	0
 11128  002E70  0100               	movlb	0	; () banked
 11129  002E72  6FCA               	movwf	(i2___lwdiv@quotient+1)& (0+255),b
 11130  002E74  0E00               	movlw	0
 11131  002E76  6FC9               	movwf	i2___lwdiv@quotient& (0+255),b
 11132                           
 11133                           ; BSR set to: 0
 11134  002E78  5040               	movf	i2___lwdiv@divisor,w,c
 11135  002E7A  1041               	iorwf	i2___lwdiv@divisor+1,w,c
 11136  002E7C  B4D8               	btfsc	status,2,c
 11137  002E7E  D026               	goto	i2l1308
 11138                           
 11139                           ; BSR set to: 0
 11140  002E80  0E01               	movlw	1
 11141  002E82  0100               	movlb	0	; () banked
 11142  002E84  6FC8               	movwf	i2___lwdiv@counter& (0+255),b
 11143  002E86  D006               	goto	i2l6897
 11144  002E88                     i2l6895:
 11145                           
 11146                           ; BSR set to: 0
 11147  002E88  90D8               	bcf	status,0,c
 11148  002E8A  3640               	rlcf	i2___lwdiv@divisor,f,c
 11149  002E8C  3641               	rlcf	i2___lwdiv@divisor+1,f,c
 11150  002E8E  0100               	movlb	0	; () banked
 11151  002E90  2BC8               	incf	i2___lwdiv@counter& (0+255),f,b
 11152  002E92  D000               	goto	i2l6897
 11153  002E94                     i2l6897:
 11154                           
 11155                           ; BSR set to: 0
 11156  002E94  BE41               	btfsc	i2___lwdiv@divisor+1,7,c
 11157  002E96  D002               	goto	i2l6899
 11158  002E98  D7F7               	goto	i2l6895
 11159                           
 11160                           ; BSR set to: 0
 11161  002E9A  D000               	goto	i2l6899
 11162  002E9C                     i2l6899:
 11163                           
 11164                           ; BSR set to: 0
 11165  002E9C  0100               	movlb	0	; () banked
 11166  002E9E  90D8               	bcf	status,0,c
 11167  002EA0  37C9               	rlcf	i2___lwdiv@quotient& (0+255),f,b
 11168  002EA2  37CA               	rlcf	(i2___lwdiv@quotient+1)& (0+255),f,b
 11169                           
 11170                           ; BSR set to: 0
 11171  002EA4  5040               	movf	i2___lwdiv@divisor,w,c
 11172  002EA6  5C3E               	subwf	i2___lwdiv@dividend,w,c
 11173  002EA8  5041               	movf	i2___lwdiv@divisor+1,w,c
 11174  002EAA  583F               	subwfb	i2___lwdiv@dividend+1,w,c
 11175  002EAC  A0D8               	btfss	status,0,c
 11176  002EAE  D007               	goto	i2l6907
 11177                           
 11178                           ; BSR set to: 0
 11179  002EB0  5040               	movf	i2___lwdiv@divisor,w,c
 11180  002EB2  5E3E               	subwf	i2___lwdiv@dividend,f,c
 11181  002EB4  5041               	movf	i2___lwdiv@divisor+1,w,c
 11182  002EB6  5A3F               	subwfb	i2___lwdiv@dividend+1,f,c
 11183                           
 11184                           ; BSR set to: 0
 11185  002EB8  0100               	movlb	0	; () banked
 11186  002EBA  81C9               	bsf	i2___lwdiv@quotient& (0+255),0,b
 11187  002EBC  D000               	goto	i2l6907
 11188  002EBE                     i2l6907:
 11189                           
 11190                           ; BSR set to: 0
 11191  002EBE  90D8               	bcf	status,0,c
 11192  002EC0  3241               	rrcf	i2___lwdiv@divisor+1,f,c
 11193  002EC2  3240               	rrcf	i2___lwdiv@divisor,f,c
 11194                           
 11195                           ; BSR set to: 0
 11196  002EC4  0100               	movlb	0	; () banked
 11197  002EC6  2FC8               	decfsz	i2___lwdiv@counter& (0+255),f,b
 11198  002EC8  D7E9               	goto	i2l6899
 11199  002ECA  D000               	goto	i2l1308
 11200  002ECC                     i2l1308:
 11201                           
 11202                           ; BSR set to: 0
 11203  002ECC  C0C9  F03E         	movff	i2___lwdiv@quotient,?i2___lwdiv
 11204  002ED0  C0CA  F03F         	movff	i2___lwdiv@quotient+1,?i2___lwdiv+1
 11205                           
 11206                           ; BSR set to: 0
 11207  002ED4  0012               	return		;funcret
 11208  002ED6                     __end_ofi2___lwdiv:
 11209                           	opt stack 0
 11210                           pclatu	equ	0xFFB
 11211                           pclath	equ	0xFFA
 11212                           tblptru	equ	0xFF8
 11213                           tblptrh	equ	0xFF7
 11214                           tblptrl	equ	0xFF6
 11215                           tablat	equ	0xFF5
 11216                           prodh	equ	0xFF4
 11217                           prodl	equ	0xFF3
 11218                           intcon	equ	0xFF2
 11219                           intcon2	equ	0xFF1
 11220                           postinc0	equ	0xFEE
 11221                           fsr0h	equ	0xFEA
 11222                           fsr0l	equ	0xFE9
 11223                           wreg	equ	0xFE8
 11224                           postinc1	equ	0xFE6
 11225                           postdec1	equ	0xFE5
 11226                           fsr1h	equ	0xFE2
 11227                           fsr1l	equ	0xFE1
 11228                           bsr	equ	0xFE0
 11229                           indf2	equ	0xFDF
 11230                           postinc2	equ	0xFDE
 11231                           postdec2	equ	0xFDD
 11232                           fsr2h	equ	0xFDA
 11233                           fsr2l	equ	0xFD9
 11234                           status	equ	0xFD8
 11235                           
 11236 ;; *************** function ___awmod *****************
 11237 ;; Defined at:
 11238 ;;		line 8 in file "C:\Program Files (x86)\Microchip\xc8\v1.34\sources\common\awmod.c"
 11239 ;; Parameters:    Size  Location     Type
 11240 ;;  dividend        2   25[COMRAM] int 
 11241 ;;  divisor         2   27[COMRAM] int 
 11242 ;; Auto vars:     Size  Location     Type
 11243 ;;  sign            1   30[COMRAM] unsigned char 
 11244 ;;  counter         1   29[COMRAM] unsigned char 
 11245 ;; Return value:  Size  Location     Type
 11246 ;;                  2   25[COMRAM] int 
 11247 ;; Registers used:
 11248 ;;		wreg, status,2, status,0
 11249 ;; Tracked objects:
 11250 ;;		On entry : 0/0
 11251 ;;		On exit  : 0/0
 11252 ;;		Unchanged: 0/0
 11253 ;; Data sizes:     COMRAM   BANK0   BANK1   BANK2   BANK3   BANK4   BANK5   BANK6   BANK7
 11254 ;;      Params:         4       0       0       0       0       0       0       0       0
 11255 ;;      Locals:         2       0       0       0       0       0       0       0       0
 11256 ;;      Temps:          0       0       0       0       0       0       0       0       0
 11257 ;;      Totals:         6       0       0       0       0       0       0       0       0
 11258 ;;Total ram usage:        6 bytes
 11259 ;; Hardware stack levels used:    1
 11260 ;; This function calls:
 11261 ;;		Nothing
 11262 ;; This function is called by:
 11263 ;;		_HighISR
 11264 ;; This function uses a non-reentrant model
 11265 ;;
 11266                           
 11267                           	psect	text30
 11268  002C98                     __ptext30:
 11269                           	opt stack 0
 11270  002C98                     ___awmod:
 11271                           	opt stack 24
 11272                           
 11273                           ; BSR set to: 0
 11274                           ;incstack = 0
 11275  002C98  0E00               	movlw	0
 11276  002C9A  6E43               	movwf	___awmod@sign,c
 11277  002C9C  AE3F               	btfss	___awmod@dividend+1,7,c
 11278  002C9E  D007               	goto	i2l6855
 11279  002CA0  6C3E               	negf	___awmod@dividend,c
 11280  002CA2  1E3F               	comf	___awmod@dividend+1,f,c
 11281  002CA4  B0D8               	btfsc	status,0,c
 11282  002CA6  2A3F               	incf	___awmod@dividend+1,f,c
 11283  002CA8  0E01               	movlw	1
 11284  002CAA  6E43               	movwf	___awmod@sign,c
 11285  002CAC  D000               	goto	i2l6855
 11286  002CAE                     i2l6855:
 11287  002CAE  AE41               	btfss	___awmod@divisor+1,7,c
 11288  002CB0  D005               	goto	i2l6859
 11289  002CB2  6C40               	negf	___awmod@divisor,c
 11290  002CB4  1E41               	comf	___awmod@divisor+1,f,c
 11291  002CB6  B0D8               	btfsc	status,0,c
 11292  002CB8  2A41               	incf	___awmod@divisor+1,f,c
 11293  002CBA  D000               	goto	i2l6859
 11294  002CBC                     i2l6859:
 11295  002CBC  5040               	movf	___awmod@divisor,w,c
 11296  002CBE  1041               	iorwf	___awmod@divisor+1,w,c
 11297  002CC0  B4D8               	btfsc	status,2,c
 11298  002CC2  D01D               	goto	i2l6875
 11299  002CC4  0E01               	movlw	1
 11300  002CC6  6E42               	movwf	___awmod@counter,c
 11301  002CC8  D005               	goto	i2l6865
 11302  002CCA                     i2l6863:
 11303  002CCA  90D8               	bcf	status,0,c
 11304  002CCC  3640               	rlcf	___awmod@divisor,f,c
 11305  002CCE  3641               	rlcf	___awmod@divisor+1,f,c
 11306  002CD0  2A42               	incf	___awmod@counter,f,c
 11307  002CD2  D000               	goto	i2l6865
 11308  002CD4                     i2l6865:
 11309  002CD4  BE41               	btfsc	___awmod@divisor+1,7,c
 11310  002CD6  D002               	goto	i2l6867
 11311  002CD8  D7F8               	goto	i2l6863
 11312  002CDA  D000               	goto	i2l6867
 11313  002CDC                     i2l6867:
 11314  002CDC  5040               	movf	___awmod@divisor,w,c
 11315  002CDE  5C3E               	subwf	___awmod@dividend,w,c
 11316  002CE0  5041               	movf	___awmod@divisor+1,w,c
 11317  002CE2  583F               	subwfb	___awmod@dividend+1,w,c
 11318  002CE4  A0D8               	btfss	status,0,c
 11319  002CE6  D005               	goto	i2l6871
 11320  002CE8  5040               	movf	___awmod@divisor,w,c
 11321  002CEA  5E3E               	subwf	___awmod@dividend,f,c
 11322  002CEC  5041               	movf	___awmod@divisor+1,w,c
 11323  002CEE  5A3F               	subwfb	___awmod@dividend+1,f,c
 11324  002CF0  D000               	goto	i2l6871
 11325  002CF2                     i2l6871:
 11326  002CF2  90D8               	bcf	status,0,c
 11327  002CF4  3241               	rrcf	___awmod@divisor+1,f,c
 11328  002CF6  3240               	rrcf	___awmod@divisor,f,c
 11329  002CF8  2E42               	decfsz	___awmod@counter,f,c
 11330  002CFA  D7F0               	goto	i2l6867
 11331  002CFC  D000               	goto	i2l6875
 11332  002CFE                     i2l6875:
 11333  002CFE  5043               	movf	___awmod@sign,w,c
 11334  002D00  B4D8               	btfsc	status,2,c
 11335  002D02  D005               	goto	i2l6879
 11336  002D04  6C3E               	negf	___awmod@dividend,c
 11337  002D06  1E3F               	comf	___awmod@dividend+1,f,c
 11338  002D08  B0D8               	btfsc	status,0,c
 11339  002D0A  2A3F               	incf	___awmod@dividend+1,f,c
 11340  002D0C  D000               	goto	i2l6879
 11341  002D0E                     i2l6879:
 11342  002D0E  C03E  F03E         	movff	___awmod@dividend,?___awmod
 11343  002D12  C03F  F03F         	movff	___awmod@dividend+1,?___awmod+1
 11344  002D16  D000               	goto	i2l996
 11345  002D18                     i2l996:
 11346  002D18  0012               	return		;funcret
 11347  002D1A                     __end_of___awmod:
 11348                           	opt stack 0
 11349  0000                     pclatu	equ	0xFFB
 11350                           pclath	equ	0xFFA
 11351                           tblptru	equ	0xFF8
 11352                           tblptrh	equ	0xFF7
 11353                           tblptrl	equ	0xFF6
 11354                           tablat	equ	0xFF5
 11355                           prodh	equ	0xFF4
 11356                           prodl	equ	0xFF3
 11357                           intcon	equ	0xFF2
 11358                           intcon2	equ	0xFF1
 11359                           postinc0	equ	0xFEE
 11360                           fsr0h	equ	0xFEA
 11361                           fsr0l	equ	0xFE9
 11362                           wreg	equ	0xFE8
 11363                           postinc1	equ	0xFE6
 11364                           postdec1	equ	0xFE5
 11365                           fsr1h	equ	0xFE2
 11366                           fsr1l	equ	0xFE1
 11367                           bsr	equ	0xFE0
 11368                           indf2	equ	0xFDF
 11369                           postinc2	equ	0xFDE
 11370                           postdec2	equ	0xFDD
 11371                           fsr2h	equ	0xFDA
 11372                           fsr2l	equ	0xFD9
 11373                           status	equ	0xFD8
 11374                           pclatu	equ	0xFFB
 11375                           pclath	equ	0xFFA
 11376                           tblptru	equ	0xFF8
 11377                           tblptrh	equ	0xFF7
 11378                           tblptrl	equ	0xFF6
 11379                           tablat	equ	0xFF5
 11380                           prodh	equ	0xFF4
 11381                           prodl	equ	0xFF3
 11382                           intcon	equ	0xFF2
 11383                           intcon2	equ	0xFF1
 11384                           postinc0	equ	0xFEE
 11385                           fsr0h	equ	0xFEA
 11386                           fsr0l	equ	0xFE9
 11387                           wreg	equ	0xFE8
 11388                           postinc1	equ	0xFE6
 11389                           postdec1	equ	0xFE5
 11390                           fsr1h	equ	0xFE2
 11391                           fsr1l	equ	0xFE1
 11392                           bsr	equ	0xFE0
 11393                           indf2	equ	0xFDF
 11394                           postinc2	equ	0xFDE
 11395                           postdec2	equ	0xFDD
 11396                           fsr2h	equ	0xFDA
 11397                           fsr2l	equ	0xFD9
 11398                           status	equ	0xFD8
 11399                           
 11400                           	psect	rparam
 11401  0000                     pclatu	equ	0xFFB
 11402                           pclath	equ	0xFFA
 11403                           tblptru	equ	0xFF8
 11404                           tblptrh	equ	0xFF7
 11405                           tblptrl	equ	0xFF6
 11406                           tablat	equ	0xFF5
 11407                           prodh	equ	0xFF4
 11408                           prodl	equ	0xFF3
 11409                           intcon	equ	0xFF2
 11410                           intcon2	equ	0xFF1
 11411                           postinc0	equ	0xFEE
 11412                           fsr0h	equ	0xFEA
 11413                           fsr0l	equ	0xFE9
 11414                           wreg	equ	0xFE8
 11415                           postinc1	equ	0xFE6
 11416                           postdec1	equ	0xFE5
 11417                           fsr1h	equ	0xFE2
 11418                           fsr1l	equ	0xFE1
 11419                           bsr	equ	0xFE0
 11420                           indf2	equ	0xFDF
 11421                           postinc2	equ	0xFDE
 11422                           postdec2	equ	0xFDD
 11423                           fsr2h	equ	0xFDA
 11424                           fsr2l	equ	0xFD9
 11425                           status	equ	0xFD8


Data Sizes:
    Strings     0
    Constant    0
    Data        0
    BSS         220
    Persistent  2
    Stack       0

Auto Spaces:
    Space          Size  Autos    Used
    COMRAM           95     31      70
    BANK0           160     27     133
    BANK1           256     47     127
    BANK2           256      0       0
    BANK3           256      0       0
    BANK4           256      0       0
    BANK5           256      0       0
    BANK6           256      0       0
    BANK7           256      0       0

Pointer List with Targets:

    None.

Critical Paths under _main in COMRAM

    None.

Critical Paths under _HighISR in COMRAM

    _HighISR->___awmod
    _HighISR->i2___wmul

Critical Paths under _LowISR in COMRAM

    _LowISR->i1___awdiv

Critical Paths under _main in BANK0

    None.

Critical Paths under _HighISR in BANK0

    _HighISR->i2___lwdiv

Critical Paths under _LowISR in BANK0

    None.

Critical Paths under _main in BANK1

    _main->_ExecutaBrassagem
    _ResetaSaidas->_EscreverDWINram
    _ModoManual->_EscreverDWINram
    _LeParamConfig->___awdiv
    _LeDadosReceita->_LerDWINram
    _ExecutaBrassagem->___ftge
    ___wmul->_LerDWINram
    ___lwtoft->___ftpack
    ___lbtoft->___ftpack
    ___ftmul->___lbtoft
    ___ftge->___ftmul
    ___awdiv->_LerDWINram
    _LerDWINreg->_DelayDWIN
    _LerDWINram->_DelayDWIN
    _EscreverDWINtrend->_DelayDWIN
    _EscreverDWINreg->_DelayDWIN
    _EscreverDWINram->___awdiv
    _Bipar->_DelaySeg
    _AcionaValvulaMotorizada->_DelaySeg

Critical Paths under _HighISR in BANK1

    None.

Critical Paths under _LowISR in BANK1

    None.

Critical Paths under _main in BANK2

    None.

Critical Paths under _HighISR in BANK2

    None.

Critical Paths under _LowISR in BANK2

    None.

Critical Paths under _main in BANK3

    None.

Critical Paths under _HighISR in BANK3

    None.

Critical Paths under _LowISR in BANK3

    None.

Critical Paths under _main in BANK4

    None.

Critical Paths under _HighISR in BANK4

    None.

Critical Paths under _LowISR in BANK4

    None.

Critical Paths under _main in BANK5

    None.

Critical Paths under _HighISR in BANK5

    None.

Critical Paths under _LowISR in BANK5

    None.

Critical Paths under _main in BANK6

    None.

Critical Paths under _HighISR in BANK6

    None.

Critical Paths under _LowISR in BANK6

    None.

Critical Paths under _main in BANK7

    None.

Critical Paths under _HighISR in BANK7

    None.

Critical Paths under _LowISR in BANK7

    None.

Call Graph Tables:

 ---------------------------------------------------------------------------------
 (Depth) Function   	        Calls       Base Space   Used Autos Params    Refs
 ---------------------------------------------------------------------------------
 (0) _main                                                 2     2      0  105858
                                             45 BANK1      2     2      0
                              _Bipar
                    _EscreverDWINram
                    _EscreverDWINreg
                   _ExecutaBrassagem
                      _Inicializacao
                     _LeDadosReceita
                      _LeParamConfig
                         _LerDWINreg
                         _ModoManual
                       _ResetaSaidas
 ---------------------------------------------------------------------------------
 (1) _ResetaSaidas                                         0     0      0   18110
            _AcionaValvulaMotorizada
                    _EscreverDWINram
 ---------------------------------------------------------------------------------
 (1) _ModoManual                                           4     4      0   23815
                                             20 BANK1      4     4      0
            _AcionaValvulaMotorizada
                           _DelaySeg
                    _EscreverDWINram
                         _LerDWINram
                            ___lwdiv
                             ___wmul
 ---------------------------------------------------------------------------------
 (1) _LeParamConfig                                        0     0      0    4667
                         _LerDWINram
                            ___awdiv
 ---------------------------------------------------------------------------------
 (1) _LeDadosReceita                                       5     5      0    4498
                                              7 BANK1      5     5      0
                         _LerDWINram
 ---------------------------------------------------------------------------------
 (1) _Inicializacao                                        0     0      0       0
 ---------------------------------------------------------------------------------
 (1) _ExecutaBrassagem                                     9     9      0   37473
                                             36 BANK1      9     9      0
            _AcionaValvulaMotorizada
                              _Bipar
                           _DelaySeg
                    _EscreverDWINram
                    _EscreverDWINreg
                  _EscreverDWINtrend
                         _LerDWINram
                         _LerDWINreg
                            ___awdiv
                             ___ftge
                            ___ftmul
                           ___lbtoft
                            ___lwdiv
                           ___lwtoft
                             ___wmul
 ---------------------------------------------------------------------------------
 (2) ___wmul                                               6     2      4    1022
                                              7 BANK1      6     2      4
                         _LerDWINram (ARG)
 ---------------------------------------------------------------------------------
 (2) ___lwtoft                                             3     0      3    2512
                                              8 BANK1      3     0      3
                           ___ftpack
 ---------------------------------------------------------------------------------
 (2) ___lwdiv                                              7     3      4    1025
                                              0 BANK1      7     3      4
 ---------------------------------------------------------------------------------
 (2) ___lbtoft                                             4     1      3    2435
                                              8 BANK1      4     1      3
                           ___ftpack
 ---------------------------------------------------------------------------------
 (2) ___ftmul                                             15     9      6    3160
                                             12 BANK1     15     9      6
                           ___ftpack
                           ___lbtoft (ARG)
 ---------------------------------------------------------------------------------
 (3) ___ftpack                                             8     3      5    2404
                                              0 BANK1      8     3      5
 ---------------------------------------------------------------------------------
 (2) ___ftge                                               9     3      6     352
                                             27 BANK1      9     3      6
                            ___ftmul (ARG)
                           ___lbtoft (ARG)
                           ___lwtoft (ARG)
 ---------------------------------------------------------------------------------
 (2) ___awdiv                                              8     4      4    1145
                                              7 BANK1      8     4      4
                         _LerDWINram (ARG)
 ---------------------------------------------------------------------------------
 (1) _LerDWINreg                                           5     3      2     334
                                              2 BANK1      5     3      2
                          _DelayDWIN
 ---------------------------------------------------------------------------------
 (2) _LerDWINram                                           5     3      2    3522
                                              2 BANK1      5     3      2
                          _DelayDWIN
 ---------------------------------------------------------------------------------
 (2) _EscreverDWINtrend                                    3     1      2     306
                                              2 BANK1      3     1      2
                          _DelayDWIN
 ---------------------------------------------------------------------------------
 (2) _EscreverDWINreg                                      4     2      2    2647
                                              2 BANK1      4     2      2
                          _DelayDWIN
 ---------------------------------------------------------------------------------
 (2) _EscreverDWINram                                      5     1      4   14151
                                             15 BANK1      5     1      4
                          _DelayDWIN
                            ___awdiv (ARG)
 ---------------------------------------------------------------------------------
 (2) _Bipar                                                0     0      0     102
                           _DelaySeg
 ---------------------------------------------------------------------------------
 (2) _AcionaValvulaMotorizada                              2     1      1    3959
                                              4 BANK1      2     1      1
                          _DelayDWIN
                           _DelaySeg
 ---------------------------------------------------------------------------------
 (3) _DelaySeg                                             4     4      0     102
                                              0 BANK1      4     4      0
 ---------------------------------------------------------------------------------
 (3) _DelayDWIN                                            2     2      0      68
                                              0 BANK1      2     2      0
 ---------------------------------------------------------------------------------
 Estimated maximum stack depth 3
 ---------------------------------------------------------------------------------
 (Depth) Function   	        Calls       Base Space   Used Autos Params    Refs
 ---------------------------------------------------------------------------------
 (4) _LowISR                                              17    17      0     566
                                              8 COMRAM    17    17      0
                          i1___awdiv
                          i1___lwdiv
 ---------------------------------------------------------------------------------
 (5) i1___lwdiv                                            7     3      4     214
                                              0 COMRAM     7     3      4
 ---------------------------------------------------------------------------------
 (5) i1___awdiv                                            8     4      4     352
                                              0 COMRAM     8     4      4
 ---------------------------------------------------------------------------------
 Estimated maximum stack depth 5
 ---------------------------------------------------------------------------------
 (Depth) Function   	        Calls       Base Space   Used Autos Params    Refs
 ---------------------------------------------------------------------------------
 (6) _HighISR                                             24    24      0    2221
                                              3 BANK0     24    24      0
                            ___awmod
                          i2___lwdiv
                           i2___wmul
 ---------------------------------------------------------------------------------
 (7) i2___wmul                                             6     2      4     366
                                             25 COMRAM     6     2      4
 ---------------------------------------------------------------------------------
 (7) i2___lwdiv                                            7     3      4     311
                                             25 COMRAM     4     0      4
                                              0 BANK0      3     3      0
 ---------------------------------------------------------------------------------
 (7) ___awmod                                              6     2      4     587
                                             25 COMRAM     6     2      4
 ---------------------------------------------------------------------------------
 Estimated maximum stack depth 7
 ---------------------------------------------------------------------------------

 Call Graph Graphs:

 _main (ROOT)
   _Bipar
     _DelaySeg
   _EscreverDWINram
     _DelayDWIN
     ___awdiv (ARG)
       _LerDWINram (ARG)
         _DelayDWIN
   _EscreverDWINreg
     _DelayDWIN
   _ExecutaBrassagem
     _AcionaValvulaMotorizada
       _DelayDWIN
       _DelaySeg
     _Bipar
       _DelaySeg
     _DelaySeg
     _EscreverDWINram
       _DelayDWIN
       ___awdiv (ARG)
         _LerDWINram (ARG)
           _DelayDWIN
     _EscreverDWINreg
       _DelayDWIN
     _EscreverDWINtrend
       _DelayDWIN
     _LerDWINram
       _DelayDWIN
     _LerDWINreg
       _DelayDWIN
     ___awdiv
       _LerDWINram (ARG)
         _DelayDWIN
     ___ftge
       ___ftmul (ARG)
         ___ftpack
         ___lbtoft (ARG)
           ___ftpack
       ___lbtoft (ARG)
         ___ftpack
       ___lwtoft (ARG)
         ___ftpack
     ___ftmul
       ___ftpack
       ___lbtoft (ARG)
         ___ftpack
     ___lbtoft
       ___ftpack
     ___lwdiv
     ___lwtoft
       ___ftpack
     ___wmul
       _LerDWINram (ARG)
         _DelayDWIN
   _Inicializacao
   _LeDadosReceita
     _LerDWINram
       _DelayDWIN
   _LeParamConfig
     _LerDWINram
       _DelayDWIN
     ___awdiv
       _LerDWINram (ARG)
         _DelayDWIN
   _LerDWINreg
     _DelayDWIN
   _ModoManual
     _AcionaValvulaMotorizada
       _DelayDWIN
       _DelaySeg
     _DelaySeg
     _EscreverDWINram
       _DelayDWIN
       ___awdiv (ARG)
         _LerDWINram (ARG)
           _DelayDWIN
     _LerDWINram
       _DelayDWIN
     ___lwdiv
     ___wmul
       _LerDWINram (ARG)
         _DelayDWIN
   _ResetaSaidas
     _AcionaValvulaMotorizada
       _DelayDWIN
       _DelaySeg
     _EscreverDWINram
       _DelayDWIN
       ___awdiv (ARG)
         _LerDWINram (ARG)
           _DelayDWIN

 _LowISR (ROOT)
   i1___awdiv
   i1___lwdiv

 _HighISR (ROOT)
   ___awmod
   i2___lwdiv
   i2___wmul

 Address spaces:
Name               Size   Autos  Total    Cost      Usage
BIGRAM             7FF      0       0      21        0.0%
EEDATA             100      0       0       0        0.0%
BITBANK7           100      0       0      18        0.0%
BANK7              100      0       0      19        0.0%
BITBANK6           100      0       0      16        0.0%
BANK6              100      0       0      17        0.0%
BITBANK5           100      0       0      14        0.0%
BANK5              100      0       0      15        0.0%
BITBANK4           100      0       0      12        0.0%
BANK4              100      0       0      13        0.0%
BITBANK3           100      0       0      10        0.0%
BANK3              100      0       0      11        0.0%
BITBANK2           100      0       0       8        0.0%
BANK2              100      0       0       9        0.0%
BITBANK1           100      0       0       6        0.0%
BANK1              100     2F      7F       7       49.6%
BITBANK0            A0      0       0       4        0.0%
BANK0               A0     1B      85       5       83.1%
BITCOMRAM           5F      0       3       0        3.2%
COMRAM              5F     1F      46       1       73.7%
BITSFR               0      0       0      40        0.0%
SFR                  0      0       0      40        0.0%
STACK                0      0       0       2        0.0%
NULL                 0      0       0       0        0.0%
ABS                  0      0     14A      20        0.0%
DATA                 0      0     14A       3        0.0%
CODE                 0      0       0       0        0.0%


Microchip Technology PIC18 Macro Assembler V1.34 build -361300703 
Symbol Table                                                                                   Thu Jun 01 08:39:49 2017

                   DelayDWIN@cont 0151               _TemperaturaSparging 009B  
                              _KD 0097                                _KI 001A  
                              _KP 001B                      ___awdiv@sign 015C  
                              bsr 000FE0      ExecutaBrassagem@MinutosEtapa 017C  
             ___wmul@multiplicand 0159                i2___lwdiv@dividend 003E  
                   _Outputs10to17 001C                       __CFG_BORV$3 000000  
                    __CFG_CP0$OFF 000000                      __CFG_CP1$OFF 000000  
                    __CFG_CP2$OFF 000000                      __CFG_CP3$OFF 000000  
                             l603 061C                               l347 219C  
                             l444 30D4                               l380 2AE4  
                             l613 0822                               l605 06CE  
                             l470 29DC                               l391 2B38  
                             l383 2AEE                               l623 08D6  
                             l464 29C8                               l640 0A32  
                             l393 2B3C                               l385 2AF2  
                             l449 2DF4                               l457 2E5C  
                             l473 2A22                               l465 29B6  
                             l633 0994                               l394 2B40  
                             l386 2AF6                               l618 0876  
                             l395 2B44                               l387 2AFA  
                             l491 2F2A                               l483 2A94  
                             l651 0BD4                               l396 2B48  
                             l388 2AFE                               l652 0BDC  
                             l628 0932                               l732 1D96  
                             l397 2B4C                               l389 2B02  
                             l477 2A80                               l733 1B5A  
                             l486 2AD2                               l478 2A6E  
                             l670 1106                               l742 1C38  
                             l655 0CDA                               l647 0B56  
                             l751 1D16                               l760 1E1C  
                             l736 1BA4                               l577 033A  
                             l761 1E3E                               l745 1C82  
                             l729 1B20                               l666 0FEA  
                             l690 1540                               l683 1328  
                             l763 1E9E                               l739 1BEE  
                             l668 1078                               l596 04D2  
                             l756 1DDE                               l748 1CCC  
                             l597 050E                               l757 1E00  
                             l790 301A                               l687 143A  
                             l983 2898                               _IN0 0222  
                             _IN1 0223                      __CFG_CPB$OFF 000000  
                             _PR2 000FCB                      __CFG_CPD$OFF 000000  
                   _Inicializacao 2D1A                      __CFG_BOR$OFF 000000  
                             fsr2 000FD9                      ___awmod@sign 0043  
                             prod 000FF3                               wreg 000FE8  
           __end_of_LeParamConfig 27CA                      __CFG_FOSC$HS 000000  
                    __CFG_LVP$OFF 000000                      __CFG_WDT$OFF 000000  
                            l1109 2674                              l1242 307E  
                            l1308 2C8E                              l1335 30AA  
                            l1185 246C                              l1098 26AC  
                            l1179 2966                              l6021 045C  
                            l6007 03D4                              l5411 2FBA  
                            l6203 0868                              l6131 0760  
                            l6043 0514                              l5421 30B2  
                            l5405 2F9C                              l5415 2FD4  
                            l5407 2FA6                              l5511 2B06  
                            l6207 0872                              l6119 0730  
                            l6055 05B8                              l5425 30BC  
                            l5513 2B30                              l5441 2600  
                            l5433 25A8                              l6321 09DC  
                            l6313 09B4                              l6233 08BE  
                            l6065 05F6                              l5507 2AE8  
                            l5603 2AB6                              l6251 08F6  
                            l6227 08B2                              l6219 0896  
                            l6067 05FE                              l7203 22EA  
                            l5517 2B50                              l5461 269E  
                            l5445 2622                              l5437 25BE  
                            l6173 0810                              l6157 07E0  
                            l6069 0608                              l5519 2B7A  
                            l5535 2DD2                              l5623 2F12  
                            l5455 2680                              l5447 2654  
                            l5439 25CE                              l6407 0BAA  
                            l6351 0A52                              l6327 0A04  
                            l6319 09D4                              l6087 0668  
                            l5545 2E00                              l5705 281E  
                            l5721 2878                              l5449 2664  
                            l6281 0952                              l6265 0920  
                            l6177 081E                              l5539 2DDC  
                            l5563 2E44                              l5619 2F08  
                            l5483 29D0                              l5475 299E  
                            l5707 282C                              l5643 233C  
                            l6507 0E08                              l6451 0C92  
                            l6291 0970                              l7171 2240  
                            l7163 221E                              l5629 2F36  
                            l5493 29FE                              l5725 288E  
                            l5717 2868                              l5709 2836  
                            l5733 28DC                              l5645 2362  
                            l6621 1194                              l6461 0CEC  
                            l6381 0AE4                              l6269 092E  
                            l6189 0842                              l5821 1EA6  
                            l7173 2244                              l7165 2224  
                            l5559 2E3A                              l5479 29C0  
                            l5743 2962                              l5671 2402  
                            l5663 23C6                              l6703 1392  
                            l6543 0EB8                              l6295 0978  
                            l6199 0860                              l5831 1EF4  
                            l7183 2296                              l5569 2E68  
                            l5593 2A88                              l5585 2A56  
                            l5737 291E                              l5681 2446  
                            l5673 240A                              l5649 2376  
                            l5761 2C4C                              l6641 122A  
                            l6553 0EEC                              l5841 1F62  
                            l5833 1F0A                              l5825 1EB2  
                            l7169 223C                              l7177 224A  
                            l5667 23E6                              l6635 11E0  
                            l6555 0EF2                              l6387 0B0C  
                            l5851 1FD0                              l5843 1F78  
                            l5835 1F20                              l5827 1EC8  
                            l6803 1D50                              l7195 22CE  
                            l7179 2278                              l5589 2A78  
                            l5693 27E8                              l5677 242A  
                            l5757 2C34                              l6629 11B8  
                            l6725 1444                              l5933 01C8  
                            l5861 203E                              l5853 1FE6  
                            l5845 1F8E                              l5837 1F36  
                            l5829 1EDE                              l7189 22B0  
                            l5759 2C42                              l6647 1252  
                            l5951 026A                              l5943 01F4  
                            l5863 2054                              l5855 1FFC  
                            l5847 1FA4                              l5839 1F4C  
                            l5871 2104                              l6831 1E7E  
                            l7199 22E4                              l5769 2C7E  
                            l5953 0298                              l5865 206A  
                            l5857 2012                              l5849 1FBA  
                            l6809 1DB8                              l5699 2800  
                            l6579 0F5C                              l6499 0D9C  
                            l5971 02F6                              l5963 02C6  
                            l5947 023C                              l5939 01E2  
                            l5891 2194                              l5883 212A  
                            l5859 2028                              l5875 210A  
                            l6771 1C1E                              l6763 1BD4  
                            l6755 1B8A                              l6747 1B40  
                            l6677 12E6                              l5981 0322  
                            l5869 2080                              l6829 1E5A  
                            l5959 02AA                              l5993 0374  
                            l6795 1CFC                              l6787 1CB2  
                            l6779 1C68                              l6799 1D36  
                            u4611 2328                              u4631 2352  
                            u6167 2FC2                              u6177 30C4  
                            _OUT0 0225                              _OUT1 0226  
                            _main 21A0                      ___ftpack@arg 0150  
                    ___ftpack@exp 0153                              fsr0h 000FEA  
                            fsr1h 000FE2                i2___lwdiv@quotient 00C9  
                            fsr0l 000FE9                              fsr2h 000FDA  
                            fsr1l 000FE1                              indf2 000FDF  
                            fsr2l 000FD9                      _fSerialInEnd 0230  
                            pclat 000FFA                              prodh 000FF4  
                            prodl 000FF3                              start 015A  
                   __CFG_IESO$OFF 000000                      _VolumeDosado 0088  
                    _CanalADAtivo 00E3                   __end_of_HighISR 1A6C  
                   __CFG_MCLRE$ON 000000                      ___ftmul@cntr 0169  
                    ___param_bank 000010                      ___ftmul@sign 016A  
                ?_EscreverDWINram 015F                  ?_EscreverDWINreg 0152  
                   __CFG_PLLDIV$1 000000                        _LerDWINram 2968  
                      _LerDWINreg 2A24                             ?_main 0025  
                  i1___awdiv@sign 002A                   __end_of___awdiv 289A  
                           _EEADR 000FA9                   __end_of___awmod 2D1A  
                  ?_Inicializacao 0025                             _CMCON 000FB4  
                      _ContDecSeg 0015                   __end_of___ftmul 246E  
                           _T0CON 000FD5                   ___awdiv@divisor 0159  
                           _T2CON 000FCA                             _T3CON 000FB1  
                 __end_of___lwdiv 2C98                             i1l305 0114  
                           i2l275 17C8                             i2l259 169E  
                           i2l284 17EE                             i2l292 1A32  
                           i2l276 17C4                             i2l285 17F4  
                           i1l983 2C14                             i2l790 30FC  
                 ___awdiv@counter 015B                             i2l996 2D18  
                           _RCREG 000FAE                             _TMR0L 000FD6  
                           _SPBRG 000FAF                             _PORTA 000F80  
                           _PORTB 000F81                             _PORTC 000F82  
                           _PORTD 000F83                             _PORTE 000F84  
                   __CFG_USBDIV$1 000000                             _TRISA 000F92  
                           _TRISB 000F93                             _TRISC 000F94  
                           _TRISD 000F95                             _TRISE 000F96  
                           _TXREG 000FAD                     __CFG_PWRT$OFF 000000  
                           _Bipar 30FE            EscreverDWINtrend@valor 0152  
                   __CFG_WRT0$OFF 000000                     __CFG_WRT1$OFF 000000  
                   __CFG_WRT2$OFF 000000                     __CFG_WRT3$OFF 000000  
                  __CFG_EBTR0$OFF 000000                    __CFG_FCMEN$OFF 000000  
                  __CFG_EBTR1$OFF 000000                    __CFG_EBTR2$OFF 000000  
                  __CFG_EBTR3$OFF 000000                     __CFG_WRTB$OFF 000000  
                   __CFG_WRTC$OFF 000000                     __CFG_WRTD$OFF 000000  
                  __CFG_EBTRB$OFF 000000                     ___ftpack@sign 0154  
                  __pbitbssCOMRAM 0220                             tablat 000FF5  
                __end_ofi2___wmul 30FE       ExecutaBrassagem@EstadoBomba 0095  
                           status 000FD8                __size_ofi1___awdiv 0096  
__size_of_AcionaValvulaMotorizada 00AC                  __end_of_DelaySeg 2FE4  
              __size_ofi1___lwdiv 005C                __size_ofi2___lwdiv 0068  
         _ControlePotenciaFervura 0220                   __initialization 301C  
                   DelaySeg@tempo 0151                      __end_of_main 2312  
              __size_of_DelayDWIN 002A                    LerDWINram@cont 0156  
                  LerDWINreg@cont 0156                            ??_main 00E3  
                      _ModoManual 1A6C                     __activetblptr 000002  
                          ?_Bipar 0025                 _OnOffControleTemp 0227  
                      _Inputs2to9 0019                   __CFG_CCP2MX$OFF 000000  
               ?_ExecutaBrassagem 0025                            _ADCON0 000FC2  
                          _ADCON1 000FC1                            _ADCON2 000FC0  
                          _ADRESH 000FC4                            _ADRESL 000FC3  
                          _EEDATA 000FA8                            _CCPR1H 000FBF  
                          _CCPR1L 000FBE                            _CCPR2L 000FBB  
                          _EECON2 000FA7                  ___awdiv@dividend 0157  
              ??_ExecutaBrassagem 0174                  __end_of___ftpack 26AE  
                __end_of___lbtoft 3080                            i1l1308 2F8E  
                          i1l5163 00A4                            i1l5155 008A  
                          i2l1308 2ECC                            i1l5175 00C0  
                          i1l5187 0106                            i1l4851 2BA8  
                          i1l4861 2BD0                            i1l4845 2B96  
                          i1l4857 2BBE                            i1l4873 2BFA  
                          i1l4859 2BC8                            i1l4891 2F64  
                          i1l4877 2C0A                            i1l4869 2BEE  
                          i1l4887 2F52                            i2l7001 16A2  
                          i1l4889 2F5C                            i2l7003 16C8  
                          i1l4899 2F82                            i2l7013 1738  
                          i2l7005 16E2                            i2l7015 174E  
                          i2l7007 16EE                            i2l7033 1782  
                          i2l7017 1754                            i2l7043 1796  
                          i2l7019 175C                            i2l7123 1A16  
                          i2l7053 17AE                            i2l7119 1A0C  
                          i2l7063 17DE                            i2l7065 17EA  
                          i2l7049 17A6                            i2l7091 184C  
                          i2l7059 17CC                            i2l7093 1852  
                          i2l7085 183A                            i2l7097 185C  
                          i2l6907 2EBE                            i2l6871 2CF2  
                          i2l6863 2CCA                            i2l6855 2CAE  
                          i2l6865 2CD4                            i2l6867 2CDC  
                          i2l6875 2CFE                            i2l6859 2CBC  
                          i2l6879 2D0E                            i2l6895 2E88  
                          i2l6897 2E94                            i2l6899 2E9C  
                          i2l6987 1618                            i2l6997 1684  
                          i2l6999 169A                  __end_of___lwtoft 30AC  
                       ??_HighISR 00CB                            _SPBRGH 000FB0  
                  _periodocaptura 0024                            _LowISR 0018  
                  __CFG_XINST$OFF 000000                            ___ftge 289A  
                          ___wmul 2FE4                         ??___awdiv 00E3  
                       ??___awmod 0042                         ??___ftmul 0162  
                       ??___lwdiv 00E3                   ??_Inicializacao 00E3  
                          clear_0 3022                            clear_1 302E  
                          clear_2 3040                       ?_LerDWINram 0152  
                     ?_LerDWINreg 0152                  ___awdiv@quotient 015D  
                 ___awmod@divisor 0040                   ___awmod@counter 0042  
             main@EstadoPrincipal 017E              EscreverDWINram@valor 0161  
           ___ftmul@f3_as_product 0166                      LowISR@Indice 0013  
               __end_ofi1___awdiv 2C16              EscreverDWINreg@valor 0152  
               __end_ofi1___lwdiv 2F98                 __end_ofi2___lwdiv 2ED6  
                          tblptrh 000FF7                            tblptrl 000FF6  
                          tblptru 000FF8                        _TotalHoras 00A0  
               __end_of_DelayDWIN 30D6                        __accesstop 0060  
         __end_of__initialization 3046                   __CFG_PBADEN$OFF 000000  
                      ___ftge@ff1 016B                        ___ftge@ff2 016E  
                   ___rparam_used 000001                        ___lbtoft@c 015B  
                      ___ftmul@f1 015C                        ___ftmul@f2 015F  
                   __end_of_Bipar 310A                    __pcstackCOMRAM 0025  
                HighISR@ContMedia 0010                        ___lwtoft@c 0158  
                     ?_ModoManual 0025                         ?i2___wmul 003E  
               _EscreverDWINtrend 2ED6                     ?_ResetaSaidas 0025  
                         ??_Bipar 00E3                         ?_DelaySeg 0025  
              ?_EscreverDWINtrend 0152              LerDWINram@VPrecebido 0154  
                      __pbssBANK0 0060                        __pbssBANK1 0100  
         _AcionaValvulaMotorizada 2AD4               ??_EscreverDWINtrend 00E3  
             __size_of_LerDWINram 00BC               __size_of_LerDWINreg 00B0  
                         ?_LowISR 0025                           ?___ftge 016B  
                         ?___wmul 0157                           _CCP1CON 000FBD  
                         _CCP2CON 000FBA                         ?___ftpack 0150  
                       ?___lbtoft 0158         __end_of_EscreverDWINtrend 2F3C  
                 _FreeRunSegundos 008B                         ?___lwtoft 0158  
                      ??i2___wmul 0042                i1___awdiv@dividend 0025  
                  ??_ResetaSaidas 00E3           __size_of_LeDadosReceita 0300  
                      ??_DelaySeg 0150                   __CFG_VREGEN$OFF 000000  
              LerDWINram@endereco 0152                           _HighISR 0008  
             __size_of_ModoManual 0434                           __Hparam 0000  
                         _Minutos 0098                           __Lparam 0000  
              i1___awdiv@quotient 002B                   __size_of_LowISR 0142  
                         _TempInt 008D                LerDWINreg@endereco 0154  
          __size_of_LeParamConfig 011C                   __size_of___ftge 00CE  
  AcionaValvulaMotorizada@sentido 0155                           ___awdiv 27CA  
                         ___awmod 2C98    AcionaValvulaMotorizada@valvula 0154  
                 __size_of___wmul 0038                           ___ftmul 2312  
                         ___lwdiv 2C16                   __CFG_STVREN$OFF 000000  
                   HighISR@Temp16 00DC                           __pcinit 301C  
                      ??___ftpack 0155                        ??___lbtoft 00E3  
              LerDWINreg@recebido 0155                           __ramtop 0800  
                         __ptext0 21A0                           __ptext1 246E  
                         __ptext2 1A6C                           __ptext3 26AE  
                         __ptext4 1EA0                           __ptext5 2D1A  
                         __ptext6 015E                           __ptext7 2FE4  
                         __ptext8 3080                           __ptext9 2C16  
                      ??___lwtoft 00E3                 i1___lwdiv@divisor 0027  
               i1___lwdiv@counter 002B          __size_of_EscreverDWINram 006C  
        __size_of_EscreverDWINreg 0068                  ___awmod@dividend 003E  
       ??_AcionaValvulaMotorizada 00E3                    __pintcode_body 1542  
            end_of_initialization 3046                     __Lmediumconst 0000  
                         int_func 1542               i2___wmul@multiplier 003E  
                  ModoManual@temp 0166         __size_of_ExecutaBrassagem 13E4  
                       _RCSTAbits 000FAB                           postdec1 000FE5  
                         postdec2 000FDD                           postinc0 000FEE  
                         postinc1 000FE6                           postinc2 000FDE  
                    ??_LerDWINram 00E3                      ??_LerDWINreg 00E3  
                       _PORTAbits 000F80                         _PORTBbits 000F81  
      __size_of_EscreverDWINtrend 0066                         _PORTCbits 000F82  
                       _PORTDbits 000F83                         _PORTEbits 000F84  
                   _LeParamConfig 26AE                         i1___awdiv 2B80  
                       i1___lwdiv 2F3C                       _Outputs2to9 001D  
               i2___lwdiv@divisor 0040                         i2___lwdiv 2E6E  
               i2___lwdiv@counter 00C8                         _PWMpanela 00E4  
                       _TXSTAbits 000FAC                __end_of_LerDWINram 2A24  
              __end_of_LerDWINreg 2AD4                         _DelayDWIN 30AC  
            __end_of_ResetaSaidas 258E                       ___ftmul@exp 0165  
                  __end_of_LowISR 015A                    __end_of___ftge 2968  
                  __end_of___wmul 301C             EscreverDWINtrend@cont 0154  
                     _BAUDCONbits 000FB8           _TempoVolumeAguaPrimaria 0093  
                    ??_ModoManual 0164             __end_of_Inicializacao 2D9A  
                i2___wmul@product 0042                    _LeDadosReceita 1EA0  
             start_initialization 301C                    ?_LeParamConfig 0025  
               __size_ofi2___wmul 0028                      DelaySeg@cont 0152  
                      ?i1___awdiv 0025                        ?i1___lwdiv 0025  
               __size_of_DelaySeg 004C                        ?i2___lwdiv 003E  
        _PorcentagemBombaSparging 009A                 HighISR@FreeRun5ms 0012  
               ??_EscreverDWINram 00E3                 ??_EscreverDWINreg 00E3  
                      ?_DelayDWIN 0025                         _TempUChar 0021  
              __end_of_ModoManual 1EA0                          ??_LowISR 002D  
                       _SerialOut 0128                         _ToffBomba 009E  
                       _ValoresAD 0001                          ??___ftge 0171  
                        ??___wmul 00E3               EscreverDWINram@cont 0163  
             EscreverDWINreg@cont 0155                  __CFG_LPT1OSC$OFF 000000  
                       _t1captura 000B            __end_of_LeDadosReceita 21A0  
                       _t2captura 000D                  _ByteVolumeDosado 0014  
               __size_of___ftpack 0120                 __size_of___lbtoft 0030  
                    _ReceitaAtual 00A1                  main@SegundoAtual 017D  
                     __pbssCOMRAM 0001                 __size_of___lwtoft 002C  
           _TempoDescansosparging 009D                     __pcstackBANK0 00C8  
                   __pcstackBANK1 0150                      _Inputs10to17 0017  
                    _Inputs18to25 0018       HighISR@ValoresADanteriores1 0068  
     HighISR@ValoresADanteriores2 0070       HighISR@ValoresADanteriores3 0078  
     HighISR@ValoresADanteriores4 0080                          ?_HighISR 0025  
                 HighISR@EstadoAD 0011                         __pnvBANK0 00E3  
                _ExecutaBrassagem 015E                  ___lwdiv@dividend 0150  
               _TempoEncherVessel 0091                         __pintcode 0008  
                 HighISR@SomaErro 00DE                          ?___awdiv 0157  
                        ?___awmod 003E                          ?___ftmul 015C  
                        ?___lwdiv 0150                 i1___awdiv@divisor 0027  
                     __pintcodelo 0018                 i1___awdiv@counter 0029  
                 ?_LeDadosReceita 0025                   ??_LeParamConfig 00E3  
                  __size_of_Bipar 000C                       ??i1___awdiv 0029  
                ___lwdiv@quotient 0155                       ??i1___lwdiv 0029  
                 _TransmiteSerial 022F                      HighISR@Temp8 00E2  
                     ??i2___lwdiv 0042                      _MinutosBomba 0099  
           __size_of_ResetaSaidas 0120                    ___wmul@product 015B  
                 _MudancaSegundos 0224                       ??_DelayDWIN 0150  
                        _IPR1bits 000F9F                          _IPR2bits 000FA2  
                        _PIE1bits 000F9D                          _PIE2bits 000FA0  
                        _PIR1bits 000F9E                          i2u610_40 1964  
                        i2u610_45 195C                          _PIR2bits 000FA1  
                        i2u586_45 15EA                          i2u586_47 15EC  
                        i2u587_45 15F4                          i2u587_47 15F6  
                        _RCONbits 000FD0                  __CFG_WDTPS$32768 000000  
      _TempoAdicionarAguaSparging 009C                        _ADCON0bits 000FC2  
         EscreverDWINram@endereco 015F                 ___wmul@multiplier 0157  
                        i2___wmul 30D6                          _DelaySeg 2F98  
                    _ResetaSaidas 246E                      _TempPanelaOK 022E  
         EscreverDWINreg@endereco 0154                       _INTCON2bits 000FF1  
                __size_of_HighISR 1A64                        _EECON1bits 000FA6  
                        __Hrparam 0000                          _TempChar 0020  
                        _TempUInt 008F                          _Segundos 001E  
                        _SerialIn 0100                          __Lrparam 0000  
                        _TonBomba 009F                          _StatusY2 0228  
                        _StatusY3 0229                          _StatusY4 022A  
                        _StatusY5 022B                          _StatusY6 022C  
                        _StatusY7 022D              ExecutaBrassagem@temp 017A  
                __size_of___awdiv 00D0                    HighISR@CanalAD 000F  
                __size_of___awmod 0082             i2___wmul@multiplicand 0040  
                __size_of___ftmul 015C                  __size_of___lwdiv 0082  
                        ___ftpack 258E                          ___lbtoft 3050  
 ExecutaBrassagem@EstadoBrassagem 0096                          ___lwtoft 3080  
                 _EscreverDWINram 2D9A                   _EscreverDWINreg 2E06  
                  _EnviaDadoTrend 0221          ?_AcionaValvulaMotorizada 0154  
                 ___lwdiv@divisor 0152                   ___lwdiv@counter 0154  
                        __ptext10 3050                          __ptext11 2312  
                        __ptext20 30FE                          __ptext12 258E  
                        __ptext21 2AD4                          __ptext13 289A  
                        __ptext30 2C98                          __ptext22 2F98  
                        __ptext14 27CA                          __ptext23 30AC  
                        __ptext15 2A24                          __ptext16 2968  
                        __ptext25 2F3C                          __ptext17 2ED6  
                        __ptext26 2B80                          __ptext18 2E06  
                        __ptext19 2D9A                          __ptext28 30D6  
                        __ptext29 2E6E                i1___lwdiv@dividend 0025  
             HighISR@AccValoresAD 0060            _FrequenciaMedidorFluxo 0016  
              _SetPointTempPanela 001F                       HighISR@Erro 00E0  
                   __size_of_main 0172             __CFG_CPUDIV$OSC1_PLL2 000000  
              i1___lwdiv@quotient 0029                        _INTCONbits 000FF2  
        __end_of_ExecutaBrassagem 1542                          intlevel1 0000  
                        intlevel2 0000            __size_of_Inicializacao 0080  
                ??_LeDadosReceita 0157           __end_of_EscreverDWINram 2E06  
         __end_of_EscreverDWINreg 2E6E   __end_of_AcionaValvulaMotorizada 2B80  
                   _TotalSegundos 0023              LeDadosReceita@buffer 0159  
            LeDadosReceita@utemp8 015B                      _TotalMinutos 0022  
                  _TAmostragemPID 0009  
